Archive member included to satisfy reference by file (symbol)

arch/arm/lib/lib.a(lib1funcs.o)
                              board/molchip/built-in.o (__aeabi_uidiv)
arch/arm/lib/lib.a(uldivmod.o)
                              board/molchip/built-in.o (__aeabi_uldivmod)
arch/arm/lib/lib.a(div0.o)    arch/arm/lib/lib.a(lib1funcs.o) (__div0)

Discarded input sections

 .data          0x0000000000000000        0x0 arch/arm/cpu/armv7/start.o
 .bss           0x0000000000000000        0x0 arch/arm/cpu/armv7/start.o
 .text.v7_arch_cp15_set_l2aux_ctrl
                0x0000000000000000        0x8 arch/arm/cpu/armv7/built-in.o
 .text.v7_arch_cp15_set_acr
                0x0000000000000000        0x8 arch/arm/cpu/armv7/built-in.o
 .text.sdelay   0x0000000000000000        0xc arch/arm/cpu/armv7/built-in.o
 .text.wait_on_value
                0x0000000000000000       0x38 arch/arm/cpu/armv7/built-in.o
 .text.s_init   0x0000000000000000        0x4 arch/arm/cpu/armv7/built-in.o
 .text.lowlevel_init
                0x0000000000000000       0x24 arch/arm/cpu/armv7/built-in.o
 .data          0x0000000000000000        0x0 arch/arm/cpu/armv7/built-in.o
 .bss           0x0000000000000000        0x0 arch/arm/cpu/armv7/built-in.o
 .text.mc_bringup_ca7
                0x0000000000000000      0x11c arch/arm/lib/built-in.o
 .text.setup_board_tags
                0x0000000000000000        0x4 arch/arm/lib/built-in.o
 .text.armv7_boot_nonsec_default
                0x0000000000000000        0x8 arch/arm/lib/built-in.o
 .text.reset_misc
                0x0000000000000000        0x4 arch/arm/lib/built-in.o
 .text.enable_caches
                0x0000000000000000        0xc arch/arm/lib/built-in.o
 .text.invalidate_dcache_range
                0x0000000000000000        0x4 arch/arm/lib/built-in.o
 .text.flush_dcache_range
                0x0000000000000000        0x4 arch/arm/lib/built-in.o
 .text.flush_dcache_all
                0x0000000000000000        0xc arch/arm/lib/built-in.o
 .text.arm_init_before_mmu
                0x0000000000000000        0x4 arch/arm/lib/built-in.o
 .text.mmu_page_table_flush
                0x0000000000000000        0x4 arch/arm/lib/built-in.o
 .text.fdt_psci
                0x0000000000000000        0x8 arch/arm/lib/built-in.o
 .rodata.enable_caches.str1.1
                0x0000000000000000       0x1d arch/arm/lib/built-in.o
 .data          0x0000000000000000        0x0 arch/arm/lib/built-in.o
 .__efi_runtime_rel_start
                0x0000000000000000        0x0 arch/arm/lib/built-in.o
 .__efi_runtime_rel_stop
                0x0000000000000000        0x0 arch/arm/lib/built-in.o
 .__efi_runtime_start
                0x0000000000000000        0x0 arch/arm/lib/built-in.o
 .__efi_runtime_stop
                0x0000000000000000        0x0 arch/arm/lib/built-in.o
 .__secure_end  0x0000000000000000        0x0 arch/arm/lib/built-in.o
 .__secure_stack_end
                0x0000000000000000        0x0 arch/arm/lib/built-in.o
 .__secure_stack_start
                0x0000000000000000        0x0 arch/arm/lib/built-in.o
 .__secure_start
                0x0000000000000000        0x0 arch/arm/lib/built-in.o
 .bss           0x0000000000000000        0x0 arch/arm/lib/built-in.o
 .text          0x0000000000000000        0x0 arch/arm/mach-molchip/built-in.o
 .data          0x0000000000000000        0x0 arch/arm/mach-molchip/built-in.o
 .bss           0x0000000000000000        0x0 arch/arm/mach-molchip/built-in.o
 .text          0x0000000000000000        0x0 board/molchip/built-in.o
 .text.MC_GetResetType
                0x0000000000000000      0x10c board/molchip/built-in.o
 .text.print_reset_type
                0x0000000000000000       0x58 board/molchip/built-in.o
 .text.MC_ExtResetEnable
                0x0000000000000000       0x14 board/molchip/built-in.o
 .text.board_eth_init
                0x0000000000000000        0x8 board/molchip/built-in.o
 .text.v2m_cfg_write
                0x0000000000000000        0x8 board/molchip/built-in.o
 .text.reset_cpu
                0x0000000000000000        0x4 board/molchip/built-in.o
 .text.get_board_rev
                0x0000000000000000        0x8 board/molchip/built-in.o
 .text.uart_reset
                0x0000000000000000       0x20 board/molchip/built-in.o
 .text.uart_set_baudrate
                0x0000000000000000       0x50 board/molchip/built-in.o
 .text.uart_select_data_len
                0x0000000000000000       0x1c board/molchip/built-in.o
 .text.uart_pority_enable
                0x0000000000000000       0x20 board/molchip/built-in.o
 .text.uart_select_pority
                0x0000000000000000       0x20 board/molchip/built-in.o
 .text.uart_config_stop
                0x0000000000000000       0x20 board/molchip/built-in.o
 .text.uart_fifo_reset
                0x0000000000000000       0x34 board/molchip/built-in.o
 .text.uart_fifo_enable
                0x0000000000000000       0x20 board/molchip/built-in.o
 .text.uart_init
                0x0000000000000000       0x24 board/molchip/built-in.o
 .text.uart_hw_init
                0x0000000000000000       0x18 board/molchip/built-in.o
 .text.uart_read_rbr
                0x0000000000000000       0x28 board/molchip/built-in.o
 .text.uart_getc
                0x0000000000000000       0x20 board/molchip/built-in.o
 .text.spi_nand_read_data
                0x0000000000000000       0xf4 board/molchip/built-in.o
 .text.spl_nand_ctroller_reset
                0x0000000000000000       0x6c board/molchip/built-in.o
 .text.spl_nand_load_image
                0x0000000000000000       0xfc board/molchip/built-in.o
 .text.molchip_spic_clk_enable
                0x0000000000000000       0x20 board/molchip/built-in.o
 .text.pwm2_init
                0x0000000000000000       0x9c board/molchip/built-in.o
 .text.pwm_hw_init
                0x0000000000000000       0x5c board/molchip/built-in.o
 .text.close_upwm2
                0x0000000000000000       0x88 board/molchip/built-in.o
 .text.pts_init
                0x0000000000000000       0x70 board/molchip/built-in.o
 .text.pts_get_value
                0x0000000000000000       0x1c board/molchip/built-in.o
 .text.pts_get_value_us
                0x0000000000000000        0x4 board/molchip/built-in.o
 .text.pts_get_value_ms
                0x0000000000000000       0x18 board/molchip/built-in.o
 .text.pts_udelay
                0x0000000000000000       0x38 board/molchip/built-in.o
 .text.sdio_init
                0x0000000000000000       0xb8 board/molchip/built-in.o
 .text.sdio_write
                0x0000000000000000       0x5c board/molchip/built-in.o
 .text.sdio_read
                0x0000000000000000       0x5c board/molchip/built-in.o
 .text.spl_sdio0_load_image
                0x0000000000000000       0x54 board/molchip/built-in.o
 .text.spl_sdio1_load_image
                0x0000000000000000       0x54 board/molchip/built-in.o
 .text.sdl_sdio1_program_image
                0x0000000000000000       0x5c board/molchip/built-in.o
 .text.unstuff_bits
                0x0000000000000000       0x4c board/molchip/built-in.o
 .text.mmc_go_idle
                0x0000000000000000       0x40 board/molchip/built-in.o
 .text.mmc_send_if_cond
                0x0000000000000000       0x6c board/molchip/built-in.o
 .text.mmc_app_cmd
                0x0000000000000000       0x50 board/molchip/built-in.o
 .text.mmc_wait_for_app_cmd
                0x0000000000000000       0x64 board/molchip/built-in.o
 .text.mmc_send_app_op_cond
                0x0000000000000000       0x84 board/molchip/built-in.o
 .text.mmc_send_cxd_native
                0x0000000000000000       0x60 board/molchip/built-in.o
 .text.mmc_send_cid
                0x0000000000000000       0x10 board/molchip/built-in.o
 .text.mmc_send_relative_addr
                0x0000000000000000       0x4c board/molchip/built-in.o
 .text.mmc_send_csd
                0x0000000000000000        0xc board/molchip/built-in.o
 .text.mmc_select_card
                0x0000000000000000       0x44 board/molchip/built-in.o
 .text.mmc_dw_set_blocklen
                0x0000000000000000       0x3c board/molchip/built-in.o
 .text.mmc_app_set_bus_width
                0x0000000000000000       0x60 board/molchip/built-in.o
 .text.mmc_blk_mq_issue_rw_rq
                0x0000000000000000       0xd4 board/molchip/built-in.o
 .text.init_sdcard
                0x0000000000000000       0xf8 board/molchip/built-in.o
 .text.mci_selection
                0x0000000000000000       0x28 board/molchip/built-in.o
 .text.dw_mci_start_command
                0x0000000000000000       0x68 board/molchip/built-in.o
 .text.dw_mci_prepare_command
                0x0000000000000000       0x78 board/molchip/built-in.o
 .text.dw_mci_prepare_desc32
                0x0000000000000000       0x84 board/molchip/built-in.o
 .text.dw_mci_idmac_start_dma
                0x0000000000000000       0x24 board/molchip/built-in.o
 .text.dw_mci_submit_data_dma
                0x0000000000000000       0x28 board/molchip/built-in.o
 .text.dw_mci_start_request
                0x0000000000000000       0x68 board/molchip/built-in.o
 .text.dw_mci_setup_bus
                0x0000000000000000       0xa8 board/molchip/built-in.o
 .text.dw_mci_set_ios
                0x0000000000000000       0x34 board/molchip/built-in.o
 .text.dw_mci_hw_reset
                0x0000000000000000       0x20 board/molchip/built-in.o
 .text.dw_mci_init_dma
                0x0000000000000000       0x6c board/molchip/built-in.o
 .text.dw_mci_init
                0x0000000000000000       0x40 board/molchip/built-in.o
 .text.mci_addr_selection
                0x0000000000000000      0x100 board/molchip/built-in.o
 .text.mci_drive_strength
                0x0000000000000000       0xfc board/molchip/built-in.o
 .text.mci_pull_up
                0x0000000000000000       0xfc board/molchip/built-in.o
 .text.mci_io_mux
                0x0000000000000000       0x58 board/molchip/built-in.o
 .text.mci_clk_enable
                0x0000000000000000       0x44 board/molchip/built-in.o
 .text.mci_ctl_reset
                0x0000000000000000       0x34 board/molchip/built-in.o
 .text.dw_mci_ctrl_reset
                0x0000000000000000       0x58 board/molchip/built-in.o
 .text.dw_mci_idmac_reset
                0x0000000000000000       0x1c board/molchip/built-in.o
 .text.dw_mci_select_idmac_interface
                0x0000000000000000       0x1c board/molchip/built-in.o
 .text.dw_mci_deable_idmac
                0x0000000000000000       0x1c board/molchip/built-in.o
 .text.dw_mci_start_run
                0x0000000000000000       0x18 board/molchip/built-in.o
 .text.dw_mci_idmac_stop_dma
                0x0000000000000000       0x30 board/molchip/built-in.o
 .text.dw_mci_mask_interrupts
                0x0000000000000000       0x20 board/molchip/built-in.o
 .text.dw_mci_set_descriptor
                0x0000000000000000       0x14 board/molchip/built-in.o
 .text.dw_mci_cmd_start
                0x0000000000000000       0x14 board/molchip/built-in.o
 .text.dw_mci_wait_while_busy
                0x0000000000000000       0x5c board/molchip/built-in.o
 .text.mci_send_cmd
                0x0000000000000000       0x54 board/molchip/built-in.o
 .text.wait_cmd_done
                0x0000000000000000       0x74 board/molchip/built-in.o
 .text.dw_mci_cmdarg
                0x0000000000000000       0x14 board/molchip/built-in.o
 .text.dw_mci_enable_dma_interface
                0x0000000000000000       0x1c board/molchip/built-in.o
 .text.dw_mci_disable_irq
                0x0000000000000000       0x1c board/molchip/built-in.o
 .text.dw_mci_tmout
                0x0000000000000000       0x14 board/molchip/built-in.o
 .text.dw_mci_bytcnt
                0x0000000000000000       0x14 board/molchip/built-in.o
 .text.dw_mci_blksz
                0x0000000000000000       0x14 board/molchip/built-in.o
 .text.dw_mci_card_busy
                0x0000000000000000       0x18 board/molchip/built-in.o
 .text.dw_mci_reset
                0x0000000000000000       0x3c board/molchip/built-in.o
 .text.dw_mci_interrupt
                0x0000000000000000       0xa4 board/molchip/built-in.o
 .text.dw_mci_disable_clk
                0x0000000000000000       0x1c board/molchip/built-in.o
 .text.dw_mci_div
                0x0000000000000000       0x14 board/molchip/built-in.o
 .text.dw_mci_enable_clk
                0x0000000000000000       0x1c board/molchip/built-in.o
 .text.dw_mci_slot_bus
                0x0000000000000000       0x14 board/molchip/built-in.o
 .text.dw_mci_sdr_mode_set
                0x0000000000000000       0x28 board/molchip/built-in.o
 .text.wait_dll_ready
                0x0000000000000000       0x70 board/molchip/built-in.o
 .text.sdio_cfg_init
                0x0000000000000000       0x30 board/molchip/built-in.o
 .text.mci_init
                0x0000000000000000       0x68 board/molchip/built-in.o
 .rodata.print_reset_type.str1.1
                0x0000000000000000       0x8e board/molchip/built-in.o
 .rodata.spl_nand_load_image.str1.1
                0x0000000000000000       0x68 board/molchip/built-in.o
 .rodata.sdio_write.str1.1
                0x0000000000000000       0x16 board/molchip/built-in.o
 .rodata.spl_sdio0_load_image.str1.1
                0x0000000000000000       0x14 board/molchip/built-in.o
 .rodata.spl_sdio1_load_image.str1.1
                0x0000000000000000       0x14 board/molchip/built-in.o
 .rodata.freqs  0x0000000000000000       0x10 board/molchip/built-in.o
 .bss           0x0000000000000000        0x0 board/molchip/built-in.o
 .bss.pwm2_glb  0x0000000000000000        0x4 board/molchip/built-in.o
 .bss.csd_struct
                0x0000000000000000        0x4 board/molchip/built-in.o
 .bss.descriptor
                0x0000000000000000    0x10000 board/molchip/built-in.o
 .bss.reg_sdio_base
                0x0000000000000000        0x4 board/molchip/built-in.o
 .bss.reg_sdio_clk_mux
                0x0000000000000000        0x4 board/molchip/built-in.o
 .bss.reg_sdio_ctrl0
                0x0000000000000000        0x4 board/molchip/built-in.o
 .bss.reg_sdio_ctrl1
                0x0000000000000000        0x4 board/molchip/built-in.o
 .bss.reg_sdio_ctrl2
                0x0000000000000000        0x4 board/molchip/built-in.o
 .bss.reg_sdio_spl1
                0x0000000000000000        0x4 board/molchip/built-in.o
 .bss.sdio_dllout_status_reg_drv
                0x0000000000000000        0x4 board/molchip/built-in.o
 .bss.sdio_dllout_status_reg_spl
                0x0000000000000000        0x4 board/molchip/built-in.o
 .text          0x0000000000000000        0x0 cmd/built-in.o
 .text.bootz_setup
                0x0000000000000000       0x18 cmd/built-in.o
 .text.jump_to_rtt_address
                0x0000000000000000        0x8 cmd/built-in.o
 .text.bootx_setup
                0x0000000000000000       0x18 cmd/built-in.o
 .text.invalidate_icache_all
                0x0000000000000000        0xc cmd/built-in.o
 .text.flush_dcache_all
                0x0000000000000000        0xc cmd/built-in.o
 .text.ethsw_define_functions
                0x0000000000000000       0x54 cmd/built-in.o
 .rodata.bootz_setup.str1.1
                0x0000000000000000       0x34 cmd/built-in.o
 .rodata.bootx_setup.str1.1
                0x0000000000000000       0x33 cmd/built-in.o
 .rodata.invalidate_icache_all.str1.1
                0x0000000000000000       0x33 cmd/built-in.o
 .rodata.flush_dcache_all.str1.1
                0x0000000000000000       0x2e cmd/built-in.o
 .data          0x0000000000000000        0x0 cmd/built-in.o
 .bss           0x0000000000000000        0x0 cmd/built-in.o
 .text          0x0000000000000000        0x0 common/built-in.o
 .text.hash_progressive_lookup_algo
                0x0000000000000000       0x3c common/built-in.o
 .text.hash_block
                0x0000000000000000       0x6c common/built-in.o
 .text.arch_cpu_init
                0x0000000000000000        0x8 common/built-in.o
 .text.dram_init_banksize
                0x0000000000000000       0x24 common/built-in.o
 .text.red_led_off
                0x0000000000000000        0x4 common/built-in.o
 .text.green_led_on
                0x0000000000000000        0x4 common/built-in.o
 .text.green_led_off
                0x0000000000000000        0x4 common/built-in.o
 .text.yellow_led_on
                0x0000000000000000        0x4 common/built-in.o
 .text.yellow_led_off
                0x0000000000000000        0x4 common/built-in.o
 .text.blue_led_on
                0x0000000000000000        0x4 common/built-in.o
 .text.blue_led_off
                0x0000000000000000        0x4 common/built-in.o
 .text.board_add_ram_info
                0x0000000000000000        0x4 common/built-in.o
 .text.arch_reserve_stacks
                0x0000000000000000        0x8 common/built-in.o
 .text.board_flash_wp_on
                0x0000000000000000        0x8 common/built-in.o
 .text.fixup_cpu
                0x0000000000000000        0x8 common/built-in.o
 .text.fdt_read_prop
                0x0000000000000000       0x64 common/built-in.o
 .text.fdt_getprop_u32_default_node
                0x0000000000000000       0x40 common/built-in.o
 .text.fdt_getprop_u32_default
                0x0000000000000000       0x40 common/built-in.o
 .text.do_fixup_by_path_u32
                0x0000000000000000       0x2c common/built-in.o
 .text.do_fixup_by_prop
                0x0000000000000000       0xa0 common/built-in.o
 .text.do_fixup_by_prop_u32
                0x0000000000000000       0x3c common/built-in.o
 .text.do_fixup_by_compat
                0x0000000000000000       0x8c common/built-in.o
 .text.do_fixup_by_compat_u32
                0x0000000000000000       0x2c common/built-in.o
 .text.fdt_fixup_cpu_freq
                0x0000000000000000       0x6c common/built-in.o
 .text.fdt_increase_size
                0x0000000000000000       0x14 common/built-in.o
 .text.fdt_del_subnodes
                0x0000000000000000       0x88 common/built-in.o
 .text.fdt_del_partitions
                0x0000000000000000       0xa0 common/built-in.o
 .text.fdt_node_set_part_info
                0x0000000000000000      0x228 common/built-in.o
 .text.fdt_fixup_mtdparts
                0x0000000000000000       0x94 common/built-in.o
 .text.fdt_del_node_and_alias
                0x0000000000000000       0x44 common/built-in.o
 .text.fdt_node_offset_by_compat_reg
                0x0000000000000000       0x88 common/built-in.o
 .text.fdt_alloc_phandle
                0x0000000000000000       0x58 common/built-in.o
 .text.fdt_set_phandle
                0x0000000000000000       0x60 common/built-in.o
 .text.fdt_create_phandle
                0x0000000000000000       0x64 common/built-in.o
 .text.fdt_set_node_status
                0x0000000000000000       0xec common/built-in.o
 .text.fdt_set_status_by_alias
                0x0000000000000000       0x2c common/built-in.o
 .text.fdt_verify_alias_address
                0x0000000000000000       0xd0 common/built-in.o
 .text.fdt_get_base_address
                0x0000000000000000       0x40 common/built-in.o
 .text.fdt_read_range
                0x0000000000000000      0x13c common/built-in.o
 .text.fdt_setup_simplefb_node
                0x0000000000000000      0x210 common/built-in.o
 .text.fdt_fixup_display
                0x0000000000000000       0xd4 common/built-in.o
 .text.mdio_register_seq
                0x0000000000000000       0x34 common/built-in.o
 .text.usb_submit_int_msg
                0x0000000000000000        0x4 common/built-in.o
 .text.usb_set_protocol
                0x0000000000000000       0x4c common/built-in.o
 .text.usb_set_idle
                0x0000000000000000       0x50 common/built-in.o
 .text.usb_get_report
                0x0000000000000000       0x58 common/built-in.o
 .text.usb_get_class_descriptor
                0x0000000000000000       0x58 common/built-in.o
 .text.board_usb_init
                0x0000000000000000        0x8 common/built-in.o
 .text.board_usb_cleanup
                0x0000000000000000        0x8 common/built-in.o
 .text.usb_find_usb2_hub_address_port
                0x0000000000000000       0x78 common/built-in.o
 .text.usb_hub_probe
                0x0000000000000000       0x54 common/built-in.o
 .text.splash_screen_prepare
                0x0000000000000000        0x8 common/built-in.o
 .text.menu_default_choice
                0x0000000000000000       0x1c common/built-in.o
 .text.serial_printf
                0x0000000000000000       0x44 common/built-in.o
 .text.fputc    0x0000000000000000       0x1c common/built-in.o
 .text.fputs    0x0000000000000000       0x1c common/built-in.o
 .text.fprintf  0x0000000000000000       0x4c common/built-in.o
 .text.confirm_yesno
                0x0000000000000000       0xd0 common/built-in.o
 .text.console_announce_r
                0x0000000000000000       0x74 common/built-in.o
 .text.stdio_print_current_devices
                0x0000000000000000       0xb0 common/built-in.o
 .text.realloc  0x0000000000000000      0x428 common/built-in.o
 .text.valloc   0x0000000000000000        0xc common/built-in.o
 .text.pvalloc  0x0000000000000000       0x18 common/built-in.o
 .text.cfree    0x0000000000000000        0x4 common/built-in.o
 .text.malloc_usable_size
                0x0000000000000000       0x3c common/built-in.o
 .text.mallopt  0x0000000000000000       0x54 common/built-in.o
 .text.memalign_simple
                0x0000000000000000       0x44 common/built-in.o
 .text.genimg_get_short_name
                0x0000000000000000       0x1c common/built-in.o
 .text.genimg_get_cat_name
                0x0000000000000000       0x5c common/built-in.o
 .text.genimg_get_cat_short_name
                0x0000000000000000       0x5c common/built-in.o
 .text.genimg_get_cat_count
                0x0000000000000000       0x18 common/built-in.o
 .text.genimg_get_cat_desc
                0x0000000000000000       0x18 common/built-in.o
 .text.genimg_get_type_short_name
                0x0000000000000000       0x10 common/built-in.o
 .text.genimg_get_comp_short_name
                0x0000000000000000       0x10 common/built-in.o
 .text.genimg_get_os_short_name
                0x0000000000000000       0x10 common/built-in.o
 .text.genimg_get_arch_short_name
                0x0000000000000000       0x10 common/built-in.o
 .text.get_table_entry_id
                0x0000000000000000       0x4c common/built-in.o
 .text.genimg_get_os_id
                0x0000000000000000       0x18 common/built-in.o
 .text.genimg_get_arch_id
                0x0000000000000000       0x18 common/built-in.o
 .text.genimg_get_type_id
                0x0000000000000000       0x18 common/built-in.o
 .text.genimg_get_comp_id
                0x0000000000000000       0x18 common/built-in.o
 .text.stdio_init
                0x0000000000000000       0x14 common/built-in.o
 .text.hex1_bin
                0x0000000000000000       0x3c common/built-in.o
 .text.hex2_bin
                0x0000000000000000       0x38 common/built-in.o
 .text.srec_decode
                0x0000000000000000      0x248 common/built-in.o
 .text.CYGACC_COMM_IF_GETC_TIMEOUT.constprop.0
                0x0000000000000000       0x4c common/built-in.o
 .text.xyzModem_flush
                0x0000000000000000       0x1c common/built-in.o
 .text.xyzModem_get_hdr
                0x0000000000000000      0x214 common/built-in.o
 .text.xyzModem_stream_open
                0x0000000000000000      0x204 common/built-in.o
 .text.xyzModem_stream_read
                0x0000000000000000      0x240 common/built-in.o
 .text.xyzModem_stream_close
                0x0000000000000000       0x54 common/built-in.o
 .text.xyzModem_stream_terminate
                0x0000000000000000       0x94 common/built-in.o
 .text.xyzModem_error
                0x0000000000000000       0x1c common/built-in.o
 .text.writels  0x0000000000000000       0x10 common/built-in.o
 .text.writelc  0x0000000000000000       0x10 common/built-in.o
 .text.set_gui_layer
                0x0000000000000000      0x100 common/built-in.o
 .text.sw_jpeg_dec
                0x0000000000000000        0x4 common/built-in.o
 .text.mc_lcm_module_init
                0x0000000000000000       0x18 common/built-in.o
 .text.mc_lcm_module_exit
                0x0000000000000000        0x4 common/built-in.o
 .text.regDefaultChecker
                0x0000000000000000       0x88 common/built-in.o
 .text.regDefaultGet
                0x0000000000000000       0x80 common/built-in.o
 .text.showRegValuePtr
                0x0000000000000000       0x8c common/built-in.o
 .text.lcm_gpio_pin_cfg
                0x0000000000000000       0xd4 common/built-in.o
 .text.lcm_gpio_default_cfg
                0x0000000000000000       0x68 common/built-in.o
 .text.get_lcm_ctrl
                0x0000000000000000        0xc common/built-in.o
 .text.vou_clk_on_reset
                0x0000000000000000       0x20 common/built-in.o
 .text.dsi_host_clk_on_reset
                0x0000000000000000       0x20 common/built-in.o
 .text.dsi_phy_clk_on_reset
                0x0000000000000000       0x20 common/built-in.o
 .text.lcm_clk_status_clean
                0x0000000000000000       0x20 common/built-in.o
 .text.vou_dhd_rst
                0x0000000000000000       0x80 common/built-in.o
 .text.vou_dhd_clk_off
                0x0000000000000000       0x44 common/built-in.o
 .text._lcmMcuApiGetConext
                0x0000000000000000        0xc common/built-in.o
 .text._lcmMcuApiGetHandle
                0x0000000000000000        0xc common/built-in.o
 .text._lcmMcuApiCheckRdFifo
                0x0000000000000000       0x9c common/built-in.o
 .text.lcmMcuApiReadData
                0x0000000000000000      0x118 common/built-in.o
 .text.lcmMcuApiReadBurstData
                0x0000000000000000      0x130 common/built-in.o
 .text.lcmSetMcuTimingDataPolarity
                0x0000000000000000       0x74 common/built-in.o
 .text.lcmSetMcuTimingHsyncPolarity
                0x0000000000000000       0x74 common/built-in.o
 .text.lcmSetMcuTimingVsyncPolarity
                0x0000000000000000       0x74 common/built-in.o
 .text.lcmSetMcuTimingShutDownPolarity
                0x0000000000000000       0x74 common/built-in.o
 .text.lcmSetMcuTimingColorRmPolarity
                0x0000000000000000       0x74 common/built-in.o
 .text.lcmSetMcuDitherEnable
                0x0000000000000000       0x74 common/built-in.o
 .text.lcmSetMcuBitSwapEnable
                0x0000000000000000       0x74 common/built-in.o
 .text.lcmSetMcuClkLockDataEdge
                0x0000000000000000       0x74 common/built-in.o
 .text.lcmSetMcuRgbMap
                0x0000000000000000       0x74 common/built-in.o
 .text.lcmSetDisplayDelay
                0x0000000000000000       0x6c common/built-in.o
 .text.lcmGetTransFifoReady
                0x0000000000000000       0x68 common/built-in.o
 .text.lcmSetCmdFifoClr
                0x0000000000000000       0x70 common/built-in.o
 .text.lcmGetCmdWfifoDepth
                0x0000000000000000       0x68 common/built-in.o
 .text.lcmGetCmdWfifoFull
                0x0000000000000000       0x68 common/built-in.o
 .text.lcmGetCmdRfifoDepth
                0x0000000000000000       0x68 common/built-in.o
 .text.lcmGetCmdRfifoEmpty
                0x0000000000000000       0x68 common/built-in.o
 .text.rgb_mipi_context_get
                0x0000000000000000        0xc common/built-in.o
 .text.dsi_mipi_context_get
                0x0000000000000000       0x14 common/built-in.o
 .text.dsi_generic_read
                0x0000000000000000       0x3c common/built-in.o
 .text.phy_work_mode_checker
                0x0000000000000000        0x4 common/built-in.o
 .text.dsi_host_get_version
                0x0000000000000000       0x3c common/built-in.o
 .text.dsi_host_set_loosely18
                0x0000000000000000       0x3c common/built-in.o
 .text.dsi_host_set_dpi_dataen_pol
                0x0000000000000000       0x3c common/built-in.o
 .text.dsi_host_set_dpi_shutd_pol
                0x0000000000000000       0x3c common/built-in.o
 .text.dsi_host_set_dpi_colorm_pol
                0x0000000000000000       0x3c common/built-in.o
 .text.dsi_host_set_out_dbi_conf
                0x0000000000000000       0x3c common/built-in.o
 .text.dsi_host_set_vid_frame_bta_ack_en
                0x0000000000000000       0x3c common/built-in.o
 .text.dsi_host_set_vid_lp_cmd_en
                0x0000000000000000       0x3c common/built-in.o
 .text.dsi_host_set_vid_vpg_en
                0x0000000000000000       0x3c common/built-in.o
 .text.dsi_host_set_vid_vpg_mode
                0x0000000000000000       0x3c common/built-in.o
 .text.dsi_host_set_vid_vpg_orientation
                0x0000000000000000       0x3c common/built-in.o
 .text.dsi_host_set_gen_pld_b1
                0x0000000000000000       0x40 common/built-in.o
 .text.dsi_host_set_gen_pld_b2
                0x0000000000000000       0x40 common/built-in.o
 .text.dsi_host_set_gen_pld_b3
                0x0000000000000000       0x40 common/built-in.o
 .text.dsi_host_set_gen_pld_b4
                0x0000000000000000       0x40 common/built-in.o
 .text.dsi_host_get_gen_cmd_empty
                0x0000000000000000       0x40 common/built-in.o
 .text.dsi_host_get_gen_pld_w_empty
                0x0000000000000000       0x40 common/built-in.o
 .text.dsi_host_get_gen_pld_r_full
                0x0000000000000000       0x40 common/built-in.o
 .text.dsi_host_get_dbi_cmd_empy
                0x0000000000000000       0x40 common/built-in.o
 .text.dsi_host_get_dbi_cmd_full
                0x0000000000000000       0x40 common/built-in.o
 .text.dsi_host_get_dbi_pld_w_empty
                0x0000000000000000       0x40 common/built-in.o
 .text.dsi_host_get_dbi_pld_w_full
                0x0000000000000000       0x40 common/built-in.o
 .text.dsi_host_get_dbi_pld_r_empty
                0x0000000000000000       0x40 common/built-in.o
 .text.dsi_host_get_dbi_pld_r_full
                0x0000000000000000       0x40 common/built-in.o
 .text.dsi_host_get_dbi_rd_cmd_busy
                0x0000000000000000       0x40 common/built-in.o
 .text.dsi_host_set_mode_3d
                0x0000000000000000       0x3c common/built-in.o
 .text.dsi_host_set_format_3d
                0x0000000000000000       0x3c common/built-in.o
 .text.dsi_host_set_second_vsync
                0x0000000000000000       0x3c common/built-in.o
 .text.dsi_host_set_right_first
                0x0000000000000000       0x3c common/built-in.o
 .text.dsi_host_set_send_3d_cfg
                0x0000000000000000       0x3c common/built-in.o
 .text.dsi_host_set_auto_clklane_ctrl
                0x0000000000000000       0x3c common/built-in.o
 .text.dsi_host_get_phy_lock
                0x0000000000000000       0x40 common/built-in.o
 .text.dsi_host_get_phy_stopstateclklane
                0x0000000000000000       0x40 common/built-in.o
 .text.dsi_host_get_phy_ulpsactivenotclk
                0x0000000000000000       0x40 common/built-in.o
 .text.dsi_host_get_phy_stopstate0lane
                0x0000000000000000       0x40 common/built-in.o
 .text.dsi_host_get_phy_ulpsactivenot0lane
                0x0000000000000000       0x40 common/built-in.o
 .text.dsi_host_get_phy_rxulpsesc0lane
                0x0000000000000000       0x40 common/built-in.o
 .text.dsi_host_get_phy_stopstate1lane
                0x0000000000000000       0x40 common/built-in.o
 .text.dsi_host_get_phy_ulpsactivenot1lane
                0x0000000000000000       0x40 common/built-in.o
 .text.dsi_host_get_phy_stopstate2lane
                0x0000000000000000       0x40 common/built-in.o
 .text.dsi_host_get_phy_ulpsactivenot2lane
                0x0000000000000000       0x40 common/built-in.o
 .text.dsi_host_get_phy_stopstate3lane
                0x0000000000000000       0x40 common/built-in.o
 .text.dsi_host_get_phy_ulpsactivenot3lane
                0x0000000000000000       0x40 common/built-in.o
 .text.dsi_host_set_phy_testdin
                0x0000000000000000       0x40 common/built-in.o
 .text.dsi_host_set_phy_testdout
                0x0000000000000000       0x40 common/built-in.o
 .text.dsi_host_get_int0_status_ack_with_err_1
                0x0000000000000000       0x2c common/built-in.o
 .text.dsi_host_get_int0_status_ack_with_err_2
                0x0000000000000000       0x2c common/built-in.o
 .text.dsi_host_get_int0_status_ack_with_err_3
                0x0000000000000000       0x2c common/built-in.o
 .text.dsi_host_get_int0_status_ack_with_err_4
                0x0000000000000000       0x2c common/built-in.o
 .text.dsi_host_get_int0_status_ack_with_err_5
                0x0000000000000000       0x2c common/built-in.o
 .text.dsi_host_get_int0_status_ack_with_err_6
                0x0000000000000000       0x2c common/built-in.o
 .text.dsi_host_get_int0_status_ack_with_err_7
                0x0000000000000000       0x2c common/built-in.o
 .text.dsi_host_get_int0_status_ack_with_err_11
                0x0000000000000000       0x2c common/built-in.o
 .text.dsi_host_get_int0_status_ack_with_err_12
                0x0000000000000000       0x2c common/built-in.o
 .text.dsi_host_get_int0_status_ack_with_err_13
                0x0000000000000000       0x2c common/built-in.o
 .text.dsi_host_get_int0_status_ack_with_err_14
                0x0000000000000000       0x2c common/built-in.o
 .text.dsi_host_get_int0_status_ack_with_err_15
                0x0000000000000000       0x2c common/built-in.o
 .text.dsi_host_get_int0_status_dphy_errors_0
                0x0000000000000000       0x2c common/built-in.o
 .text.dsi_host_get_int0_status_dphy_errors_1
                0x0000000000000000       0x2c common/built-in.o
 .text.dsi_host_get_int0_status_dphy_errors_2
                0x0000000000000000       0x2c common/built-in.o
 .text.dsi_host_get_int0_status_dphy_errors_3
                0x0000000000000000       0x2c common/built-in.o
 .text.dsi_host_get_int0_status_dphy_errors_4
                0x0000000000000000       0x2c common/built-in.o
 .text.dsi_host_get_int1_status_to_hs_tx
                0x0000000000000000       0x2c common/built-in.o
 .text.dsi_host_get_int1_status_to_lp_rx
                0x0000000000000000       0x2c common/built-in.o
 .text.dsi_host_get_int1_status_ecc_single_err
                0x0000000000000000       0x2c common/built-in.o
 .text.dsi_host_get_int1_status_ecc_multi_err
                0x0000000000000000       0x2c common/built-in.o
 .text.dsi_host_get_int1_status_crc_err
                0x0000000000000000       0x2c common/built-in.o
 .text.dsi_host_get_int1_status_pkt_size_err
                0x0000000000000000       0x2c common/built-in.o
 .text.dsi_host_get_int1_status_eopt_err
                0x0000000000000000       0x2c common/built-in.o
 .text.dsi_host_get_int1_status_dpi_pld_wr_err
                0x0000000000000000       0x2c common/built-in.o
 .text.dsi_host_get_int1_status_gen_cmd_wr_err
                0x0000000000000000       0x2c common/built-in.o
 .text.dsi_host_get_int1_status_gen_pld_wr_err
                0x0000000000000000       0x2c common/built-in.o
 .text.dsi_host_get_int1_status_gen_pld_send_err
                0x0000000000000000       0x2c common/built-in.o
 .text.dsi_host_get_int1_status_gen_pld_rd_err
                0x0000000000000000       0x2c common/built-in.o
 .text.dsi_host_get_int1_status_gen_pld_recev_err
                0x0000000000000000       0x2c common/built-in.o
 .text.dsi_host_get_int1_status_dbi_cmd_wr_err
                0x0000000000000000       0x2c common/built-in.o
 .text.dsi_host_get_int1_status_dbi_pld_wr_err
                0x0000000000000000       0x2c common/built-in.o
 .text.dsi_host_get_int1_status_dbi_pld_rd_err
                0x0000000000000000       0x2c common/built-in.o
 .text.dsi_host_get_int1_status_dbi_pld_recv_err
                0x0000000000000000       0x2c common/built-in.o
 .text.dsi_host_get_int1_status_dbi_ilegal_comm_err
                0x0000000000000000       0x2c common/built-in.o
 .text.dsi_host_get_int1_status
                0x0000000000000000       0x3c common/built-in.o
 .text.dsi_host_set_int0_ack_with_err_0
                0x0000000000000000       0x3c common/built-in.o
 .text.dsi_host_set_int0_ack_with_err_1
                0x0000000000000000       0x3c common/built-in.o
 .text.dsi_host_set_int0_ack_with_err_2
                0x0000000000000000       0x3c common/built-in.o
 .text.dsi_host_set_int0_ack_with_err_3
                0x0000000000000000       0x3c common/built-in.o
 .text.dsi_host_set_int0_ack_with_err_4
                0x0000000000000000       0x3c common/built-in.o
 .text.dsi_host_set_int0_ack_with_err_5
                0x0000000000000000       0x3c common/built-in.o
 .text.dsi_host_set_int0_ack_with_err_6
                0x0000000000000000       0x3c common/built-in.o
 .text.dsi_host_set_int0_ack_with_err_7
                0x0000000000000000       0x3c common/built-in.o
 .text.dsi_host_set_int0_ack_with_err_8
                0x0000000000000000       0x3c common/built-in.o
 .text.dsi_host_set_int0_ack_with_err_9
                0x0000000000000000       0x3c common/built-in.o
 .text.dsi_host_set_int0_ack_with_err_10
                0x0000000000000000       0x3c common/built-in.o
 .text.dsi_host_set_int0_ack_with_err_11
                0x0000000000000000       0x3c common/built-in.o
 .text.dsi_host_set_int0_ack_with_err_12
                0x0000000000000000       0x3c common/built-in.o
 .text.dsi_host_set_int0_ack_with_err_13
                0x0000000000000000       0x3c common/built-in.o
 .text.dsi_host_set_int0_ack_with_err_14
                0x0000000000000000       0x3c common/built-in.o
 .text.dsi_host_set_int0_ack_with_err_15
                0x0000000000000000       0x3c common/built-in.o
 .text.dsi_host_set_int0_dphy_errors_0
                0x0000000000000000       0x3c common/built-in.o
 .text.dsi_host_set_int0_dphy_errors_1
                0x0000000000000000       0x3c common/built-in.o
 .text.dsi_host_set_int0_dphy_errors_2
                0x0000000000000000       0x3c common/built-in.o
 .text.dsi_host_set_int0_dphy_errors_3
                0x0000000000000000       0x3c common/built-in.o
 .text.dsi_host_set_int0_dphy_errors_4
                0x0000000000000000       0x3c common/built-in.o
 .text.dsi_host_set_int1_to_hs_tx
                0x0000000000000000       0x3c common/built-in.o
 .text.dsi_host_set_int1_to_lp_rx
                0x0000000000000000       0x3c common/built-in.o
 .text.dsi_host_set_int1_ecc_single_err
                0x0000000000000000       0x3c common/built-in.o
 .text.dsi_host_set_int1_ecc_multi_err
                0x0000000000000000       0x3c common/built-in.o
 .text.dsi_host_set_int1_crc_err
                0x0000000000000000       0x3c common/built-in.o
 .text.dsi_host_set_int1_pkt_size_err
                0x0000000000000000       0x3c common/built-in.o
 .text.dsi_host_set_int1_eopt_err
                0x0000000000000000       0x3c common/built-in.o
 .text.dsi_host_set_int1_dpi_pld_wr_err
                0x0000000000000000       0x3c common/built-in.o
 .text.dsi_host_set_int1_gen_cmd_wr_err
                0x0000000000000000       0x3c common/built-in.o
 .text.dsi_host_set_int1_gen_pld_wr_err
                0x0000000000000000       0x3c common/built-in.o
 .text.dsi_host_set_int1_gen_pld_send_err
                0x0000000000000000       0x3c common/built-in.o
 .text.dsi_host_set_int1_gen_pld_rd_err
                0x0000000000000000       0x3c common/built-in.o
 .text.dsi_host_set_int1_gen_pld_recev_err
                0x0000000000000000       0x3c common/built-in.o
 .text.dsi_host_set_int1_dbi_cmd_wr_err
                0x0000000000000000       0x3c common/built-in.o
 .text.dsi_host_set_int1_dbi_pld_wr_err
                0x0000000000000000       0x3c common/built-in.o
 .text.dsi_host_set_int1_dbi_pld_rd_err
                0x0000000000000000       0x3c common/built-in.o
 .text.dsi_host_set_int1_dbi_pld_recv_err
                0x0000000000000000       0x3c common/built-in.o
 .text.dsi_host_set_int1_dbi_ilegal_comm_err
                0x0000000000000000       0x3c common/built-in.o
 .text.dsi_host_set_txskewcalhs
                0x0000000000000000       0x3c common/built-in.o
 .text.dsi_host_set_compression_mode
                0x0000000000000000       0x3c common/built-in.o
 .text.dsi_host_set_compress_algo
                0x0000000000000000       0x3c common/built-in.o
 .text.dsi_host_set_pps_sel
                0x0000000000000000       0x3c common/built-in.o
 .text.dsi_host_set_max_rd_time
                0x0000000000000000       0x3c common/built-in.o
 .text.dsi_host_get_dpi_vcid_act
                0x0000000000000000       0x40 common/built-in.o
 .text.dsi_host_get_dpi_color_coding
                0x0000000000000000       0x40 common/built-in.o
 .text.dsi_host_get_loosely18_en
                0x0000000000000000       0x40 common/built-in.o
 .text.dsi_host_get_invact_lpcmd_tim_act
                0x0000000000000000       0x40 common/built-in.o
 .text.dsi_host_get_outvact_lpcmd_tim_act
                0x0000000000000000       0x40 common/built-in.o
 .text.dsi_host_get_vid_mode_type_act
                0x0000000000000000       0x40 common/built-in.o
 .text.dsi_host_get_lp_vsa_en
                0x0000000000000000       0x40 common/built-in.o
 .text.dsi_host_get_lp_vbp_en
                0x0000000000000000       0x40 common/built-in.o
 .text.dsi_host_get_lp_vfp_en
                0x0000000000000000       0x40 common/built-in.o
 .text.dsi_host_get_lp_vact_en
                0x0000000000000000       0x40 common/built-in.o
 .text.dsi_host_get_lp_hbp_en
                0x0000000000000000       0x40 common/built-in.o
 .text.dsi_host_get_lp_hfp_en
                0x0000000000000000       0x40 common/built-in.o
 .text.dsi_host_get_frame_bta_ack_en
                0x0000000000000000       0x40 common/built-in.o
 .text.dsi_host_get_lp_cmd_en
                0x0000000000000000       0x40 common/built-in.o
 .text.dsi_host_get_vid_pkt_size_act
                0x0000000000000000       0x40 common/built-in.o
 .text.dsi_host_get_vid_num_chunks_act
                0x0000000000000000       0x40 common/built-in.o
 .text.dsi_host_get_vid_null_size_act
                0x0000000000000000       0x40 common/built-in.o
 .text.dsi_host_get_vid_has_time_act
                0x0000000000000000       0x40 common/built-in.o
 .text.dsi_host_get_vid_hbp_time_act
                0x0000000000000000       0x40 common/built-in.o
 .text.dsi_host_get_vid_hline_time_act
                0x0000000000000000       0x40 common/built-in.o
 .text.dsi_host_get_vsa_lines_act
                0x0000000000000000       0x40 common/built-in.o
 .text.dsi_host_get_vbp_lines_act
                0x0000000000000000       0x40 common/built-in.o
 .text.dsi_host_get_vfp_lines_act
                0x0000000000000000       0x40 common/built-in.o
 .text.dsi_host_get_v_active_lines_act
                0x0000000000000000       0x40 common/built-in.o
 .text.dsi_host_get_mode_3d_act
                0x0000000000000000       0x40 common/built-in.o
 .text.dsi_host_get_format_3d_act
                0x0000000000000000       0x40 common/built-in.o
 .text.dsi_host_get_second_vsync_act
                0x0000000000000000       0x40 common/built-in.o
 .text.dsi_host_get_right_first_act
                0x0000000000000000       0x40 common/built-in.o
 .text.dsi_host_get_send_3d_cfg_act
                0x0000000000000000       0x40 common/built-in.o
 .text.dsi_host_mipi_context_get
                0x0000000000000000        0xc common/built-in.o
 .text.dsi_host_core_context_get
                0x0000000000000000       0x18 common/built-in.o
 .text.dsi_gen_rd_cmd
                0x0000000000000000      0x1a0 common/built-in.o
 .text.dsi_phy_get_afifo_info
                0x0000000000000000       0x40 common/built-in.o
 .text.dsi_phy_get_cl_init_deskew_done
                0x0000000000000000       0x40 common/built-in.o
 .text.dsi_phy_get_vbg_rdy
                0x0000000000000000       0x40 common/built-in.o
 .text.dsi_phy_get_bist_out
                0x0000000000000000       0x40 common/built-in.o
 .text.dsi_phy_get_rcal_comp_out
                0x0000000000000000       0x40 common/built-in.o
 .text.dsi_phy_get_rcal_done
                0x0000000000000000       0x40 common/built-in.o
 .text.dsi_phy_get_dlane_init_deskew_done
                0x0000000000000000       0x64 common/built-in.o
 .text.dsi_phy_get_dlane_period_deskew_done
                0x0000000000000000       0x64 common/built-in.o
 .text.dsi_phy_get_lane_bist_done
                0x0000000000000000       0x7c common/built-in.o
 .text.dsi_phy_get_lane_bist_ok
                0x0000000000000000       0x7c common/built-in.o
 .text.dsi_phy_get_lane_prbs_err_num
                0x0000000000000000       0xbc common/built-in.o
 .text.dsi_phy_get_core_lprx_vinit
                0x0000000000000000       0x6c common/built-in.o
 .text.dsi_phy_get_core_lpcd_vinit
                0x0000000000000000       0x6c common/built-in.o
 .text.dsi_phy_mipi_context_get
                0x0000000000000000        0xc common/built-in.o
 .text._get_dsi_pll_context
                0x0000000000000000        0xc common/built-in.o
 .text._get_register_id_ptr
                0x0000000000000000        0xc common/built-in.o
 .text.lcm_sfc_deInit
                0x0000000000000000       0x18 common/built-in.o
 .text.lcm_func_deinit
                0x0000000000000000       0xc0 common/built-in.o
 .text.lcm_func_suspend
                0x0000000000000000       0x54 common/built-in.o
 .text.lcm_func_resume
                0x0000000000000000       0x54 common/built-in.o
 .text.lcm_ioctrl
                0x0000000000000000       0x90 common/built-in.o
 .text.mol_lcm_deinit
                0x0000000000000000      0x1c8 common/built-in.o
 .text.mol_lcm_suspend
                0x0000000000000000      0x178 common/built-in.o
 .text.mol_lcm_resume
                0x0000000000000000      0x174 common/built-in.o
 .text.get_lcm_work_mode_context
                0x0000000000000000        0xc common/built-in.o
 .text.get_lcm_work_mode_str
                0x0000000000000000       0x20 common/built-in.o
 .text.sleepMs  0x0000000000000000        0x4 common/built-in.o
 .text.os_mutex_init
                0x0000000000000000        0x8 common/built-in.o
 .text.os_mutex_deinit
                0x0000000000000000        0x4 common/built-in.o
 .text.os_mutex_lock
                0x0000000000000000        0x4 common/built-in.o
 .text.os_mutex_unlock
                0x0000000000000000        0x4 common/built-in.o
 .text.os_strcpy
                0x0000000000000000        0x4 common/built-in.o
 .text.os_memcpy
                0x0000000000000000        0x4 common/built-in.o
 .text.os_memset
                0x0000000000000000        0x4 common/built-in.o
 .rodata.fdt_fixup_cpu_freq.str1.1
                0x0000000000000000       0x16 common/built-in.o
 .rodata.fdt_del_subnodes.str1.1
                0x0000000000000000       0x17 common/built-in.o
 .rodata.fdt_del_partitions.str1.1
                0x0000000000000000       0x21 common/built-in.o
 .rodata.fdt_node_set_part_info.str1.1
                0x0000000000000000       0x6d common/built-in.o
 .rodata.fdt_set_phandle.str1.1
                0x0000000000000000       0x16 common/built-in.o
 .rodata.fdt_create_phandle.str1.1
                0x0000000000000000       0x1a common/built-in.o
 .rodata.fdt_set_node_status.str1.1
                0x0000000000000000       0x3a common/built-in.o
 .rodata.fdt_verify_alias_address.str1.1
                0x0000000000000000       0xcd common/built-in.o
 .rodata.fdt_read_range.str1.1
                0x0000000000000000        0xf common/built-in.o
 .rodata.fdt_setup_simplefb_node.str1.1
                0x0000000000000000       0x2c common/built-in.o
 .rodata.fdt_fixup_display.str1.1
                0x0000000000000000       0x1c common/built-in.o
 .rodata.mdio_register_seq.str1.1
                0x0000000000000000        0x6 common/built-in.o
 .rodata.usb_find_usb2_hub_address_port.str1.1
                0x0000000000000000       0x36 common/built-in.o
 .rodata.confirm_yesno.str1.1
                0x0000000000000000       0x10 common/built-in.o
 .rodata.console_announce_r.str1.1
                0x0000000000000000        0x7 common/built-in.o
 .rodata.stdio_print_current_devices.str1.1
                0x0000000000000000       0x74 common/built-in.o
 .rodata.realloc.str1.1
                0x0000000000000000       0x25 common/built-in.o
 .rodata.genimg_get_short_name.str1.1
                0x0000000000000000        0x8 common/built-in.o
 .rodata.genimg_get_os_id.str1.1
                0x0000000000000000        0x3 common/built-in.o
 .rodata.genimg_get_arch_id.str1.1
                0x0000000000000000        0x4 common/built-in.o
 .rodata.genimg_get_type_id.str1.1
                0x0000000000000000        0x6 common/built-in.o
 .rodata.genimg_get_comp_id.str1.1
                0x0000000000000000        0xc common/built-in.o
 .rodata.table_info
                0x0000000000000000       0x30 common/built-in.o
 .rodata.unknown_str.0
                0x0000000000000000        0x9 common/built-in.o
 .rodata.xyzModem_stream_open.str1.1
                0x0000000000000000        0x2 common/built-in.o
 .rodata.xyzModem_stream_close.str1.1
                0x0000000000000000       0x4b common/built-in.o
 .rodata.xyzModem_error.str1.1
                0x0000000000000000        0xe common/built-in.o
 .rodata.CSWTCH.32
                0x0000000000000000       0x20 common/built-in.o
 .rodata.mc_lcm_module_init.str1.1
                0x0000000000000000       0x19 common/built-in.o
 .rodata.regDefaultGet.str1.1
                0x0000000000000000       0x32 common/built-in.o
 .rodata.showRegValuePtr.str1.1
                0x0000000000000000       0x43 common/built-in.o
 .rodata.lcm_gpio_pin_cfg.str1.1
                0x0000000000000000       0x38 common/built-in.o
 .rodata._lcmMcuApiCheckRdFifo.str1.1
                0x0000000000000000       0x1f common/built-in.o
 .rodata.lcmMcuApiReadBurstData.str1.1
                0x0000000000000000       0x59 common/built-in.o
 .rodata.__FUNCTION__.17
                0x0000000000000000       0x16 common/built-in.o
 .rodata.lcmSetDisplayDelay.str1.1
                0x0000000000000000       0x13 common/built-in.o
 .rodata.dsi_gen_rd_cmd.str1.1
                0x0000000000000000       0x5f common/built-in.o
 .rodata.lcm_func_deinit.str1.1
                0x0000000000000000       0x5a common/built-in.o
 .rodata.mol_lcm_deinit.str1.1
                0x0000000000000000       0x7c common/built-in.o
 .rodata.mol_lcm_suspend.str1.1
                0x0000000000000000       0x61 common/built-in.o
 .rodata.mol_lcm_resume.str1.1
                0x0000000000000000       0x60 common/built-in.o
 .data          0x0000000000000000        0x0 common/built-in.o
 .data.s_gpio_pin_table
                0x0000000000000000      0x580 common/built-in.o
 .data.s_lcm_ctrl
                0x0000000000000000       0x24 common/built-in.o
 .bss           0x0000000000000000        0x0 common/built-in.o
 .bss.msg.1     0x0000000000000000       0x1e common/built-in.o
 .bss.xyz       0x0000000000000000      0x434 common/built-in.o
 .text          0x0000000000000000        0x0 disk/built-in.o
 .text.blk_get_dev
                0x0000000000000000       0x2c disk/built-in.o
 .text.part_get_info_by_name
                0x0000000000000000       0x94 disk/built-in.o
 .text.is_valid_dos_buf
                0x0000000000000000       0x14 disk/built-in.o
 .text.write_mbr_partition
                0x0000000000000000       0x64 disk/built-in.o
 .rodata.write_mbr_partition.str1.1
                0x0000000000000000       0x2d disk/built-in.o
 .rodata.__func__.0
                0x0000000000000000       0x14 disk/built-in.o
 .data          0x0000000000000000        0x0 disk/built-in.o
 .bss           0x0000000000000000        0x0 disk/built-in.o
 .text          0x0000000000000000        0x0 drivers/built-in.o
 .text._device_find_global_by_of_offset
                0x0000000000000000       0x50 drivers/built-in.o
 .text.device_get_child
                0x0000000000000000       0x50 drivers/built-in.o
 .text.device_find_child_by_seq
                0x0000000000000000       0x68 drivers/built-in.o
 .text.device_get_child_by_seq
                0x0000000000000000       0x54 drivers/built-in.o
 .text.device_find_child_by_of_offset
                0x0000000000000000       0x4c drivers/built-in.o
 .text.device_get_child_by_of_offset
                0x0000000000000000       0x3c drivers/built-in.o
 .text.device_get_global_by_of_offset
                0x0000000000000000       0x38 drivers/built-in.o
 .text.dev_get_driver_ops
                0x0000000000000000       0x10 drivers/built-in.o
 .text.dev_get_uclass_name
                0x0000000000000000       0x14 drivers/built-in.o
 .text.device_has_children
                0x0000000000000000       0x14 drivers/built-in.o
 .text.device_set_name
                0x0000000000000000       0x30 drivers/built-in.o
 .text.device_is_compatible
                0x0000000000000000       0x24 drivers/built-in.o
 .text.of_machine_is_compatible
                0x0000000000000000       0x20 drivers/built-in.o
 .text.devfdt_get_addr_size_index
                0x0000000000000000       0x40 drivers/built-in.o
 .text.devfdt_get_addr_name
                0x0000000000000000       0x34 drivers/built-in.o
 .text.devfdt_get_addr_ptr
                0x0000000000000000        0x8 drivers/built-in.o
 .text.devfdt_map_physmem
                0x0000000000000000       0x14 drivers/built-in.o
 .text.dm_fixup_for_gd_move
                0x0000000000000000       0x24 drivers/built-in.o
 .text.dm_set_translation_offset
                0x0000000000000000       0x18 drivers/built-in.o
 .text.dm_uninit
                0x0000000000000000       0x20 drivers/built-in.o
 .text.uclass_destroy
                0x0000000000000000       0x9c drivers/built-in.o
 .text.uclass_get_name
                0x0000000000000000       0x28 drivers/built-in.o
 .text.uclass_find_device_by_name
                0x0000000000000000       0x88 drivers/built-in.o
 .text.uclass_find_device_by_ofnode
                0x0000000000000000       0x6c drivers/built-in.o
 .text.uclass_get_device_by_name
                0x0000000000000000       0x30 drivers/built-in.o
 .text.uclass_get_device_by_ofnode
                0x0000000000000000       0x30 drivers/built-in.o
 .text.uclass_get_device_by_phandle
                0x0000000000000000       0xa4 drivers/built-in.o
 .text.uclass_first_device_err
                0x0000000000000000       0x24 drivers/built-in.o
 .text.uclass_first_device_check
                0x0000000000000000       0x34 drivers/built-in.o
 .text.uclass_next_device_check
                0x0000000000000000       0x2c drivers/built-in.o
 .text.list_count_items
                0x0000000000000000       0x24 drivers/built-in.o
 .text.simple_bus_translate
                0x0000000000000000       0x38 drivers/built-in.o
 .text.of_read_fmap_entry
                0x0000000000000000       0xc4 drivers/built-in.o
 .text.ofnode_read_s32_default
                0x0000000000000000       0x1c drivers/built-in.o
 .text.ofnode_read_string
                0x0000000000000000       0x50 drivers/built-in.o
 .text.ofnode_find_subnode
                0x0000000000000000       0x1c drivers/built-in.o
 .text.ofnode_first_subnode
                0x0000000000000000       0x14 drivers/built-in.o
 .text.ofnode_next_subnode
                0x0000000000000000       0x14 drivers/built-in.o
 .text.ofnode_read_size
                0x0000000000000000       0x30 drivers/built-in.o
 .text.decode_timing_property
                0x0000000000000000       0x74 drivers/built-in.o
 .text.ofnode_get_addr_index
                0x0000000000000000       0x14 drivers/built-in.o
 .text.ofnode_get_addr
                0x0000000000000000        0x8 drivers/built-in.o
 .text.ofnode_stringlist_search
                0x0000000000000000       0x38 drivers/built-in.o
 .text.ofnode_read_string_index
                0x0000000000000000       0x44 drivers/built-in.o
 .text.ofnode_read_string_count
                0x0000000000000000       0x14 drivers/built-in.o
 .text.ofnode_parse_phandle_with_args
                0x0000000000000000       0x68 drivers/built-in.o
 .text.ofnode_count_phandle_with_args
                0x0000000000000000       0x38 drivers/built-in.o
 .text.ofnode_path
                0x0000000000000000       0x14 drivers/built-in.o
 .text.ofnode_get_chosen_prop
                0x0000000000000000       0x20 drivers/built-in.o
 .text.ofnode_get_chosen_node
                0x0000000000000000       0x20 drivers/built-in.o
 .text.ofnode_read_bool
                0x0000000000000000       0x18 drivers/built-in.o
 .text.ofnode_decode_display_timing
                0x0000000000000000      0x2b4 drivers/built-in.o
 .text.ofnode_is_available
                0x0000000000000000       0x1c drivers/built-in.o
 .text.ofnode_get_addr_size
                0x0000000000000000       0x18 drivers/built-in.o
 .text.ofnode_read_u8_array_ptr
                0x0000000000000000       0x18 drivers/built-in.o
 .text.ofnode_read_pci_addr
                0x0000000000000000       0xa8 drivers/built-in.o
 .text.ofnode_read_addr_cells
                0x0000000000000000        0xc drivers/built-in.o
 .text.ofnode_read_size_cells
                0x0000000000000000        0xc drivers/built-in.o
 .text.ofnode_read_simple_addr_cells
                0x0000000000000000        0x4 drivers/built-in.o
 .text.ofnode_read_simple_size_cells
                0x0000000000000000        0x4 drivers/built-in.o
 .text.ofnode_pre_reloc
                0x0000000000000000       0x54 drivers/built-in.o
 .text.ofnode_read_resource
                0x0000000000000000       0x64 drivers/built-in.o
 .text.ofnode_read_resource_byname
                0x0000000000000000       0x34 drivers/built-in.o
 .text.blk_get_from_parent
                0x0000000000000000       0x4c drivers/built-in.o
 .text.misc_ioctl
                0x0000000000000000       0x20 drivers/built-in.o
 .text.misc_call
                0x0000000000000000       0x30 drivers/built-in.o
 .text.mc_efuse_read_op
                0x0000000000000000       0xfc drivers/built-in.o
 .text.secure_enalbe_judge
                0x0000000000000000       0xd0 drivers/built-in.o
 .text.mc_aes_use_efuse_key
                0x0000000000000000      0x16c drivers/built-in.o
 .text.mc_aeskey_release
                0x0000000000000000       0x34 drivers/built-in.o
 .text.aes_dma_int_clear
                0x0000000000000000       0x18 drivers/built-in.o
 .text.aes_dma_chn_src
                0x0000000000000000       0x10 drivers/built-in.o
 .text.aes_dma_chn_dst
                0x0000000000000000       0x10 drivers/built-in.o
 .text.aes_dma_wait_done
                0x0000000000000000       0x48 drivers/built-in.o
 .text.mc_aes_enable
                0x0000000000000000       0x3c drivers/built-in.o
 .text.cpu_mmc_init
                0x0000000000000000        0x8 drivers/built-in.o
 .text.board_mmc_init
                0x0000000000000000        0x8 drivers/built-in.o
 .text.mmc_set_preinit
                0x0000000000000000        0x8 drivers/built-in.o
 .text.mmc_get_next_devnum
                0x0000000000000000        0x8 drivers/built-in.o
 .text.mmc_unbind
                0x0000000000000000       0x34 drivers/built-in.o
 .text.rtc_read8
                0x0000000000000000       0x20 drivers/built-in.o
 .text.rtc_write8
                0x0000000000000000       0x20 drivers/built-in.o
 .text.rtc_read16
                0x0000000000000000       0x40 drivers/built-in.o
 .text.rtc_write16
                0x0000000000000000       0x34 drivers/built-in.o
 .text.rtc_read32
                0x0000000000000000       0x4c drivers/built-in.o
 .text.rtc_write32
                0x0000000000000000       0x44 drivers/built-in.o
 .text.pwm_set_invert
                0x0000000000000000       0x20 drivers/built-in.o
 .text._input_send_keycodes
                0x0000000000000000      0x42c drivers/built-in.o
 .text.input_tstc
                0x0000000000000000       0x48 drivers/built-in.o
 .text.input_getc
                0x0000000000000000       0x58 drivers/built-in.o
 .text.input_send_keycodes
                0x0000000000000000        0x8 drivers/built-in.o
 .text.input_add_keycode
                0x0000000000000000       0x8c drivers/built-in.o
 .text.input_add_table
                0x0000000000000000       0x40 drivers/built-in.o
 .text.input_set_delays
                0x0000000000000000        0xc drivers/built-in.o
 .text.input_allow_repeats
                0x0000000000000000        0x8 drivers/built-in.o
 .text.input_leds_changed
                0x0000000000000000       0x14 drivers/built-in.o
 .text.input_add_tables
                0x0000000000000000       0x54 drivers/built-in.o
 .text.input_init
                0x0000000000000000       0x24 drivers/built-in.o
 .text.input_stdio_register
                0x0000000000000000       0x54 drivers/built-in.o
 .text.create_keymap
                0x0000000000000000       0x88 drivers/built-in.o
 .text.key_matrix_decode
                0x0000000000000000       0xe8 drivers/built-in.o
 .text.key_matrix_decode_fdt
                0x0000000000000000       0xac drivers/built-in.o
 .text.key_matrix_init
                0x0000000000000000       0x38 drivers/built-in.o
 .rodata.devfdt_get_addr_name.str1.1
                0x0000000000000000        0xa drivers/built-in.o
 .rodata.of_read_fmap_entry.str1.1
                0x0000000000000000       0x1b drivers/built-in.o
 .rodata.ofnode_get_chosen_prop.str1.1
                0x0000000000000000        0x8 drivers/built-in.o
 .rodata.ofnode_decode_display_timing.str1.1
                0x0000000000000000       0xca drivers/built-in.o
 .rodata.ofnode_pre_reloc.str1.1
                0x0000000000000000       0x30 drivers/built-in.o
 .rodata.ofnode_read_resource.str1.1
                0x0000000000000000        0x4 drivers/built-in.o
 .rodata.ofnode_read_resource_byname.str1.1
                0x0000000000000000        0xa drivers/built-in.o
 .rodata.secure_enalbe_judge.str1.1
                0x0000000000000000       0x84 drivers/built-in.o
 .rodata.mc_aes_use_efuse_key.str1.1
                0x0000000000000000       0x65 drivers/built-in.o
 .rodata.input_stdio_register.str1.1
                0x0000000000000000        0x6 drivers/built-in.o
 .rodata.kbd_plain_xlate
                0x0000000000000000       0x64 drivers/built-in.o
 .rodata.kbd_plain_xlate_german
                0x0000000000000000       0x84 drivers/built-in.o
 .rodata.kbd_to_ansi364
                0x0000000000000000       0x20 drivers/built-in.o
 .rodata.key_matrix_decode_fdt.str1.1
                0x0000000000000000       0x1d drivers/built-in.o
 .data          0x0000000000000000        0x0 drivers/built-in.o
 .data.aes_cbc_cipher1_k128
                0x0000000000000000       0x40 drivers/built-in.o
 .data.iv1      0x0000000000000000       0x10 drivers/built-in.o
 .data.key1_128
                0x0000000000000000       0x10 drivers/built-in.o
 .data.plain_text1
                0x0000000000000000       0x40 drivers/built-in.o
 .data.kbd_ctrl_xlate
                0x0000000000000000       0x64 drivers/built-in.o
 .data.kbd_entry
                0x0000000000000000       0x8c drivers/built-in.o
 .data.kbd_right_alt_xlate_german
                0x0000000000000000       0x58 drivers/built-in.o
 .data.kbd_shift_xlate
                0x0000000000000000       0x64 drivers/built-in.o
 .data.kbd_shift_xlate_german
                0x0000000000000000       0x84 drivers/built-in.o
 .bss           0x0000000000000000        0x0 drivers/built-in.o
 .bss.cipher_text
                0x0000000000000000       0x30 drivers/built-in.o
 .bss.cipher_text1
                0x0000000000000000       0x40 drivers/built-in.o
 .bss.plain_text
                0x0000000000000000       0x30 drivers/built-in.o
 .text          0x0000000000000000        0x0 drivers/dma/built-in.o
 .text.molchip_dma_clk_enable
                0x0000000000000000        0x4 drivers/dma/built-in.o
 .text.dma_request
                0x0000000000000000       0x18 drivers/dma/built-in.o
 .text.dma_set_trans_len
                0x0000000000000000       0x10 drivers/dma/built-in.o
 .text.uart_int_enable
                0x0000000000000000       0x18 drivers/dma/built-in.o
 .text.dma_get_trans_len
                0x0000000000000000       0x14 drivers/dma/built-in.o
 .text.dma_set_src
                0x0000000000000000       0x10 drivers/dma/built-in.o
 .text.dma_set_dest
                0x0000000000000000       0x10 drivers/dma/built-in.o
 .text.dma_frag_len_reg_set
                0x0000000000000000       0x10 drivers/dma/built-in.o
 .text.dma_blk_len_reg_set
                0x0000000000000000       0x10 drivers/dma/built-in.o
 .text.uart_request_cid
                0x0000000000000000       0x40 drivers/dma/built-in.o
 .text.set_llist_ptr
                0x0000000000000000       0x10 drivers/dma/built-in.o
 .text.nor_dma_node_fill
                0x0000000000000000       0xb0 drivers/dma/built-in.o
 .text.get_dma_dst_addr
                0x0000000000000000       0x10 drivers/dma/built-in.o
 .data          0x0000000000000000        0x0 drivers/dma/built-in.o
 .bss           0x0000000000000000        0x0 drivers/dma/built-in.o
 .text          0x0000000000000000        0x0 drivers/gpio/built-in.o
 .data          0x0000000000000000        0x0 drivers/gpio/built-in.o
 .bss           0x0000000000000000        0x0 drivers/gpio/built-in.o
 .text          0x0000000000000000        0x0 drivers/mtd/built-in.o
 .text.idr_remove
                0x0000000000000000       0x14 drivers/mtd/built-in.o
 .text.idr_find
                0x0000000000000000       0x14 drivers/mtd/built-in.o
 .text.idr_get_next
                0x0000000000000000       0x3c drivers/mtd/built-in.o
 .text.idr_alloc
                0x0000000000000000       0x3c drivers/mtd/built-in.o
 .text.__mtd_next_device
                0x0000000000000000       0x20 drivers/mtd/built-in.o
 .text.del_mtd_device
                0x0000000000000000       0x5c drivers/mtd/built-in.o
 .text.__get_mtd_device
                0x0000000000000000       0x38 drivers/mtd/built-in.o
 .text.get_mtd_device
                0x0000000000000000       0x84 drivers/mtd/built-in.o
 .text.get_mtd_device_nm
                0x0000000000000000       0x5c drivers/mtd/built-in.o
 .text.__put_mtd_device
                0x0000000000000000       0x4c drivers/mtd/built-in.o
 .text.put_mtd_device
                0x0000000000000000        0x4 drivers/mtd/built-in.o
 .text.mtd_erase
                0x0000000000000000       0x9c drivers/mtd/built-in.o
 .text.mtd_get_unmapped_area
                0x0000000000000000       0x5c drivers/mtd/built-in.o
 .text.mtd_read
                0x0000000000000000       0x9c drivers/mtd/built-in.o
 .text.mtd_write
                0x0000000000000000       0x8c drivers/mtd/built-in.o
 .text.mtd_panic_write
                0x0000000000000000       0x98 drivers/mtd/built-in.o
 .text.mtd_read_oob
                0x0000000000000000       0x60 drivers/mtd/built-in.o
 .text.mtd_get_fact_prot_info
                0x0000000000000000       0x34 drivers/mtd/built-in.o
 .text.mtd_read_fact_prot_reg
                0x0000000000000000       0x48 drivers/mtd/built-in.o
 .text.mtd_get_user_prot_info
                0x0000000000000000       0x34 drivers/mtd/built-in.o
 .text.mtd_read_user_prot_reg
                0x0000000000000000       0x48 drivers/mtd/built-in.o
 .text.mtd_write_user_prot_reg
                0x0000000000000000       0x64 drivers/mtd/built-in.o
 .text.mtd_lock_user_prot_reg
                0x0000000000000000       0x38 drivers/mtd/built-in.o
 .text.mtd_lock
                0x0000000000000000       0x78 drivers/mtd/built-in.o
 .text.mtd_unlock
                0x0000000000000000       0x78 drivers/mtd/built-in.o
 .text.add_mtd_device
                0x0000000000000000      0x1c4 drivers/mtd/built-in.o
 .text.mtd_is_locked
                0x0000000000000000       0x78 drivers/mtd/built-in.o
 .text.mtd_block_isreserved
                0x0000000000000000       0x50 drivers/mtd/built-in.o
 .text.mtd_block_isbad
                0x0000000000000000       0x50 drivers/mtd/built-in.o
 .text.mtd_block_markbad
                0x0000000000000000       0x64 drivers/mtd/built-in.o
 .rodata.del_mtd_device.str1.1
                0x0000000000000000       0x30 drivers/mtd/built-in.o
 .rodata.__put_mtd_device.str1.1
                0x0000000000000000       0x2c drivers/mtd/built-in.o
 .rodata.add_mtd_device.str1.1
                0x0000000000000000       0x28 drivers/mtd/built-in.o
 .data          0x0000000000000000        0x0 drivers/mtd/built-in.o
 .bss           0x0000000000000000        0x0 drivers/mtd/built-in.o
 .bss.mtd_idr   0x0000000000000000      0x200 drivers/mtd/built-in.o
 .bss.mtd_table
                0x0000000000000000       0x80 drivers/mtd/built-in.o
 .text          0x0000000000000000        0x0 drivers/mtd/spi/built-in.o
 .text.spi_nor_dma_read
                0x0000000000000000      0x1bc drivers/mtd/spi/built-in.o
 .text.spi_nor_set_read_settings
                0x0000000000000000       0x18 drivers/mtd/spi/built-in.o
 .text.spi_nor_set_pp_settings
                0x0000000000000000        0xc drivers/mtd/spi/built-in.o
 .data          0x0000000000000000        0x0 drivers/mtd/spi/built-in.o
 .bss           0x0000000000000000        0x0 drivers/mtd/spi/built-in.o
 .text          0x0000000000000000        0x0 drivers/net/built-in.o
 .data          0x0000000000000000        0x0 drivers/net/built-in.o
 .bss           0x0000000000000000        0x0 drivers/net/built-in.o
 .bss.gmac_dpll_config_table
                0x0000000000000000        0x0 drivers/net/built-in.o
 .text          0x0000000000000000        0x0 drivers/net/phy/built-in.o
 .text.miiphy_reset
                0x0000000000000000       0x3c drivers/net/phy/built-in.o
 .text.mochip_ephy_test
                0x0000000000000000       0x2c drivers/net/phy/built-in.o
 .rodata.mochip_ephy_test.str1.1
                0x0000000000000000       0x14 drivers/net/phy/built-in.o
 .data          0x0000000000000000        0x0 drivers/net/phy/built-in.o
 .bss           0x0000000000000000        0x0 drivers/net/phy/built-in.o
 .text          0x0000000000000000        0x0 drivers/serial/built-in.o
 .data          0x0000000000000000        0x0 drivers/serial/built-in.o
 .bss           0x0000000000000000        0x0 drivers/serial/built-in.o
 .text          0x0000000000000000        0x0 drivers/spi/built-in.o
 .text.spi_set_wordlen
                0x0000000000000000       0x30 drivers/spi/built-in.o
 .text.spi_do_alloc_slave
                0x0000000000000000       0x4c drivers/spi/built-in.o
 .text.sfc_driver_strength
                0x0000000000000000       0x14 drivers/spi/built-in.o
 .text.spi_set_imr
                0x0000000000000000        0xc drivers/spi/built-in.o
 .text.spi_disalble_slave
                0x0000000000000000        0xc drivers/spi/built-in.o
 .text.spi_set_frame_format
                0x0000000000000000       0x20 drivers/spi/built-in.o
 .text.spi_set_data_size
                0x0000000000000000       0x1c drivers/spi/built-in.o
 .text.spi_set_transfer_mode
                0x0000000000000000       0x20 drivers/spi/built-in.o
 .text.spi_set_read_data_num
                0x0000000000000000       0x14 drivers/spi/built-in.o
 .text.spi_disable_irq
                0x0000000000000000       0x14 drivers/spi/built-in.o
 .text.spi_enable_irq
                0x0000000000000000       0x14 drivers/spi/built-in.o
 .text.spi_get_status
                0x0000000000000000        0xc drivers/spi/built-in.o
 .text.spi_enable_port
                0x0000000000000000       0x24 drivers/spi/built-in.o
 .text.spi_disable_port
                0x0000000000000000       0x14 drivers/spi/built-in.o
 .text.spi_timing
                0x0000000000000000        0xc drivers/spi/built-in.o
 .text.spi_set_wire_mode
                0x0000000000000000       0x38 drivers/spi/built-in.o
 .text.spi_set_field_format
                0x0000000000000000       0x20 drivers/spi/built-in.o
 .text.spi_set_frame_form
                0x0000000000000000       0x20 drivers/spi/built-in.o
 .text.spi_set_addr_mode
                0x0000000000000000       0x20 drivers/spi/built-in.o
 .text.sfc_xfc_mode
                0x0000000000000000       0x20 drivers/spi/built-in.o
 .text.sfc_dma_mode
                0x0000000000000000       0x14 drivers/spi/built-in.o
 .text.sfc_dma_tx0_enable
                0x0000000000000000       0x18 drivers/spi/built-in.o
 .text.sfc_dma_tx1_enable
                0x0000000000000000       0x18 drivers/spi/built-in.o
 .text.sfc_dma_rx0_enable
                0x0000000000000000       0x18 drivers/spi/built-in.o
 .text.sfc_dma_rx1_enable
                0x0000000000000000       0x18 drivers/spi/built-in.o
 .text.sfc_dma_disable
                0x0000000000000000       0x14 drivers/spi/built-in.o
 .text.sfc_dma_tx0_start
                0x0000000000000000       0x28 drivers/spi/built-in.o
 .text.sfc_dma_tx1_start
                0x0000000000000000       0x28 drivers/spi/built-in.o
 .text.sfc_dma_tx0_stop
                0x0000000000000000       0x10 drivers/spi/built-in.o
 .text.sfc_dma_tx1_stop
                0x0000000000000000       0x10 drivers/spi/built-in.o
 .text.sfc_dma_rx0_start
                0x0000000000000000       0x28 drivers/spi/built-in.o
 .text.sfc_dma_rx1_start
                0x0000000000000000       0x28 drivers/spi/built-in.o
 .text.sfc_dma_rx1_stop
                0x0000000000000000       0x10 drivers/spi/built-in.o
 .text.sfc_dma_write_data
                0x0000000000000000       0x54 drivers/spi/built-in.o
 .text.sfc_dma_write_spare
                0x0000000000000000       0x54 drivers/spi/built-in.o
 .text.sfc_dma_read_data
                0x0000000000000000       0x58 drivers/spi/built-in.o
 .text.sfc_dma_read_spare
                0x0000000000000000       0x58 drivers/spi/built-in.o
 .text.sfc_fill_spare
                0x0000000000000000       0x2c drivers/spi/built-in.o
 .text.sfc_deal_spare
                0x0000000000000000       0x98 drivers/spi/built-in.o
 .text.dma_rx0_cfg1
                0x0000000000000000       0x18 drivers/spi/built-in.o
 .text.nfc_cmd_mode_clr
                0x0000000000000000       0x10 drivers/spi/built-in.o
 .text.nfc_dev_mode_clr
                0x0000000000000000       0x10 drivers/spi/built-in.o
 .text.nfc_dma_common_clr
                0x0000000000000000       0x10 drivers/spi/built-in.o
 .text.nfc_dma_rx_ch0_cfg1_reg_set
                0x0000000000000000        0x4 drivers/spi/built-in.o
 .text.nfc_dma_clr
                0x0000000000000000       0x10 drivers/spi/built-in.o
 .text.access_start_clr
                0x0000000000000000       0x10 drivers/spi/built-in.o
 .text.access_start_set
                0x0000000000000000       0x2c drivers/spi/built-in.o
 .text.nfc_access_start_reg_set
                0x0000000000000000       0x10 drivers/spi/built-in.o
 .text.nfc_addr4
                0x0000000000000000       0x1c drivers/spi/built-in.o
 .text.sfc_start
                0x0000000000000000       0x1c drivers/spi/built-in.o
 .text.sfc_wait_fbuf0_ready
                0x0000000000000000       0x34 drivers/spi/built-in.o
 .text.sfc_start_ecc_encode
                0x0000000000000000       0x10 drivers/spi/built-in.o
 .text.sfc_read_ecc
                0x0000000000000000       0x18 drivers/spi/built-in.o
 .text.spi_nand_calculate_ecc
                0x0000000000000000       0x40 drivers/spi/built-in.o
 .text.mc_spi_xfer_set_cs.part.0
                0x0000000000000000       0x4c drivers/spi/built-in.o
 .text.molchip_spi_clk_enable
                0x0000000000000000       0xac drivers/spi/built-in.o
 .text.reset_spi
                0x0000000000000000       0x28 drivers/spi/built-in.o
 .text.mc_spi_enable
                0x0000000000000000       0x10 drivers/spi/built-in.o
 .text.mc_spi_set_polarity
                0x0000000000000000       0x1c drivers/spi/built-in.o
 .text.mc_spi_set_phase
                0x0000000000000000       0x1c drivers/spi/built-in.o
 .text.mc_spi_set_frame_format
                0x0000000000000000       0x1c drivers/spi/built-in.o
 .text.mc_spi_set_data_size
                0x0000000000000000       0x18 drivers/spi/built-in.o
 .text.mc_spi_set_transfer_mode
                0x0000000000000000       0x1c drivers/spi/built-in.o
 .text.mc_spi_set_read_data_num
                0x0000000000000000       0x10 drivers/spi/built-in.o
 .text.mc_spi_set_baudrate
                0x0000000000000000        0xc drivers/spi/built-in.o
 .text.mc_spi_disable_irq
                0x0000000000000000       0x10 drivers/spi/built-in.o
 .text.mc_spi_enable_irq
                0x0000000000000000       0x10 drivers/spi/built-in.o
 .text.mc_spi_get_status
                0x0000000000000000        0x8 drivers/spi/built-in.o
 .text.mc_spi_enable_port
                0x0000000000000000       0x20 drivers/spi/built-in.o
 .text.mc_spi_disable_port
                0x0000000000000000       0x10 drivers/spi/built-in.o
 .text.mc_spi_rx_sample_delay
                0x0000000000000000        0xc drivers/spi/built-in.o
 .text.mc_spi_xfer_set_cs
                0x0000000000000000       0x60 drivers/spi/built-in.o
 .text.mc_spi_set_slave_mode
                0x0000000000000000       0x50 drivers/spi/built-in.o
 .text.mc_spi_xfer
                0x0000000000000000      0x120 drivers/spi/built-in.o
 .text.mc_spi_init
                0x0000000000000000       0x5c drivers/spi/built-in.o
 .text.mc_spi_pinmux_cfg
                0x0000000000000000       0x4c drivers/spi/built-in.o
 .text.board_spi_init
                0x0000000000000000       0x24 drivers/spi/built-in.o
 .text.mc_spi_slave_clk_enable
                0x0000000000000000       0x24 drivers/spi/built-in.o
 .text.reset_spi_slave
                0x0000000000000000       0x4c drivers/spi/built-in.o
 .text.mc_spi_slave_enable
                0x0000000000000000       0x24 drivers/spi/built-in.o
 .text.mc_spi_slave_set_polarity
                0x0000000000000000       0x30 drivers/spi/built-in.o
 .text.mc_spi_slave_set_phase
                0x0000000000000000       0x30 drivers/spi/built-in.o
 .text.mc_spi_slave_set_frame_format
                0x0000000000000000       0x30 drivers/spi/built-in.o
 .text.mc_spi_slave_set_data_size
                0x0000000000000000       0x2c drivers/spi/built-in.o
 .text.mc_spi_slave_set_transfer_mode
                0x0000000000000000       0x30 drivers/spi/built-in.o
 .text.mc_spi_slave_disable_irq
                0x0000000000000000       0x24 drivers/spi/built-in.o
 .text.mc_spi_slave_enable_irq
                0x0000000000000000       0x24 drivers/spi/built-in.o
 .text.mc_spi_slave_get_status
                0x0000000000000000       0x1c drivers/spi/built-in.o
 .text.mc_spi_slave_rx_sample_delay
                0x0000000000000000       0x20 drivers/spi/built-in.o
 .text.mc_spi_slave_set_slave_mode
                0x0000000000000000       0x30 drivers/spi/built-in.o
 .text.poll_tx_only_data
                0x0000000000000000       0x64 drivers/spi/built-in.o
 .text.poll_rx_only_data
                0x0000000000000000       0x7c drivers/spi/built-in.o
 .text.mc_spi_slave_xfer
                0x0000000000000000       0x90 drivers/spi/built-in.o
 .text.mc_spi_slave_pinmux_cfg
                0x0000000000000000       0x60 drivers/spi/built-in.o
 .text.mc_spi_slave_init
                0x0000000000000000       0x78 drivers/spi/built-in.o
 .text.board_spi_slave_init
                0x0000000000000000       0x48 drivers/spi/built-in.o
 .rodata.spi_set_wordlen.str1.1
                0x0000000000000000       0x19 drivers/spi/built-in.o
 .rodata.board_spi_slave_init.str1.1
                0x0000000000000000       0x18 drivers/spi/built-in.o
 .data          0x0000000000000000        0x0 drivers/spi/built-in.o
 .bss           0x0000000000000000        0x0 drivers/spi/built-in.o
 .bss.spi       0x0000000000000000       0x10 drivers/spi/built-in.o
 .bss.spi_slave
                0x0000000000000000       0x28 drivers/spi/built-in.o
 .text          0x0000000000000000        0x0 drivers/usb/common/built-in.o
 .data          0x0000000000000000        0x0 drivers/usb/common/built-in.o
 .bss           0x0000000000000000        0x0 drivers/usb/common/built-in.o
 .text          0x0000000000000000        0x0 drivers/usb/eth/built-in.o
 .data          0x0000000000000000        0x0 drivers/usb/eth/built-in.o
 .bss           0x0000000000000000        0x0 drivers/usb/eth/built-in.o
 .text          0x0000000000000000        0x0 drivers/usb/host/built-in.o
 .text.create_int_queue
                0x0000000000000000       0x4c drivers/usb/host/built-in.o
 .text.poll_int_queue
                0x0000000000000000       0x3c drivers/usb/host/built-in.o
 .text.destroy_int_queue
                0x0000000000000000       0x3c drivers/usb/host/built-in.o
 .text.usb_setup_ehci_gadget
                0x0000000000000000       0x70 drivers/usb/host/built-in.o
 .text.usb_detect_change
                0x0000000000000000       0xb0 drivers/usb/host/built-in.o
 .text.dwc3_set_fladj
                0x0000000000000000       0x18 drivers/usb/host/built-in.o
 .data          0x0000000000000000        0x0 drivers/usb/host/built-in.o
 .bss           0x0000000000000000        0x0 drivers/usb/host/built-in.o
 .text          0x0000000000000000        0x0 drivers/usb/phy/built-in.o
 .data          0x0000000000000000        0x0 drivers/usb/phy/built-in.o
 .bss           0x0000000000000000        0x0 drivers/usb/phy/built-in.o
 .text          0x0000000000000000        0x0 env/built-in.o
 .text.env_flags_parse_varaccess_from_binflags
                0x0000000000000000       0x58 env/built-in.o
 .rodata.env_flags_parse_varaccess_from_binflags.str1.1
                0x0000000000000000       0x2c env/built-in.o
 .data          0x0000000000000000        0x0 env/built-in.o
 .bss           0x0000000000000000        0x0 env/built-in.o
 .text          0x0000000000000000        0x0 fs/built-in.o
 .text.fs_uuid  0x0000000000000000       0x28 fs/built-in.o
 .text.fs_exists
                0x0000000000000000       0x34 fs/built-in.o
 .text.fs_write
                0x0000000000000000       0x94 fs/built-in.o
 .text.file_exists
                0x0000000000000000       0x2c fs/built-in.o
 .text.do_save  0x0000000000000000      0x16c fs/built-in.o
 .text.do_fs_uuid
                0x0000000000000000       0x8c fs/built-in.o
 .text.do_fs_type
                0x0000000000000000       0x70 fs/built-in.o
 .text.fat_register_device
                0x0000000000000000       0x88 fs/built-in.o
 .text.file_fat_read
                0x0000000000000000       0x38 fs/built-in.o
 .text.file_getfsname
                0x0000000000000000       0x14 fs/built-in.o
 .text.file_cd  0x0000000000000000      0x1cc fs/built-in.o
 .text.file_detectfs
                0x0000000000000000       0x40 fs/built-in.o
 .text.file_ls  0x0000000000000000       0x90 fs/built-in.o
 .text.file_read
                0x0000000000000000       0xa0 fs/built-in.o
 .rodata.fs_write.str1.1
                0x0000000000000000       0x1f fs/built-in.o
 .rodata.do_save.str1.1
                0x0000000000000000       0x1d fs/built-in.o
 .rodata.do_fs_uuid.str1.1
                0x0000000000000000        0x4 fs/built-in.o
 .rodata.fat_register_device.str1.1
                0x0000000000000000       0x2b fs/built-in.o
 .rodata.file_detectfs.str1.1
                0x0000000000000000        0x2 fs/built-in.o
 .rodata.file_ls.str1.1
                0x0000000000000000       0x2e fs/built-in.o
 .rodata.file_read.str1.1
                0x0000000000000000       0x27 fs/built-in.o
 .rodata.filesystems
                0x0000000000000000       0x18 fs/built-in.o
 .data          0x0000000000000000        0x0 fs/built-in.o
 .data.current_filesystem
                0x0000000000000000        0x4 fs/built-in.o
 .data.file_cwd
                0x0000000000000000      0x200 fs/built-in.o
 .bss           0x0000000000000000        0x0 fs/built-in.o
 .text          0x0000000000000000        0x0 lib/built-in.o
 .text.inflateInit_
                0x0000000000000000       0x10 lib/built-in.o
 .text.crc7     0x0000000000000000       0x24 lib/built-in.o
 .text.crc8     0x0000000000000000       0x48 lib/built-in.o
 .text.crc16_ccitt
                0x0000000000000000       0x38 lib/built-in.o
 .text.lmb_dump_all
                0x0000000000000000        0x4 lib/built-in.o
 .text.lmb_is_reserved
                0x0000000000000000       0x58 lib/built-in.o
 .text.arch_lmb_reserve
                0x0000000000000000        0x4 lib/built-in.o
 .text.ldiv     0x0000000000000000       0x3c lib/built-in.o
 .text.rc4_encode
                0x0000000000000000       0xe8 lib/built-in.o
 .text.merge    0x0000000000000000       0x68 lib/built-in.o
 .text.list_sort
                0x0000000000000000      0x1a0 lib/built-in.o
 .text.fdt_get_phandle
                0x0000000000000000       0x70 lib/built-in.o
 .text.fdt_get_max_phandle
                0x0000000000000000       0x6c lib/built-in.o
 .text.fdt_get_alias
                0x0000000000000000       0x28 lib/built-in.o
 .text.fdt_get_path
                0x0000000000000000      0x15c lib/built-in.o
 .text.fdt_node_offset_by_prop_value
                0x0000000000000000       0x98 lib/built-in.o
 .text.fdt_node_offset_by_phandle
                0x0000000000000000       0x6c lib/built-in.o
 .text.fdt_stringlist_contains
                0x0000000000000000       0x7c lib/built-in.o
 .text.fdt_stringlist_count
                0x0000000000000000       0x64 lib/built-in.o
 .text.fdt_stringlist_search
                0x0000000000000000       0xa4 lib/built-in.o
 .text.fdt_stringlist_get
                0x0000000000000000       0xac lib/built-in.o
 .text.fdt_node_check_compatible
                0x0000000000000000       0x40 lib/built-in.o
 .text.fdt_node_offset_by_compatible
                0x0000000000000000       0x74 lib/built-in.o
 .text.fdt_set_name
                0x0000000000000000       0x88 lib/built-in.o
 .text.fdt_appendprop
                0x0000000000000000       0xdc lib/built-in.o
 .text.fdt_pack
                0x0000000000000000       0x5c lib/built-in.o
 .text.fdt_remove_unused_strings
                0x0000000000000000       0xb0 lib/built-in.o
 .text._fdt_sw_check_header
                0x0000000000000000       0x1c lib/built-in.o
 .text._fdt_grab_space
                0x0000000000000000       0x5c lib/built-in.o
 .text.fdt_create
                0x0000000000000000       0x64 lib/built-in.o
 .text.fdt_resize
                0x0000000000000000       0xbc lib/built-in.o
 .text.fdt_add_reservemap_entry
                0x0000000000000000       0x8c lib/built-in.o
 .text.fdt_finish_reservemap
                0x0000000000000000       0x1c lib/built-in.o
 .text.fdt_begin_node
                0x0000000000000000       0x64 lib/built-in.o
 .text.fdt_end_node
                0x0000000000000000       0x38 lib/built-in.o
 .text.fdt_property_placeholder
                0x0000000000000000      0x10c lib/built-in.o
 .text.fdt_property
                0x0000000000000000       0x3c lib/built-in.o
 .text.fdt_finish
                0x0000000000000000      0x100 lib/built-in.o
 .text.fdt_setprop_inplace_namelen_partial
                0x0000000000000000       0x54 lib/built-in.o
 .text.fdt_setprop_inplace
                0x0000000000000000       0x74 lib/built-in.o
 .text.fdt_nop_property
                0x0000000000000000       0x40 lib/built-in.o
 .text.fdt_nop_node
                0x0000000000000000       0x50 lib/built-in.o
 .text.fdt_find_regions
                0x0000000000000000      0x370 lib/built-in.o
 .text.fdt_create_empty_tree
                0x0000000000000000       0x74 lib/built-in.o
 .text.fdt_add_region
                0x0000000000000000       0x9c lib/built-in.o
 .text.fdt_add_alias_regions
                0x0000000000000000      0x1a4 lib/built-in.o
 .text.fdt_next_region
                0x0000000000000000      0x50c lib/built-in.o
 .text.fdt_first_region
                0x0000000000000000       0x48 lib/built-in.o
 .text.fdtdec_get_compatible
                0x0000000000000000       0x10 lib/built-in.o
 .text.fdtdec_get_uint64
                0x0000000000000000       0x40 lib/built-in.o
 .text.fdtdec_lookup
                0x0000000000000000       0x48 lib/built-in.o
 .text.fdtdec_next_compatible
                0x0000000000000000       0x10 lib/built-in.o
 .text.fdtdec_next_compatible_subnode
                0x0000000000000000       0x68 lib/built-in.o
 .text.fdtdec_next_alias
                0x0000000000000000       0x94 lib/built-in.o
 .text.fdtdec_add_aliases_for_id
                0x0000000000000000      0x264 lib/built-in.o
 .text.fdtdec_find_aliases_for_id
                0x0000000000000000       0x44 lib/built-in.o
 .text.fdtdec_check_fdt
                0x0000000000000000       0x10 lib/built-in.o
 .text.fdtdec_lookup_phandle
                0x0000000000000000       0x34 lib/built-in.o
 .text.decode_timing_property
                0x0000000000000000       0x80 lib/built-in.o
 .text.fdtdec_get_int_array_count
                0x0000000000000000       0x58 lib/built-in.o
 .text.fdtdec_locate_array
                0x0000000000000000       0x28 lib/built-in.o
 .text.fdtdec_get_bool
                0x0000000000000000       0x1c lib/built-in.o
 .text.fdtdec_parse_phandle_with_args
                0x0000000000000000      0x14c lib/built-in.o
 .text.fdtdec_get_child_count
                0x0000000000000000       0x38 lib/built-in.o
 .text.fdtdec_get_byte_array
                0x0000000000000000       0x48 lib/built-in.o
 .text.fdtdec_locate_byte_array
                0x0000000000000000       0x24 lib/built-in.o
 .text.fdtdec_get_config_bool
                0x0000000000000000       0x44 lib/built-in.o
 .text.fdtdec_decode_region
                0x0000000000000000       0x54 lib/built-in.o
 .text.fdtdec_get_number
                0x0000000000000000       0x2c lib/built-in.o
 .text.fdtdec_get_addr_size_fixed
                0x0000000000000000       0xb8 lib/built-in.o
 .text.fdtdec_get_addr_size_auto_parent
                0x0000000000000000       0x6c lib/built-in.o
 .text.fdtdec_get_addr_size_auto_noparent
                0x0000000000000000       0x54 lib/built-in.o
 .text.fdtdec_get_addr_size
                0x0000000000000000       0x34 lib/built-in.o
 .text.fdtdec_get_addr
                0x0000000000000000        0x8 lib/built-in.o
 .text.fdt_get_resource
                0x0000000000000000       0xe0 lib/built-in.o
 .text.fdt_get_named_resource
                0x0000000000000000       0x40 lib/built-in.o
 .text.fdtdec_decode_memory_region
                0x0000000000000000      0x130 lib/built-in.o
 .text.fdtdec_decode_display_timing
                0x0000000000000000      0x2d4 lib/built-in.o
 .text.fdtdec_setup_memory_size
                0x0000000000000000       0x64 lib/built-in.o
 .text.fdtdec_setup_memory_banksize
                0x0000000000000000       0x80 lib/built-in.o
 .text.print_freq
                0x0000000000000000      0x18c lib/built-in.o
 .text.div_s64_rem
                0x0000000000000000       0xb0 lib/built-in.o
 .text.div64_u64_rem
                0x0000000000000000      0x148 lib/built-in.o
 .text.div64_u64
                0x0000000000000000      0x120 lib/built-in.o
 .text.div64_s64
                0x0000000000000000       0x44 lib/built-in.o
 .text.iter_div_u64_rem
                0x0000000000000000       0x3c lib/built-in.o
 .text.copy_from_user
                0x0000000000000000       0x10 lib/built-in.o
 .text.kmalloc  0x0000000000000000       0x38 lib/built-in.o
 .text.get_mem  0x0000000000000000       0x1c lib/built-in.o
 .text.kmem_cache_alloc
                0x0000000000000000        0xc lib/built-in.o
 .text.membuff_purge
                0x0000000000000000       0x10 lib/built-in.o
 .text.membuff_putraw
                0x0000000000000000       0xc0 lib/built-in.o
 .text.membuff_putbyte
                0x0000000000000000       0x30 lib/built-in.o
 .text.membuff_getraw
                0x0000000000000000       0x94 lib/built-in.o
 .text.membuff_getbyte
                0x0000000000000000       0x34 lib/built-in.o
 .text.membuff_peekbyte
                0x0000000000000000       0x30 lib/built-in.o
 .text.membuff_get
                0x0000000000000000       0x74 lib/built-in.o
 .text.membuff_put
                0x0000000000000000       0x6c lib/built-in.o
 .text.membuff_isempty
                0x0000000000000000       0x18 lib/built-in.o
 .text.membuff_avail
                0x0000000000000000       0x50 lib/built-in.o
 .text.membuff_size
                0x0000000000000000        0xc lib/built-in.o
 .text.membuff_makecontig
                0x0000000000000000       0x80 lib/built-in.o
 .text.membuff_free
                0x0000000000000000       0x30 lib/built-in.o
 .text.membuff_readline
                0x0000000000000000       0xac lib/built-in.o
 .text.membuff_extend_by
                0x0000000000000000       0xbc lib/built-in.o
 .text.membuff_init
                0x0000000000000000       0x18 lib/built-in.o
 .text.membuff_new
                0x0000000000000000       0x38 lib/built-in.o
 .text.membuff_uninit
                0x0000000000000000       0x18 lib/built-in.o
 .text.membuff_dispose
                0x0000000000000000       0x24 lib/built-in.o
 .text.strncasecmp
                0x0000000000000000       0x80 lib/built-in.o
 .text.strcasecmp
                0x0000000000000000        0x8 lib/built-in.o
 .text.strncat  0x0000000000000000       0x50 lib/built-in.o
 .text.strchrnul
                0x0000000000000000       0x20 lib/built-in.o
 .text.strcspn  0x0000000000000000       0x48 lib/built-in.o
 .text.strspn   0x0000000000000000       0x4c lib/built-in.o
 .text.strtok   0x0000000000000000       0x68 lib/built-in.o
 .text.strsep   0x0000000000000000       0x34 lib/built-in.o
 .text.strswab  0x0000000000000000       0x48 lib/built-in.o
 .text.memscan  0x0000000000000000       0x28 lib/built-in.o
 .text.memchr_inv
                0x0000000000000000      0x100 lib/built-in.o
 .text.table_compute_checksum
                0x0000000000000000       0x28 lib/built-in.o
 .text.get_tbclk
                0x0000000000000000        0x8 lib/built-in.o
 .text.timer_read_counter
                0x0000000000000000       0x10 lib/built-in.o
 .text.timer_get_boot_us
                0x0000000000000000       0x2c lib/built-in.o
 .text.timer_get_us
                0x0000000000000000       0x1c lib/built-in.o
 .text.__udelay
                0x0000000000000000        0x4 lib/built-in.o
 .text.uuid_bin_to_str
                0x0000000000000000       0xc0 lib/built-in.o
 .text.rand     0x0000000000000000        0xc lib/built-in.o
 .text.srand    0x0000000000000000       0x10 lib/built-in.o
 .text.vsnprintf
                0x0000000000000000        0x4 lib/built-in.o
 .text.scnprintf
                0x0000000000000000       0x28 lib/built-in.o
 .text.__assert_fail
                0x0000000000000000       0x14 lib/built-in.o
 .text.print_grouped_ull
                0x0000000000000000       0x88 lib/built-in.o
 .text.str2long
                0x0000000000000000       0x3c lib/built-in.o
 .text.strmhz   0x0000000000000000       0x6c lib/built-in.o
 .rodata        0x0000000000000000       0x20 lib/built-in.o
 .rodata.z_errmsg
                0x0000000000000000       0x28 lib/built-in.o
 .rodata.crc7_syndrome_table
                0x0000000000000000      0x100 lib/built-in.o
 .rodata.crc16_tab
                0x0000000000000000      0x200 lib/built-in.o
 .rodata.list_sort.str1.1
                0x0000000000000000       0x34 lib/built-in.o
 .rodata.fdt_get_phandle.str1.1
                0x0000000000000000       0x16 lib/built-in.o
 .rodata.fdt_node_check_compatible.str1.1
                0x0000000000000000        0xb lib/built-in.o
 .rodata.fdt_create_empty_tree.str1.1
                0x0000000000000000        0x1 lib/built-in.o
 .rodata.fdt_add_alias_regions.str1.1
                0x0000000000000000        0x8 lib/built-in.o
 .rodata.fdtdec_next_alias.str1.1
                0x0000000000000000        0x7 lib/built-in.o
 .rodata.fdtdec_decode_memory_region.str1.1
                0x0000000000000000       0x25 lib/built-in.o
 .rodata.fdtdec_decode_display_timing.str1.1
                0x0000000000000000       0xca lib/built-in.o
 .rodata.compat_names
                0x0000000000000000       0xa0 lib/built-in.o
 .rodata.names.1
                0x0000000000000000        0x3 lib/built-in.o
 .rodata.uuid_bin_to_str.str1.1
                0x0000000000000000        0x5 lib/built-in.o
 .rodata.__assert_fail.str1.1
                0x0000000000000000       0x22 lib/built-in.o
 .rodata.print_grouped_ull.str1.1
                0x0000000000000000        0xb lib/built-in.o
 .rodata.strmhz.str1.1
                0x0000000000000000        0xb lib/built-in.o
 .data          0x0000000000000000        0x0 lib/built-in.o
 .data.cur      0x0000000000000000        0x4 lib/built-in.o
 .data.current  0x0000000000000000        0x4 lib/built-in.o
 .data.y        0x0000000000000000        0x4 lib/built-in.o
 .bss           0x0000000000000000        0x0 lib/built-in.o
 .bss.___strtok
                0x0000000000000000        0x4 lib/built-in.o
 .text          0x0000000000000000        0x0 net/built-in.o
 .text.add_ip_checksums
                0x0000000000000000       0x3c net/built-in.o
 .text.link_local_receive_arp
                0x0000000000000000      0x23c net/built-in.o
 .text.net_get_udp_handler
                0x0000000000000000       0x10 net/built-in.o
 .text.env_get_vlan
                0x0000000000000000       0x10 net/built-in.o
 .data          0x0000000000000000        0x0 net/built-in.o
 .data.tftp_timeout_ms
                0x0000000000000000        0x4 net/built-in.o
 .bss           0x0000000000000000        0x0 net/built-in.o
 .bss.net_busy_flag
                0x0000000000000000        0x4 net/built-in.o
 .text          0x0000000000000000        0x0 test/dm/built-in.o
 .data          0x0000000000000000        0x0 test/dm/built-in.o
 .bss           0x0000000000000000        0x0 test/dm/built-in.o
 .text          0x0000000000000000        0x0 arch/arm/lib/eabi_compat.o
 .data          0x0000000000000000        0x0 arch/arm/lib/eabi_compat.o
 .bss           0x0000000000000000        0x0 arch/arm/lib/eabi_compat.o
 .rodata.raise.str1.1
                0x0000000000000000       0x1b arch/arm/lib/eabi_compat.o
 .text.raise    0x0000000000000000       0x1c arch/arm/lib/eabi_compat.o
 .text.__aeabi_unwind_cpp_pr0
                0x0000000000000000        0x4 arch/arm/lib/eabi_compat.o
 .text.__aeabi_unwind_cpp_pr1
                0x0000000000000000        0x4 arch/arm/lib/eabi_compat.o
 .text.__aeabi_memcpy
                0x0000000000000000        0x4 arch/arm/lib/eabi_compat.o
 .text.__aeabi_memset
                0x0000000000000000       0x10 arch/arm/lib/eabi_compat.o
 .debug_info    0x0000000000000000      0x207 arch/arm/lib/eabi_compat.o
 .debug_abbrev  0x0000000000000000      0x12f arch/arm/lib/eabi_compat.o
 .debug_loc     0x0000000000000000      0x12a arch/arm/lib/eabi_compat.o
 .debug_aranges
                0x0000000000000000       0x38 arch/arm/lib/eabi_compat.o
 .debug_ranges  0x0000000000000000       0x28 arch/arm/lib/eabi_compat.o
 .debug_line    0x0000000000000000      0x103 arch/arm/lib/eabi_compat.o
 .debug_str     0x0000000000000000      0x2c5 arch/arm/lib/eabi_compat.o
 .comment       0x0000000000000000       0x23 arch/arm/lib/eabi_compat.o
 .note.GNU-stack
                0x0000000000000000        0x0 arch/arm/lib/eabi_compat.o
 .debug_frame   0x0000000000000000       0x68 arch/arm/lib/eabi_compat.o
 .ARM.attributes
                0x0000000000000000       0x2d arch/arm/lib/eabi_compat.o
 .text          0x0000000000000000        0x0 arch/arm/lib/lib.a(lib1funcs.o)
 .data          0x0000000000000000        0x0 arch/arm/lib/lib.a(lib1funcs.o)
 .bss           0x0000000000000000        0x0 arch/arm/lib/lib.a(lib1funcs.o)
 .text.__umodsi3
                0x0000000000000000       0xa0 arch/arm/lib/lib.a(lib1funcs.o)
 .text.__modsi3
                0x0000000000000000       0xb8 arch/arm/lib/lib.a(lib1funcs.o)
 .text          0x0000000000000000        0x0 arch/arm/lib/lib.a(uldivmod.o)
 .data          0x0000000000000000        0x0 arch/arm/lib/lib.a(uldivmod.o)
 .bss           0x0000000000000000        0x0 arch/arm/lib/lib.a(uldivmod.o)
 .text          0x0000000000000000        0x0 arch/arm/lib/lib.a(div0.o)
 .data          0x0000000000000000        0x0 arch/arm/lib/lib.a(div0.o)
 .bss           0x0000000000000000        0x0 arch/arm/lib/lib.a(div0.o)

Memory Configuration

Name             Origin             Length             Attributes
*default*        0x0000000000000000 0xffffffffffffffff

Linker script and memory map

Address of section .text set to 0x41600000
                0x0000000000000000                . = 0x0
                0x0000000000000000                . = ALIGN (0x4)

.text           0x0000000041600000    0x4c4c8
 *(.__image_copy_start)
 .__image_copy_start
                0x0000000041600000        0x0 arch/arm/lib/built-in.o
                0x0000000041600000                __image_copy_start
 *(.vectors)
 .vectors       0x0000000041600000      0x2e8 arch/arm/lib/built-in.o
                0x0000000041600000                _start
                0x0000000041600020                _undefined_instruction
                0x0000000041600024                _software_interrupt
                0x0000000041600028                _prefetch_abort
                0x000000004160002c                _data_abort
                0x0000000041600030                _not_used
                0x0000000041600034                _irq
                0x0000000041600038                _fiq
                0x0000000041600040                IRQ_STACK_START_IN
 arch/arm/cpu/armv7/start.o(.text*)
 .text          0x00000000416002e8       0xb0 arch/arm/cpu/armv7/start.o
                0x00000000416002e8                reset
                0x00000000416002ec                save_boot_params_ret
                0x0000000041600328                c_runtime_cpu_setup
                0x0000000041600338                save_boot_params
                0x000000004160033c                cpu_init_cp15
                0x0000000041600390                cpu_init_crit
 *(.text*)
 .text          0x0000000041600398      0x148 arch/arm/cpu/armv7/built-in.o
                0x0000000041600398                __v7_flush_dcache_all
                0x000000004160042c                v7_flush_dcache_all
                0x000000004160043c                __v7_invalidate_dcache_all
                0x00000000416004d0                v7_invalidate_dcache_all
 .text.invalidate_icache_all
                0x00000000416004e0       0x18 arch/arm/cpu/armv7/built-in.o
                0x00000000416004e0                invalidate_icache_all
 .text.v7_outer_cache_enable
                0x00000000416004f8        0x4 arch/arm/cpu/armv7/built-in.o
                0x00000000416004f8                v7_outer_cache_enable
 .text.v7_outer_cache_disable
                0x00000000416004fc        0x4 arch/arm/cpu/armv7/built-in.o
                0x00000000416004fc                v7_outer_cache_disable
 .text.v7_outer_cache_flush_all
                0x0000000041600500        0x4 arch/arm/cpu/armv7/built-in.o
                0x0000000041600500                v7_outer_cache_flush_all
 .text.flush_dcache_all
                0x0000000041600504       0x10 arch/arm/cpu/armv7/built-in.o
                0x0000000041600504                flush_dcache_all
 .text.v7_outer_cache_inval_all
                0x0000000041600514        0x4 arch/arm/cpu/armv7/built-in.o
                0x0000000041600514                v7_outer_cache_inval_all
 .text.invalidate_dcache_all
                0x0000000041600518       0x10 arch/arm/cpu/armv7/built-in.o
                0x0000000041600518                invalidate_dcache_all
 .text.arm_init_before_mmu
                0x0000000041600528       0x28 arch/arm/cpu/armv7/built-in.o
                0x0000000041600528                arm_init_before_mmu
 .text.v7_outer_cache_flush_range
                0x0000000041600550        0x4 arch/arm/cpu/armv7/built-in.o
                0x0000000041600550                v7_outer_cache_flush_range
 .text.flush_dcache_range
                0x0000000041600554       0x54 arch/arm/cpu/armv7/built-in.o
                0x0000000041600554                flush_dcache_range
 .text.mmu_page_table_flush
                0x00000000416005a8       0x24 arch/arm/cpu/armv7/built-in.o
                0x00000000416005a8                mmu_page_table_flush
 .text.v7_outer_cache_inval_range
                0x00000000416005cc        0x4 arch/arm/cpu/armv7/built-in.o
                0x00000000416005cc                v7_outer_cache_inval_range
 .text.invalidate_dcache_range
                0x00000000416005d0       0x64 arch/arm/cpu/armv7/built-in.o
                0x00000000416005d0                invalidate_dcache_range
 .text.cpu_cache_initialization
                0x0000000041600634        0x4 arch/arm/cpu/armv7/built-in.o
                0x0000000041600634                cpu_cache_initialization
 .text.cleanup_before_linux_select
                0x0000000041600638       0x60 arch/arm/cpu/armv7/built-in.o
                0x0000000041600638                cleanup_before_linux_select
 .text.cleanup_before_linux
                0x0000000041600698        0x8 arch/arm/cpu/armv7/built-in.o
                0x0000000041600698                cleanup_before_linux
 .text          0x00000000416006a0      0x528 arch/arm/lib/built-in.o
                0x00000000416006a0                _main
                0x0000000041600740                memset
                0x000000004160081c                memcpy
 .text.relocate_vectors
                0x0000000041600bc8       0x70 arch/arm/lib/built-in.o
                0x0000000041600bc8                relocate_vectors
                0x0000000041600bd4                relocate_code
 .text.arch_fixup_fdt
                0x0000000041600c38       0x34 arch/arm/lib/built-in.o
                0x0000000041600c38                arch_fixup_fdt
 .text.boot_prep_linux
                0x0000000041600c6c       0x4c arch/arm/lib/built-in.o
 .text.arch_lmb_reserve
                0x0000000041600cb8       0x24 arch/arm/lib/built-in.o
                0x0000000041600cb8                arch_lmb_reserve
 .text.board_quiesce_devices
                0x0000000041600cdc        0x4 arch/arm/lib/built-in.o
                0x0000000041600cdc                board_quiesce_devices
 .text.boot_jump_linux
                0x0000000041600ce0       0xa4 arch/arm/lib/built-in.o
 .text.do_bootm_linux
                0x0000000041600d84       0x64 arch/arm/lib/built-in.o
                0x0000000041600d84                do_bootm_linux
 .text.boot_prep_vxworks
                0x0000000041600de8       0x4c arch/arm/lib/built-in.o
                0x0000000041600de8                boot_prep_vxworks
 .text.boot_jump_vxworks
                0x0000000041600e34        0xc arch/arm/lib/built-in.o
                0x0000000041600e34                boot_jump_vxworks
 .text.bootz_setup
                0x0000000041600e40       0x8c arch/arm/lib/built-in.o
                0x0000000041600e40                bootz_setup
 .text.arch_reserve_stacks
                0x0000000041600ecc       0x1c arch/arm/lib/built-in.o
                0x0000000041600ecc                arch_reserve_stacks
 .text.interrupt_init
                0x0000000041600ee8       0x1c arch/arm/lib/built-in.o
                0x0000000041600ee8                interrupt_init
 .text.enable_interrupts
                0x0000000041600f04        0x4 arch/arm/lib/built-in.o
                0x0000000041600f04                enable_interrupts
 .text.disable_interrupts
                0x0000000041600f08        0x8 arch/arm/lib/built-in.o
                0x0000000041600f08                disable_interrupts
 .text.bad_mode
                0x0000000041600f10       0x10 arch/arm/lib/built-in.o
                0x0000000041600f10                bad_mode
 .text.show_regs
                0x0000000041600f20      0x2ac arch/arm/lib/built-in.o
                0x0000000041600f20                show_regs
 .text.do_undefined_instruction
                0x00000000416011cc       0x2c arch/arm/lib/built-in.o
                0x00000000416011cc                do_undefined_instruction
 .text.do_software_interrupt
                0x00000000416011f8       0x2c arch/arm/lib/built-in.o
                0x00000000416011f8                do_software_interrupt
 .text.do_prefetch_abort
                0x0000000041601224       0x2c arch/arm/lib/built-in.o
                0x0000000041601224                do_prefetch_abort
 .text.do_data_abort
                0x0000000041601250       0x2c arch/arm/lib/built-in.o
                0x0000000041601250                do_data_abort
 .text.do_not_used
                0x000000004160127c       0x2c arch/arm/lib/built-in.o
                0x000000004160127c                do_not_used
 .text.do_fiq   0x00000000416012a8       0x2c arch/arm/lib/built-in.o
                0x00000000416012a8                do_fiq
 .text.do_irq   0x00000000416012d4       0x2c arch/arm/lib/built-in.o
                0x00000000416012d4                do_irq
 .text.do_reset
                0x0000000041601300       0x18 arch/arm/lib/built-in.o
                0x0000000041601300                do_reset
 .text.flush_cache
                0x0000000041601318        0x8 arch/arm/lib/built-in.o
                0x0000000041601318                flush_cache
 .text.check_cache_range
                0x0000000041601320       0x34 arch/arm/lib/built-in.o
                0x0000000041601320                check_cache_range
 .text.noncached_init
                0x0000000041601354       0x48 arch/arm/lib/built-in.o
                0x0000000041601354                noncached_init
 .text.noncached_alloc
                0x000000004160139c       0x54 arch/arm/lib/built-in.o
                0x000000004160139c                noncached_alloc
 .text.arm_init_domains
                0x00000000416013f0        0x4 arch/arm/lib/built-in.o
                0x00000000416013f0                arm_init_domains
 .text.set_section_dcache
                0x00000000416013f4       0x14 arch/arm/lib/built-in.o
                0x00000000416013f4                set_section_dcache
 .text.mmu_set_region_dcache_behaviour
                0x0000000041601408       0x54 arch/arm/lib/built-in.o
                0x0000000041601408                mmu_set_region_dcache_behaviour
 .text.dram_bank_mmu_setup
                0x000000004160145c       0x3c arch/arm/lib/built-in.o
                0x000000004160145c                dram_bank_mmu_setup
 .text.icache_enable
                0x0000000041601498       0x14 arch/arm/lib/built-in.o
                0x0000000041601498                icache_enable
 .text.icache_disable
                0x00000000416014ac       0x18 arch/arm/lib/built-in.o
                0x00000000416014ac                icache_disable
 .text.icache_status
                0x00000000416014c4        0xc arch/arm/lib/built-in.o
                0x00000000416014c4                icache_status
 .text.dcache_enable
                0x00000000416014d0       0x80 arch/arm/lib/built-in.o
                0x00000000416014d0                dcache_enable
 .text.dcache_disable
                0x0000000041601550       0x28 arch/arm/lib/built-in.o
                0x0000000041601550                dcache_disable
 .text.dcache_status
                0x0000000041601578        0xc arch/arm/lib/built-in.o
                0x0000000041601578                dcache_status
 .text.arch_cpu_init
                0x0000000041601584        0x8 arch/arm/mach-molchip/built-in.o
                0x0000000041601584                arch_cpu_init
 .text.enable_caches
                0x000000004160158c       0x10 arch/arm/mach-molchip/built-in.o
                0x000000004160158c                enable_caches
 .text.init_iram_reboot
                0x000000004160159c       0x74 board/molchip/built-in.o
                0x000000004160159c                init_iram_reboot
 .text.do_reboot
                0x0000000041601610       0x34 board/molchip/built-in.o
                0x0000000041601610                do_reboot
 .text.do_print_ddr_cali_info
                0x0000000041601644      0x16c board/molchip/built-in.o
                0x0000000041601644                do_print_ddr_cali_info
 .text.board_init
                0x00000000416017b0       0x8c board/molchip/built-in.o
                0x00000000416017b0                board_init
 .text.dram_init
                0x000000004160183c       0x10 board/molchip/built-in.o
                0x000000004160183c                dram_init
 .text.dram_init_banksize
                0x000000004160184c       0x74 board/molchip/built-in.o
                0x000000004160184c                dram_init_banksize
 .text.lowlevel_init
                0x00000000416018c0        0x4 board/molchip/built-in.o
                0x00000000416018c0                lowlevel_init
 .text.board_early_init_f
                0x00000000416018c4       0x5c board/molchip/built-in.o
                0x00000000416018c4                board_early_init_f
 .text.uart_putc
                0x0000000041601920       0x1c board/molchip/built-in.o
                0x0000000041601920                uart_putc
 .text.uart_put_int
                0x000000004160193c       0xfc board/molchip/built-in.o
 .text.uart_puts
                0x0000000041601a38       0x40 board/molchip/built-in.o
                0x0000000041601a38                uart_puts
 .text.mc_printf
                0x0000000041601a78      0x184 board/molchip/built-in.o
                0x0000000041601a78                mc_printf
 .text.spi_nand_check_erased_buf
                0x0000000041601bfc      0x134 board/molchip/built-in.o
 .text.spi_nand_send_cmd
                0x0000000041601d30      0x350 board/molchip/built-in.o
 .text.spi_nand_read_page_to_cache
                0x0000000041602080       0x50 board/molchip/built-in.o
 .text.spi_nand_write_enable
                0x00000000416020d0       0x30 board/molchip/built-in.o
 .text.spi_nand_set_otp.isra.0
                0x0000000041602100       0x4c board/molchip/built-in.o
 .text.spi_nand_get_otp.isra.0
                0x000000004160214c       0x4c board/molchip/built-in.o
 .text.spi_nand_read_id.isra.0
                0x0000000041602198       0x48 board/molchip/built-in.o
 .text.spi_nand_wait
                0x00000000416021e0       0x6c board/molchip/built-in.o
 .text.ilog2    0x000000004160224c       0x1c board/molchip/built-in.o
                0x000000004160224c                ilog2
 .text.spi_nand_scan_id_table
                0x0000000041602268       0xec board/molchip/built-in.o
 .text.get_ecc_sts_with_check_ecc_chunk
                0x0000000041602354      0x144 board/molchip/built-in.o
                0x0000000041602354                get_ecc_sts_with_check_ecc_chunk
 .text.spi_nand_read_from_cache.constprop.0
                0x0000000041602498       0xc4 board/molchip/built-in.o
 .text.spi_nand_do_read_page.constprop.0
                0x000000004160255c      0x1bc board/molchip/built-in.o
 .text.spi_nand_scan
                0x0000000041602718       0x70 board/molchip/built-in.o
                0x0000000041602718                spi_nand_scan
 .text.spi_nand_disable_ecc
                0x0000000041602788       0x58 board/molchip/built-in.o
                0x0000000041602788                spi_nand_disable_ecc
 .text.spi_nand_read
                0x00000000416027e0       0xe0 board/molchip/built-in.o
                0x00000000416027e0                spi_nand_read
 .text.spi_nand_program
                0x00000000416028c0      0x1d8 board/molchip/built-in.o
                0x00000000416028c0                spi_nand_program
 .text.spi_nand_erase
                0x0000000041602a98      0x124 board/molchip/built-in.o
                0x0000000041602a98                spi_nand_erase
 .text.mc_get_cpu_clk
                0x0000000041602bbc       0x2c board/molchip/built-in.o
                0x0000000041602bbc                mc_get_cpu_clk
 .text.do_go_exec
                0x0000000041602be8       0x10 cmd/built-in.o
                0x0000000041602be8                do_go_exec
 .text.do_go    0x0000000041602bf8       0x6c cmd/built-in.o
 .text.do_bootm
                0x0000000041602c64      0x168 cmd/built-in.o
                0x0000000041602c64                do_bootm
 .text.image_info
                0x0000000041602dcc       0xcc cmd/built-in.o
 .text.do_iminfo
                0x0000000041602e98       0x5c cmd/built-in.o
 .text.bootm_maybe_autostart
                0x0000000041602ef4       0x78 cmd/built-in.o
                0x0000000041602ef4                bootm_maybe_autostart
 .text.do_help  0x0000000041602f6c       0x44 cmd/built-in.o
 .text.do_version
                0x0000000041602fb0       0x40 cmd/built-in.o
 .text.blk_common_cmd
                0x0000000041602ff0      0x318 cmd/built-in.o
                0x0000000041602ff0                blk_common_cmd
 .text.source   0x0000000041603308       0xd8 cmd/built-in.o
                0x0000000041603308                source
 .text.do_source
                0x00000000416033e0       0x48 cmd/built-in.o
 .text.print_num
                0x0000000041603428       0x14 cmd/built-in.o
 .text.do_bdinfo
                0x000000004160343c       0xfc cmd/built-in.o
 .text.do_bootz
                0x0000000041603538      0x150 cmd/built-in.o
                0x0000000041603538                do_bootz
 .text.do_bootx
                0x0000000041603688       0xd4 cmd/built-in.o
                0x0000000041603688                do_bootx
 .text.parse_argv
                0x000000004160375c       0x60 cmd/built-in.o
 .text.do_icache
                0x00000000416037bc       0x88 cmd/built-in.o
 .text.do_dcache
                0x0000000041603844       0x88 cmd/built-in.o
 .text.cnvrt2   0x00000000416038cc       0x44 cmd/built-in.o
 .text.mk_date  0x0000000041603910      0x1c8 cmd/built-in.o
                0x0000000041603910                mk_date
 .text.do_date  0x0000000041603ad8      0x188 cmd/built-in.o
 .text.do_echo  0x0000000041603c60       0xb4 cmd/built-in.o
 .text.load_elf_image_shdr
                0x0000000041603d14       0x8c cmd/built-in.o
 .text.valid_elf_image
                0x0000000041603da0       0x4c cmd/built-in.o
                0x0000000041603da0                valid_elf_image
 .text.do_bootelf
                0x0000000041603dec      0x1cc cmd/built-in.o
                0x0000000041603dec                do_bootelf
 .text.do_bootvx
                0x0000000041603fb8      0x330 cmd/built-in.o
                0x0000000041603fb8                do_bootvx
 .text.do_fat_size
                0x00000000416042e8       0x18 cmd/built-in.o
                0x00000000416042e8                do_fat_size
 .text.do_fat_fsload
                0x0000000041604300       0x18 cmd/built-in.o
                0x0000000041604300                do_fat_fsload
 .text.do_fat_ls
                0x0000000041604318       0x18 cmd/built-in.o
 .text.do_fat_fsinfo
                0x0000000041604330       0x8c cmd/built-in.o
 .text.do_fat_fswrite
                0x00000000416043bc      0x124 cmd/built-in.o
 .text.fdt_valid
                0x00000000416044e0       0xbc cmd/built-in.o
 .text.is_printable_string
                0x000000004160459c       0x80 cmd/built-in.o
 .text.print_data.part.0
                0x000000004160461c      0x16c cmd/built-in.o
 .text.set_working_fdt_addr
                0x0000000041604788       0x1c cmd/built-in.o
                0x0000000041604788                set_working_fdt_addr
 .text.do_fdt   0x00000000416047a4      0xf30 cmd/built-in.o
 .text.get_option
                0x00000000416056d4       0x40 cmd/built-in.o
 .text.get_option_value
                0x0000000041605714       0x24 cmd/built-in.o
 .text.do_gpio_test
                0x0000000041605738      0x180 cmd/built-in.o
 .text.do_mem_md
                0x00000000416058b8       0xe8 cmd/built-in.o
 .text.do_mem_base
                0x00000000416059a0       0x40 cmd/built-in.o
 .text.do_mem_crc
                0x00000000416059e0       0x6c cmd/built-in.o
 .text.do_mem_mw
                0x0000000041605a4c       0xc0 cmd/built-in.o
 .text.do_mem_loop
                0x0000000041605b0c       0xe8 cmd/built-in.o
 .text.do_mem_cmp
                0x0000000041605bf4      0x150 cmd/built-in.o
 .text.mod_mem.part.0
                0x0000000041605d44      0x164 cmd/built-in.o
 .text.do_mem_mm
                0x0000000041605ea8       0x1c cmd/built-in.o
 .text.do_mem_nm
                0x0000000041605ec4       0x1c cmd/built-in.o
 .text.do_mem_cp
                0x0000000041605ee0       0xa8 cmd/built-in.o
 .text.extract_range
                0x0000000041605f88       0xe0 cmd/built-in.o
 .text.do_mii   0x0000000041606068      0x8f4 cmd/built-in.o
 .text.do_mdio  0x000000004160695c      0x4e4 cmd/built-in.o
 .text.do_mmcops
                0x0000000041606e40       0xb8 cmd/built-in.o
 .text.do_mmc_setdsr
                0x0000000041606ef8       0xa4 cmd/built-in.o
 .text.init_mmc_device
                0x0000000041606f9c       0x50 cmd/built-in.o
 .text.do_mmc_rescan
                0x0000000041606fec       0x24 cmd/built-in.o
 .text.do_mmc_hwpartition
                0x0000000041607010      0x508 cmd/built-in.o
 .text.do_mmc_list
                0x0000000041607518       0x14 cmd/built-in.o
 .text.do_mmc_dev
                0x000000004160752c      0x130 cmd/built-in.o
 .text.do_mmcinfo
                0x000000004160765c      0x370 cmd/built-in.o
 .text.do_mmc_part
                0x00000000416079cc       0x60 cmd/built-in.o
 .text.do_mmc_erase
                0x0000000041607a2c       0xe8 cmd/built-in.o
 .text.do_mmc_write
                0x0000000041607b14      0x100 cmd/built-in.o
 .text.do_mmc_read
                0x0000000041607c14       0xec cmd/built-in.o
 .text.netboot_common
                0x0000000041607d00      0x2e0 cmd/built-in.o
 .text.do_bootp
                0x0000000041607fe0        0xc cmd/built-in.o
 .text.do_tftpput
                0x0000000041607fec        0xc cmd/built-in.o
 .text.do_tftpsrv
                0x0000000041607ff8        0xc cmd/built-in.o
 .text.do_rarpb
                0x0000000041608004        0xc cmd/built-in.o
                0x0000000041608004                do_rarpb
 .text.do_dhcp  0x0000000041608010        0xc cmd/built-in.o
 .text.do_nfs   0x000000004160801c        0xc cmd/built-in.o
 .text.do_tftpb
                0x0000000041608028       0x40 cmd/built-in.o
                0x0000000041608028                do_tftpb
 .text.do_cdp   0x0000000041608068       0xe4 cmd/built-in.o
                0x0000000041608068                do_cdp
 .text.do_sntp  0x000000004160814c       0xbc cmd/built-in.o
                0x000000004160814c                do_sntp
 .text.do_dns   0x0000000041608208       0x94 cmd/built-in.o
                0x0000000041608208                do_dns
 .text.do_link_local
                0x000000004160829c       0xac cmd/built-in.o
 .text.do_ping  0x0000000041608348       0x78 cmd/built-in.o
 .text.do_get_ext2
                0x00000000416083c0        0x8 cmd/built-in.o
 .text.eol_or_eof
                0x00000000416083c8       0x20 cmd/built-in.o
 .text.do_pxe   0x00000000416083e8       0x7c cmd/built-in.o
 .text.label_print
                0x0000000041608464       0x1c cmd/built-in.o
 .text.do_get_tftp
                0x0000000041608480       0x40 cmd/built-in.o
 .text.from_env
                0x00000000416084c0       0x2c cmd/built-in.o
 .text.label_destroy
                0x00000000416084ec       0x74 cmd/built-in.o
 .text.destroy_pxe_menu
                0x0000000041608560       0x5c cmd/built-in.o
 .text.do_get_fat
                0x00000000416085bc       0x3c cmd/built-in.o
 .text.do_get_any
                0x00000000416085f8        0x8 cmd/built-in.o
 .text.format_mac_pxe.constprop.0
                0x0000000041608600       0x74 cmd/built-in.o
 .text.get_relfile
                0x0000000041608674      0x138 cmd/built-in.o
 .text.get_pxe_file
                0x00000000416087ac       0x58 cmd/built-in.o
 .text.get_pxelinux_path
                0x0000000041608804       0x7c cmd/built-in.o
 .text.do_pxe_get
                0x0000000041608880      0x160 cmd/built-in.o
 .text.get_relfile_envaddr
                0x00000000416089e0       0x50 cmd/built-in.o
 .text.get_string.isra.0
                0x0000000041608a30       0xc0 cmd/built-in.o
 .text.get_token
                0x0000000041608af0      0x114 cmd/built-in.o
 .text.parse_sliteral
                0x0000000041608c04       0x54 cmd/built-in.o
 .text.parse_integer
                0x0000000041608c58       0x70 cmd/built-in.o
 .text.parse_pxefile_top
                0x0000000041608cc8      0x464 cmd/built-in.o
 .text.handle_include
                0x000000004160912c       0xa4 cmd/built-in.o
 .text.parse_pxefile
                0x00000000416091d0       0x70 cmd/built-in.o
 .text.label_boot
                0x0000000041609240      0x57c cmd/built-in.o
 .text.handle_pxe_menu
                0x00000000416097bc      0x160 cmd/built-in.o
 .text.do_pxe_boot
                0x000000004160991c       0xe0 cmd/built-in.o
 .text.do_sysboot
                0x00000000416099fc      0x1ec cmd/built-in.o
 .text.bytes_per_second
                0x0000000041609be8       0x50 cmd/built-in.o
 .text.do_spi_flash
                0x0000000041609c38      0x7ec cmd/built-in.o
 .text.usb_get_class_desc
                0x000000004160a424       0xc8 cmd/built-in.o
 .text.usb_display_class_sub
                0x000000004160a4ec      0x174 cmd/built-in.o
 .text.usb_display_desc
                0x000000004160a660      0x150 cmd/built-in.o
 .text.usb_show_tree_graph
                0x000000004160a7b0      0x1d8 cmd/built-in.o
 .text.usb_show_subtree
                0x000000004160a988       0x30 cmd/built-in.o
 .text.usb_for_each_root_dev
                0x000000004160a9b8       0x6c cmd/built-in.o
 .text.usb_display_string
                0x000000004160aa24       0x44 cmd/built-in.o
 .text.usb_display_config
                0x000000004160aa68      0x210 cmd/built-in.o
 .text.usb_show_info
                0x000000004160ac78       0x54 cmd/built-in.o
 .text.usb_find_device
                0x000000004160accc       0xb4 cmd/built-in.o
 .text.do_usbboot
                0x000000004160ad80        0xc cmd/built-in.o
 .text.do_usb_start
                0x000000004160ad8c       0x30 cmd/built-in.o
 .text.usb_show_tree
                0x000000004160adbc        0xc cmd/built-in.o
                0x000000004160adbc                usb_show_tree
 .text.do_usb   0x000000004160adc8      0x3ec cmd/built-in.o
 .text.common_diskboot
                0x000000004160b1b4      0x228 cmd/built-in.o
                0x000000004160b1b4                common_diskboot
 .text.ethsw_port_aggr_help_key_func
                0x000000004160b3dc       0x18 cmd/built-in.o
 .text.ethsw_ingr_fltr_help_key_func
                0x000000004160b3f4       0x18 cmd/built-in.o
 .text.ethsw_vlan_learn_help_key_func
                0x000000004160b40c       0x18 cmd/built-in.o
 .text.ethsw_egr_tag_help_key_func
                0x000000004160b424       0x18 cmd/built-in.o
 .text.ethsw_port_untag_help_key_func
                0x000000004160b43c       0x18 cmd/built-in.o
 .text.ethsw_vlan_help_key_func
                0x000000004160b454       0x18 cmd/built-in.o
 .text.ethsw_pvid_help_key_func
                0x000000004160b46c       0x18 cmd/built-in.o
 .text.ethsw_fdb_help_key_func
                0x000000004160b484       0x18 cmd/built-in.o
 .text.ethsw_learn_help_key_func
                0x000000004160b49c       0x18 cmd/built-in.o
 .text.ethsw_port_stats_help_key_func
                0x000000004160b4b4       0x18 cmd/built-in.o
 .text.keyword_match_gen
                0x000000004160b4cc       0x40 cmd/built-in.o
 .text.keyword_match_aggr
                0x000000004160b50c       0x78 cmd/built-in.o
 .text.keyword_match_pvid
                0x000000004160b584       0x78 cmd/built-in.o
 .text.keyword_match_mac_addr
                0x000000004160b5fc      0x110 cmd/built-in.o
 .text.keyword_match_vlan
                0x000000004160b70c      0x12c cmd/built-in.o
 .text.keyword_match_port
                0x000000004160b838       0x80 cmd/built-in.o
 .text.do_ethsw
                0x000000004160b8b8      0x26c cmd/built-in.o
 .text.do_arcgo
                0x000000004160bb24       0xa8 cmd/built-in.o
                0x000000004160bb24                do_arcgo
 .text.do_env_delete
                0x000000004160bbcc       0xa4 cmd/built-in.o
 .text.do_env_save
                0x000000004160bc70       0x28 cmd/built-in.o
 .text.do_env   0x000000004160bc98       0x68 cmd/built-in.o
 .text.env_print
                0x000000004160bd00       0xc4 cmd/built-in.o
 .text.do_env_print
                0x000000004160bdc4       0xc0 cmd/built-in.o
 .text.do_env_import
                0x000000004160be84      0x280 cmd/built-in.o
 .text.do_env_default
                0x000000004160c104       0x8c cmd/built-in.o
 .text._do_env_set.constprop.0
                0x000000004160c190      0x1b4 cmd/built-in.o
 .text.do_env_set
                0x000000004160c344       0x20 cmd/built-in.o
 .text.get_env_id
                0x000000004160c364       0x10 cmd/built-in.o
                0x000000004160c364                get_env_id
 .text.env_set  0x000000004160c374       0x60 cmd/built-in.o
                0x000000004160c374                env_set
 .text.env_set_ulong
                0x000000004160c3d4       0x20 cmd/built-in.o
                0x000000004160c3d4                env_set_ulong
 .text.env_set_hex
                0x000000004160c3f4       0x34 cmd/built-in.o
                0x000000004160c3f4                env_set_hex
 .text.do_env_export
                0x000000004160c428      0x248 cmd/built-in.o
 .text.envmatch
                0x000000004160c670       0x6c cmd/built-in.o
                0x000000004160c670                envmatch
 .text.env_get_f
                0x000000004160c6dc       0xb8 cmd/built-in.o
                0x000000004160c6dc                env_get_f
 .text.env_get  0x000000004160c794       0x78 cmd/built-in.o
                0x000000004160c794                env_get
 .text.env_get_hex
                0x000000004160c80c       0x38 cmd/built-in.o
                0x000000004160c80c                env_get_hex
 .text.env_get_ulong
                0x000000004160c844       0x30 cmd/built-in.o
                0x000000004160c844                env_get_ulong
 .text.board_init_f_alloc_reserve
                0x000000004160c874       0x10 common/built-in.o
                0x000000004160c874                board_init_f_alloc_reserve
 .text.board_init_f_init_reserve
                0x000000004160c884       0x20 common/built-in.o
                0x000000004160c884                board_init_f_init_reserve
 .text.show_boot_progress
                0x000000004160c8a4        0x8 common/built-in.o
                0x000000004160c8a4                show_boot_progress
 .text.main_loop
                0x000000004160c8ac       0x48 common/built-in.o
                0x000000004160c8ac                main_loop
 .text.mdelay   0x000000004160c8f4       0x20 common/built-in.o
 .text.dummy    0x000000004160c914        0x4 common/built-in.o
 .text.get_version
                0x000000004160c918        0x8 common/built-in.o
                0x000000004160c918                get_version
 .text.jumptable_init
                0x000000004160c920      0x1e0 common/built-in.o
                0x000000004160c920                jumptable_init
 .text.hash_finish_crc32
                0x000000004160cb00       0x30 common/built-in.o
 .text.hash_update_crc32
                0x000000004160cb30       0x24 common/built-in.o
 .text.hash_init_crc32
                0x000000004160cb54       0x24 common/built-in.o
 .text.hash_show
                0x000000004160cb78       0x54 common/built-in.o
 .text.hash_lookup_algo
                0x000000004160cbcc       0x28 common/built-in.o
                0x000000004160cbcc                hash_lookup_algo
 .text.hash_parse_string
                0x000000004160cbf4       0x68 common/built-in.o
                0x000000004160cbf4                hash_parse_string
 .text.hash_command
                0x000000004160cc5c      0x2dc common/built-in.o
                0x000000004160cc5c                hash_command
 .text.bootdelay_process
                0x000000004160cf38       0xc0 common/built-in.o
                0x000000004160cf38                bootdelay_process
 .text.autoboot_command
                0x000000004160cff8       0xd8 common/built-in.o
                0x000000004160cff8                autoboot_command
 .text.display_text_info
                0x000000004160d0d0        0x8 common/built-in.o
 .text.show_dram_config
                0x000000004160d0d8       0x10 common/built-in.o
 .text.setup_mon_len
                0x000000004160d0e8       0x20 common/built-in.o
 .text.reserve_round_4k
                0x000000004160d108       0x18 common/built-in.o
 .text.reserve_mmu
                0x000000004160d120       0x38 common/built-in.o
                0x000000004160d120                reserve_mmu
 .text.reserve_uboot
                0x000000004160d158       0x30 common/built-in.o
 .text.reserve_malloc
                0x000000004160d188       0x14 common/built-in.o
 .text.reserve_global_data
                0x000000004160d19c       0x1c common/built-in.o
 .text.reserve_fdt
                0x000000004160d1b8       0x4c common/built-in.o
 .text.setup_reloc
                0x000000004160d204       0x40 common/built-in.o
 .text.reloc_fdt
                0x000000004160d244       0x44 common/built-in.o
 .text.reserve_board
                0x000000004160d288       0x40 common/built-in.o
 .text.init_baud_rate
                0x000000004160d2c8       0x2c common/built-in.o
 .text.initf_dm
                0x000000004160d2f4        0x8 common/built-in.o
 .text.initf_bootstage
                0x000000004160d2fc       0x14 common/built-in.o
 .text.arch_cpu_init_dm
                0x000000004160d310        0x8 common/built-in.o
                0x000000004160d310                arch_cpu_init_dm
 .text.mach_cpu_init
                0x000000004160d318        0x8 common/built-in.o
                0x000000004160d318                mach_cpu_init
 .text.reserve_video
                0x000000004160d320        0x8 common/built-in.o
 .text.reserve_trace
                0x000000004160d328        0x8 common/built-in.o
 .text.setup_machine
                0x000000004160d330        0x8 common/built-in.o
 .text.reserve_bootstage
                0x000000004160d338        0x8 common/built-in.o
 .text.display_new_sp
                0x000000004160d340        0x8 common/built-in.o
 .text.reloc_bootstage
                0x000000004160d348        0x8 common/built-in.o
 .text.initf_console_record
                0x000000004160d350        0x8 common/built-in.o
 .text.reserve_arch
                0x000000004160d358        0x8 common/built-in.o
                0x000000004160d358                reserve_arch
 .text.coloured_LED_init
                0x000000004160d360        0x4 common/built-in.o
                0x000000004160d360                coloured_LED_init
 .text.red_led_on
                0x000000004160d364        0x4 common/built-in.o
                0x000000004160d364                red_led_on
 .text.board_get_usable_ram_top
                0x000000004160d368       0x14 common/built-in.o
                0x000000004160d368                board_get_usable_ram_top
 .text.setup_dest_addr
                0x000000004160d37c       0x3c common/built-in.o
 .text.reserve_stacks
                0x000000004160d3b8       0x1c common/built-in.o
 .text.board_init_f
                0x000000004160d3d4       0x28 common/built-in.o
                0x000000004160d3d4                board_init_f
 .text.bootstage_relocate
                0x000000004160d3fc        0x8 common/built-in.o
 .text.initr_trace
                0x000000004160d404        0x8 common/built-in.o
 .text.initr_reloc
                0x000000004160d40c       0x18 common/built-in.o
 .text.initr_reloc_global_data
                0x000000004160d424       0x28 common/built-in.o
 .text.run_main_loop
                0x000000004160d44c        0xc common/built-in.o
 .text.initr_ethaddr
                0x000000004160d458       0x20 common/built-in.o
 .text.initr_enable_interrupts
                0x000000004160d478       0x10 common/built-in.o
 .text.initr_jumptable
                0x000000004160d488       0x10 common/built-in.o
 .text.initr_env
                0x000000004160d498       0x64 common/built-in.o
 .text.initr_mmc
                0x000000004160d4fc       0x14 common/built-in.o
 .text.initr_serial
                0x000000004160d510       0x10 common/built-in.o
 .text.initr_dm
                0x000000004160d520       0x14 common/built-in.o
 .text.initr_noncached
                0x000000004160d534       0x10 common/built-in.o
 .text.initr_bootstage
                0x000000004160d544       0x14 common/built-in.o
 .text.initr_malloc
                0x000000004160d558       0x1c common/built-in.o
 .text.initr_caches
                0x000000004160d574       0x10 common/built-in.o
 .text.initr_aes
                0x000000004160d584       0x50 common/built-in.o
 .text.initr_announce
                0x000000004160d5d4        0x8 common/built-in.o
 .text.initr_barrier
                0x000000004160d5dc        0x8 common/built-in.o
 .text.initr_console_record
                0x000000004160d5e4        0x8 common/built-in.o
 .text.power_init_board
                0x000000004160d5ec        0x8 common/built-in.o
                0x000000004160d5ec                power_init_board
 .text.cpu_secondary_init_r
                0x000000004160d5f4        0x4 common/built-in.o
                0x000000004160d5f4                cpu_secondary_init_r
 .text.initr_secondary_cpu
                0x000000004160d5f8       0x10 common/built-in.o
 .text.initr_net
                0x000000004160d608       0x10 common/built-in.o
                0x000000004160d608                initr_net
 .text.uclass_get_efuse_dev_by_driver_in_turn
                0x000000004160d618       0xa0 common/built-in.o
                0x000000004160d618                uclass_get_efuse_dev_by_driver_in_turn
 .text.initr_efuse
                0x000000004160d6b8       0x1c common/built-in.o
 .text.board_init_r
                0x000000004160d6d4       0x14 common/built-in.o
                0x000000004160d6d4                board_init_r
 .text.bootm_find_images
                0x000000004160d6e8       0xa8 common/built-in.o
                0x000000004160d6e8                bootm_find_images
 .text.bootm_decomp_image
                0x000000004160d790      0x144 common/built-in.o
                0x000000004160d790                bootm_decomp_image
 .text.bootm_disable_interrupts
                0x000000004160d8d4       0x30 common/built-in.o
                0x000000004160d8d4                bootm_disable_interrupts
 .text.do_bootm_states
                0x000000004160d904      0x738 common/built-in.o
                0x000000004160d904                do_bootm_states
 .text.copy_args
                0x000000004160e03c       0x48 common/built-in.o
 .text.do_bootm_plan9
                0x000000004160e084       0xa4 common/built-in.o
 .text.do_bootm_netbsd
                0x000000004160e128       0xf8 common/built-in.o
 .text.do_bootm_qnxelf
                0x000000004160e220       0x78 common/built-in.o
 .text.do_bootm_standalone
                0x000000004160e298       0x64 common/built-in.o
 .text.do_bootm_rtems
                0x000000004160e2fc       0x40 common/built-in.o
 .text.do_bootvx_fdt
                0x000000004160e33c      0x114 common/built-in.o
                0x000000004160e33c                do_bootvx_fdt
 .text.do_bootm_vxworks
                0x000000004160e450       0x24 common/built-in.o
 .text.arch_preboot_os
                0x000000004160e474        0x4 common/built-in.o
                0x000000004160e474                arch_preboot_os
 .text.boot_selected_os
                0x000000004160e478       0x58 common/built-in.o
                0x000000004160e478                boot_selected_os
 .text.bootm_os_get_boot_func
                0x000000004160e4d0       0x10 common/built-in.o
                0x000000004160e4d0                bootm_os_get_boot_func
 .text.of_bus_default_map
                0x000000004160e4e0       0xbc common/built-in.o
 .text.of_bus_default_translate
                0x000000004160e59c       0x98 common/built-in.o
 .text.fdt_support_default_count_cells
                0x000000004160e634       0x58 common/built-in.o
                0x000000004160e634                fdt_support_default_count_cells
 .text.fdt_find_and_setprop
                0x000000004160e68c       0x70 common/built-in.o
                0x000000004160e68c                fdt_find_and_setprop
 .text.fdt_find_or_add_subnode
                0x000000004160e6fc       0x60 common/built-in.o
                0x000000004160e6fc                fdt_find_or_add_subnode
 .text.fdt_root
                0x000000004160e75c       0x90 common/built-in.o
                0x000000004160e75c                fdt_root
 .text.fdt_initrd
                0x000000004160e7ec      0x1c4 common/built-in.o
                0x000000004160e7ec                fdt_initrd
 .text.fdt_chosen
                0x000000004160e9b0       0xb4 common/built-in.o
                0x000000004160e9b0                fdt_chosen
 .text.do_fixup_by_path
                0x000000004160ea64       0x54 common/built-in.o
                0x000000004160ea64                do_fixup_by_path
 .text.fdt_fixup_memory_banks
                0x000000004160eab8      0x1b8 common/built-in.o
                0x000000004160eab8                fdt_fixup_memory_banks
 .text.fdt_fixup_memory
                0x000000004160ec70       0x20 common/built-in.o
                0x000000004160ec70                fdt_fixup_memory
 .text.fdt_fixup_ethernet
                0x000000004160ec90      0x1ac common/built-in.o
                0x000000004160ec90                fdt_fixup_ethernet
 .text.fdt_shrink_to_minimum
                0x000000004160ee3c       0xd0 common/built-in.o
                0x000000004160ee3c                fdt_shrink_to_minimum
 .text.fdt_translate_address
                0x000000004160ef0c      0x260 common/built-in.o
                0x000000004160ef0c                fdt_translate_address
 .text.miiphy_get_dev_by_name
                0x000000004160f16c       0x54 common/built-in.o
                0x000000004160f16c                miiphy_get_dev_by_name
 .text.miiphy_init
                0x000000004160f1c0       0x24 common/built-in.o
                0x000000004160f1c0                miiphy_init
 .text.mdio_alloc
                0x000000004160f1e4       0x30 common/built-in.o
                0x000000004160f1e4                mdio_alloc
 .text.mdio_free
                0x000000004160f214        0x4 common/built-in.o
                0x000000004160f214                mdio_free
 .text.mdio_register
                0x000000004160f218       0x88 common/built-in.o
                0x000000004160f218                mdio_register
 .text.mdio_unregister
                0x000000004160f2a0       0x3c common/built-in.o
                0x000000004160f2a0                mdio_unregister
 .text.mdio_list_devices
                0x000000004160f2dc       0xb0 common/built-in.o
                0x000000004160f2dc                mdio_list_devices
 .text.miiphy_set_current_dev
                0x000000004160f38c       0x40 common/built-in.o
                0x000000004160f38c                miiphy_set_current_dev
 .text.miiphy_get_active_dev
                0x000000004160f3cc       0x50 common/built-in.o
 .text.mdio_get_current_dev
                0x000000004160f41c       0x10 common/built-in.o
                0x000000004160f41c                mdio_get_current_dev
 .text.mdio_phydev_for_ethname
                0x000000004160f42c       0x88 common/built-in.o
                0x000000004160f42c                mdio_phydev_for_ethname
 .text.miiphy_get_current_dev
                0x000000004160f4b4       0x18 common/built-in.o
                0x000000004160f4b4                miiphy_get_current_dev
 .text.miiphy_read
                0x000000004160f4cc       0x4c common/built-in.o
                0x000000004160f4cc                miiphy_read
 .text.miiphy_write
                0x000000004160f518       0x40 common/built-in.o
                0x000000004160f518                miiphy_write
 .text.miiphy_listdev
                0x000000004160f558       0x74 common/built-in.o
                0x000000004160f558                miiphy_listdev
 .text.miiphy_info
                0x000000004160f5cc       0x88 common/built-in.o
                0x000000004160f5cc                miiphy_info
 .text.miiphy_speed
                0x000000004160f654       0xc4 common/built-in.o
                0x000000004160f654                miiphy_speed
 .text.miiphy_duplex
                0x000000004160f718       0xbc common/built-in.o
                0x000000004160f718                miiphy_duplex
 .text.miiphy_is_1000base_x
                0x000000004160f7d4        0x8 common/built-in.o
                0x000000004160f7d4                miiphy_is_1000base_x
 .text.usb_set_maxpacket_ep
                0x000000004160f7dc       0x64 common/built-in.o
 .text.usb_control_msg
                0x000000004160f840       0x9c common/built-in.o
                0x000000004160f840                usb_control_msg
 .text.usb_get_descriptor
                0x000000004160f8dc       0x54 common/built-in.o
 .text.get_descriptor_len
                0x000000004160f930       0x90 common/built-in.o
 .text.usb_get_string
                0x000000004160f9c0       0x78 common/built-in.o
 .text.usb_string_sub
                0x000000004160fa38      0x100 common/built-in.o
 .text.usb_bulk_msg
                0x000000004160fb38       0x70 common/built-in.o
                0x000000004160fb38                usb_bulk_msg
 .text.usb_maxpacket
                0x000000004160fba8       0x18 common/built-in.o
                0x000000004160fba8                usb_maxpacket
 .text.usb_clear_halt
                0x000000004160fbc0       0x8c common/built-in.o
                0x000000004160fbc0                usb_clear_halt
 .text.usb_get_configuration_len
                0x000000004160fc4c       0x74 common/built-in.o
                0x000000004160fc4c                usb_get_configuration_len
 .text.usb_get_configuration_no
                0x000000004160fcc0       0x30 common/built-in.o
                0x000000004160fcc0                usb_get_configuration_no
 .text.usb_set_interface
                0x000000004160fcf0       0xb4 common/built-in.o
                0x000000004160fcf0                usb_set_interface
 .text.usb_string
                0x000000004160fda4      0x10c common/built-in.o
                0x000000004160fda4                usb_string
 .text.usb_select_config
                0x000000004160feb0      0x47c common/built-in.o
                0x000000004160feb0                usb_select_config
 .text.usb_setup_device
                0x000000004161032c      0x184 common/built-in.o
                0x000000004161032c                usb_setup_device
 .text.usb_device_has_child_on_port
                0x00000000416104b0        0x8 common/built-in.o
                0x00000000416104b0                usb_device_has_child_on_port
 .text.usb_set_port_feature
                0x00000000416104b8       0x4c common/built-in.o
 .text.usb_get_hub_descriptor
                0x0000000041610504       0x64 common/built-in.o
 .text.usb_clear_port_feature.isra.0
                0x0000000041610568       0x4c common/built-in.o
 .text.usb_hub_reset_devices
                0x00000000416105b4        0x4 common/built-in.o
                0x00000000416105b4                usb_hub_reset_devices
 .text.usb_hub_is_root_hub
                0x00000000416105b8       0x18 common/built-in.o
                0x00000000416105b8                usb_hub_is_root_hub
 .text.usb_get_port_status
                0x00000000416105d0       0xac common/built-in.o
                0x00000000416105d0                usb_get_port_status
 .text.usb_hub_port_connect_change
                0x000000004161067c      0x168 common/built-in.o
                0x000000004161067c                usb_hub_port_connect_change
 .text.usb_hub_configure
                0x00000000416107e4      0x58c common/built-in.o
 .text.usb_hub_scan
                0x0000000041610d70       0x10 common/built-in.o
                0x0000000041610d70                usb_hub_scan
 .text.usb_hub_post_probe
                0x0000000041610d80        0x4 common/built-in.o
 .text.usb_stor_irq
                0x0000000041610d84       0x1c common/built-in.o
 .text.usb_stor_BBB_reset
                0x0000000041610da0      0x108 common/built-in.o
 .text.usb_stor_CB_reset
                0x0000000041610ea8       0xe4 common/built-in.o
 .text.usb_stor_CB_comdat
                0x0000000041610f8c      0x208 common/built-in.o
 .text.usb_stor_CBI_get_status
                0x0000000041611194       0xd8 common/built-in.o
 .text.usb_stor_CB_transport
                0x000000004161126c      0x204 common/built-in.o
 .text.usb_request_sense.constprop.0.isra.0
                0x0000000041611470       0x6c common/built-in.o
 .text.usb_stor_write
                0x00000000416114dc      0x144 common/built-in.o
 .text.usb_stor_read
                0x0000000041611620      0x144 common/built-in.o
 .text.usb_stor_BBB_clear_endpt_stall.isra.0
                0x0000000041611764       0x40 common/built-in.o
 .text.usb_stor_BBB_transport
                0x00000000416117a4      0x288 common/built-in.o
 .text.usb_stor_info
                0x0000000041611a2c       0x74 common/built-in.o
                0x0000000041611a2c                usb_stor_info
 .text.usb_stor_reset
                0x0000000041611aa0       0x14 common/built-in.o
                0x0000000041611aa0                usb_stor_reset
 .text.usb_stor_scan
                0x0000000041611ab4       0x44 common/built-in.o
                0x0000000041611ab4                usb_stor_scan
 .text.usb_storage_probe
                0x0000000041611af8      0x208 common/built-in.o
                0x0000000041611af8                usb_storage_probe
 .text.usb_stor_get_info
                0x0000000041611d00      0x318 common/built-in.o
                0x0000000041611d00                usb_stor_get_info
 .text.usb_mass_storage_probe
                0x0000000041612018      0x178 common/built-in.o
 .text.menu_display_statusline
                0x0000000041612190        0x4 common/built-in.o
                0x0000000041612190                menu_display_statusline
 .text.menu_default_set
                0x0000000041612194       0x78 common/built-in.o
                0x0000000041612194                menu_default_set
 .text.menu_get_choice
                0x000000004161220c      0x1f0 common/built-in.o
                0x000000004161220c                menu_get_choice
 .text.menu_item_add
                0x00000000416123fc       0xc8 common/built-in.o
                0x00000000416123fc                menu_item_add
 .text.menu_create
                0x00000000416124c4       0x90 common/built-in.o
                0x00000000416124c4                menu_create
 .text.menu_destroy
                0x0000000041612554       0x6c common/built-in.o
                0x0000000041612554                menu_destroy
 .text.delete_char
                0x00000000416125c0       0xe0 common/built-in.o
 .text.cli_readline_into_buffer
                0x00000000416126a0      0x21c common/built-in.o
                0x00000000416126a0                cli_readline_into_buffer
 .text.cli_readline
                0x00000000416128bc       0x14 common/built-in.o
                0x00000000416128bc                cli_readline
 .text.cli_simple_parse_line
                0x00000000416128d0       0x90 common/built-in.o
                0x00000000416128d0                cli_simple_parse_line
 .text.cli_simple_process_macros
                0x0000000041612960      0x1e4 common/built-in.o
                0x0000000041612960                cli_simple_process_macros
 .text.cli_simple_run_command
                0x0000000041612b44      0x14c common/built-in.o
                0x0000000041612b44                cli_simple_run_command
 .text.cli_simple_loop
                0x0000000041612c90       0x80 common/built-in.o
                0x0000000041612c90                cli_simple_loop
 .text.cli_simple_run_command_list
                0x0000000041612d10       0x70 common/built-in.o
                0x0000000041612d10                cli_simple_run_command_list
 .text.console_setfile
                0x0000000041612d80       0xb8 common/built-in.o
 .text.putc     0x0000000041612e38       0x34 common/built-in.o
                0x0000000041612e38                putc
 .text.puts     0x0000000041612e6c       0x1c common/built-in.o
                0x0000000041612e6c                puts
 .text.fgetc    0x0000000041612e88       0x24 common/built-in.o
                0x0000000041612e88                fgetc
 .text.getc     0x0000000041612eac       0x24 common/built-in.o
                0x0000000041612eac                getc
 .text.ftstc    0x0000000041612ed0       0x24 common/built-in.o
                0x0000000041612ed0                ftstc
 .text.tstc     0x0000000041612ef4       0x24 common/built-in.o
                0x0000000041612ef4                tstc
 .text.ctrlc    0x0000000041612f18       0x60 common/built-in.o
                0x0000000041612f18                ctrlc
 .text.disable_ctrlc
                0x0000000041612f78       0x18 common/built-in.o
                0x0000000041612f78                disable_ctrlc
 .text.had_ctrlc
                0x0000000041612f90       0x10 common/built-in.o
                0x0000000041612f90                had_ctrlc
 .text.clear_ctrlc
                0x0000000041612fa0       0x14 common/built-in.o
                0x0000000041612fa0                clear_ctrlc
 .text.search_device
                0x0000000041612fb4       0x28 common/built-in.o
                0x0000000041612fb4                search_device
 .text.console_assign
                0x0000000041612fdc       0x40 common/built-in.o
                0x0000000041612fdc                console_assign
 .text.on_console
                0x000000004161301c       0xb8 common/built-in.o
 .text.console_init_f
                0x00000000416130d4       0x10 common/built-in.o
                0x00000000416130d4                console_init_f
 .text.console_init_r
                0x00000000416130e4       0xd4 common/built-in.o
                0x00000000416130e4                console_init_r
 .text.sbrk     0x00000000416131b8       0x68 common/built-in.o
                0x00000000416131b8                sbrk
 .text.mem_malloc_init
                0x0000000041613220       0x34 common/built-in.o
                0x0000000041613220                mem_malloc_init
 .text.malloc_trim
                0x0000000041613254       0xcc common/built-in.o
                0x0000000041613254                malloc_trim
 .text.free     0x0000000041613320      0x240 common/built-in.o
                0x0000000041613320                free
 .text.malloc   0x0000000041613560      0x60c common/built-in.o
                0x0000000041613560                malloc
 .text.calloc   0x0000000041613b6c      0x140 common/built-in.o
                0x0000000041613b6c                calloc
 .text.memalign
                0x0000000041613cac      0x174 common/built-in.o
                0x0000000041613cac                memalign
 .text.initf_malloc
                0x0000000041613e20       0x18 common/built-in.o
                0x0000000041613e20                initf_malloc
 .text.malloc_simple
                0x0000000041613e38       0x30 common/built-in.o
                0x0000000041613e38                malloc_simple
 .text.on_loadaddr
                0x0000000041613e68       0x34 common/built-in.o
 .text.image_check_hcrc
                0x0000000041613e9c       0x4c common/built-in.o
                0x0000000041613e9c                image_check_hcrc
 .text.image_check_dcrc
                0x0000000041613ee8       0x38 common/built-in.o
                0x0000000041613ee8                image_check_dcrc
 .text.image_multi_count
                0x0000000041613f20       0x1c common/built-in.o
                0x0000000041613f20                image_multi_count
 .text.image_multi_getimg
                0x0000000041613f3c       0x78 common/built-in.o
                0x0000000041613f3c                image_multi_getimg
 .text.env_get_bootm_low
                0x0000000041613fb4       0x30 common/built-in.o
                0x0000000041613fb4                env_get_bootm_low
 .text.env_get_bootm_size
                0x0000000041613fe4       0x68 common/built-in.o
                0x0000000041613fe4                env_get_bootm_size
 .text.env_get_bootm_mapsize
                0x000000004161404c       0x30 common/built-in.o
                0x000000004161404c                env_get_bootm_mapsize
 .text.memmove_wd
                0x000000004161407c        0xc common/built-in.o
                0x000000004161407c                memmove_wd
 .text.genimg_print_size
                0x0000000041614088       0x30 common/built-in.o
                0x0000000041614088                genimg_print_size
 .text.genimg_print_time
                0x00000000416140b8       0x48 common/built-in.o
                0x00000000416140b8                genimg_print_time
 .text.get_table_entry
                0x0000000041614100       0x24 common/built-in.o
                0x0000000041614100                get_table_entry
 .text.get_table_entry_name
                0x0000000041614124       0x20 common/built-in.o
                0x0000000041614124                get_table_entry_name
 .text.genimg_get_os_name
                0x0000000041614144       0x18 common/built-in.o
                0x0000000041614144                genimg_get_os_name
 .text.genimg_get_arch_name
                0x000000004161415c       0x18 common/built-in.o
                0x000000004161415c                genimg_get_arch_name
 .text.genimg_get_type_name
                0x0000000041614174       0x18 common/built-in.o
                0x0000000041614174                genimg_get_type_name
 .text.genimg_get_comp_name
                0x000000004161418c       0x18 common/built-in.o
                0x000000004161418c                genimg_get_comp_name
 .text.image_print_contents
                0x00000000416141a4      0x1d0 common/built-in.o
                0x00000000416141a4                image_print_contents
 .text.genimg_get_kernel_addr_fit
                0x0000000041614374       0x24 common/built-in.o
                0x0000000041614374                genimg_get_kernel_addr_fit
 .text.genimg_get_kernel_addr
                0x0000000041614398       0x24 common/built-in.o
                0x0000000041614398                genimg_get_kernel_addr
 .text.genimg_get_format
                0x00000000416143bc       0x34 common/built-in.o
                0x00000000416143bc                genimg_get_format
 .text.genimg_get_image
                0x00000000416143f0        0x4 common/built-in.o
                0x00000000416143f0                genimg_get_image
 .text.genimg_has_config
                0x00000000416143f4        0x8 common/built-in.o
                0x00000000416143f4                genimg_has_config
 .text.boot_get_ramdisk
                0x00000000416143fc      0x27c common/built-in.o
                0x00000000416143fc                boot_get_ramdisk
 .text.boot_ramdisk_high
                0x0000000041614678      0x124 common/built-in.o
                0x0000000041614678                boot_ramdisk_high
 .text.boot_get_setup
                0x000000004161479c        0x8 common/built-in.o
                0x000000004161479c                boot_get_setup
 .text.image_setup_linux
                0x00000000416147a4       0x60 common/built-in.o
                0x00000000416147a4                image_setup_linux
 .text.fdt_error
                0x0000000041614804       0x2c common/built-in.o
 .text.boot_fdt_add_mem_rsv_regions
                0x0000000041614830       0x8c common/built-in.o
                0x0000000041614830                boot_fdt_add_mem_rsv_regions
 .text.boot_relocate_fdt
                0x00000000416148bc      0x160 common/built-in.o
                0x00000000416148bc                boot_relocate_fdt
 .text.boot_get_fdt
                0x0000000041614a1c      0x26c common/built-in.o
                0x0000000041614a1c                boot_get_fdt
 .text.ft_verify_fdt
                0x0000000041614c88        0x8 common/built-in.o
                0x0000000041614c88                ft_verify_fdt
 .text.image_setup_libfdt
                0x0000000041614c90      0x110 common/built-in.o
                0x0000000041614c90                image_setup_libfdt
 .text.get_ram_size
                0x0000000041614da0        0x8 common/built-in.o
                0x0000000041614da0                get_ram_size
 .text.get_effective_memsize
                0x0000000041614da8        0x8 common/built-in.o
                0x0000000041614da8                get_effective_memsize
 .text.stdio_serial_tstc
                0x0000000041614db0        0x4 common/built-in.o
 .text.stdio_serial_getc
                0x0000000041614db4        0x4 common/built-in.o
 .text.stdio_serial_puts
                0x0000000041614db8        0x8 common/built-in.o
 .text.stdio_serial_putc
                0x0000000041614dc0        0x8 common/built-in.o
 .text.stdio_get_list
                0x0000000041614dc8        0xc common/built-in.o
                0x0000000041614dc8                stdio_get_list
 .text.stdio_get_by_name
                0x0000000041614dd4       0x4c common/built-in.o
                0x0000000041614dd4                stdio_get_by_name
 .text.stdio_clone
                0x0000000041614e20       0x38 common/built-in.o
                0x0000000041614e20                stdio_clone
 .text.stdio_register_dev
                0x0000000041614e58       0x50 common/built-in.o
                0x0000000041614e58                stdio_register_dev
 .text.stdio_register
                0x0000000041614ea8        0x8 common/built-in.o
                0x0000000041614ea8                stdio_register
 .text.stdio_init_tables
                0x0000000041614eb0       0x1c common/built-in.o
                0x0000000041614eb0                stdio_init_tables
 .text.stdio_add_devices
                0x0000000041614ecc       0x7c common/built-in.o
                0x0000000041614ecc                stdio_add_devices
 .text.run_command
                0x0000000041614f48       0x18 common/built-in.o
                0x0000000041614f48                run_command
 .text.run_command_repeatable
                0x0000000041614f60        0x4 common/built-in.o
                0x0000000041614f60                run_command_repeatable
 .text.run_command_list
                0x0000000041614f64       0x94 common/built-in.o
                0x0000000041614f64                run_command_list
 .text.do_run   0x0000000041614ff8       0x74 common/built-in.o
                0x0000000041614ff8                do_run
 .text.cli_process_fdt
                0x000000004161506c       0x40 common/built-in.o
                0x000000004161506c                cli_process_fdt
 .text.cli_secure_boot_cmd
                0x00000000416150ac       0x78 common/built-in.o
                0x00000000416150ac                cli_secure_boot_cmd
 .text.cli_loop
                0x0000000041615124        0x4 common/built-in.o
                0x0000000041615124                cli_loop
 .text.cli_init
                0x0000000041615128        0x4 common/built-in.o
                0x0000000041615128                cli_init
 .text.find_cmd_tbl
                0x000000004161512c       0xa4 common/built-in.o
                0x000000004161512c                find_cmd_tbl
 .text.find_cmd
                0x00000000416151d0       0x28 common/built-in.o
                0x00000000416151d0                find_cmd
 .text.cmd_usage
                0x00000000416151f8       0x5c common/built-in.o
                0x00000000416151f8                cmd_usage
 .text._do_help
                0x0000000041615254      0x188 common/built-in.o
                0x0000000041615254                _do_help
 .text.var_complete
                0x00000000416153dc       0x8c common/built-in.o
                0x00000000416153dc                var_complete
 .text.cmd_auto_complete
                0x0000000041615468      0x498 common/built-in.o
                0x0000000041615468                cmd_auto_complete
 .text.cmd_get_data_size
                0x0000000041615900       0x50 common/built-in.o
                0x0000000041615900                cmd_get_data_size
 .text.cmd_process
                0x0000000041615950       0xbc common/built-in.o
                0x0000000041615950                cmd_process
 .text.cmd_process_error
                0x0000000041615a0c       0x30 common/built-in.o
                0x0000000041615a0c                cmd_process_error
 .text.readl    0x0000000041615a3c        0x8 common/built-in.o
                0x0000000041615a3c                readl
 .text.writel   0x0000000041615a44        0x8 common/built-in.o
                0x0000000041615a44                writel
 .text.writelr  0x0000000041615a4c       0x30 common/built-in.o
                0x0000000041615a4c                writelr
 .text.set_global
                0x0000000041615a7c       0x48 common/built-in.o
                0x0000000041615a7c                set_global
 .text.set_display_format
                0x0000000041615ac4       0x5c common/built-in.o
                0x0000000041615ac4                set_display_format
 .text.set_tve_sync_info
                0x0000000041615b20       0x64 common/built-in.o
                0x0000000041615b20                set_tve_sync_info
 .text.set_intf_common_para
                0x0000000041615b84       0xc4 common/built-in.o
                0x0000000041615b84                set_intf_common_para
 .text.set_display_info
                0x0000000041615c48       0x84 common/built-in.o
                0x0000000041615c48                set_display_info
 .text.set_chn_minor_cfg
                0x0000000041615ccc       0x44 common/built-in.o
                0x0000000041615ccc                set_chn_minor_cfg
 .text.set_active_info
                0x0000000041615d10       0x2c common/built-in.o
                0x0000000041615d10                set_active_info
 .text.set_blank_info
                0x0000000041615d3c       0x70 common/built-in.o
                0x0000000041615d3c                set_blank_info
 .text.set_y2r_matrix
                0x0000000041615dac       0xa8 common/built-in.o
                0x0000000041615dac                set_y2r_matrix
 .text.set_bg_info
                0x0000000041615e54       0x20 common/built-in.o
                0x0000000041615e54                set_bg_info
 .text.set_chn_cfg
                0x0000000041615e74       0x18 common/built-in.o
                0x0000000041615e74                set_chn_cfg
 .text.set_img_layer_cfg
                0x0000000041615e8c       0x20 common/built-in.o
                0x0000000041615e8c                set_img_layer_cfg
 .text.set_irq_mask
                0x0000000041615eac       0x1c common/built-in.o
                0x0000000041615eac                set_irq_mask
 .text.set_work_ctrl
                0x0000000041615ec8       0x3c common/built-in.o
                0x0000000041615ec8                set_work_ctrl
 .text.set_image_block
                0x0000000041615f04      0x124 common/built-in.o
                0x0000000041615f04                set_image_block
 .text.lcm_config
                0x0000000041616028       0x54 common/built-in.o
                0x0000000041616028                lcm_config
 .text.vou_dev_kickoff
                0x000000004161607c      0x104 common/built-in.o
                0x000000004161607c                vou_dev_kickoff
 .text.JPEG_WaitIRQ
                0x0000000041616180       0x5c common/built-in.o
                0x0000000041616180                JPEG_WaitIRQ
 .text.hw_jpeg_dec
                0x00000000416161dc      0x118 common/built-in.o
                0x00000000416161dc                hw_jpeg_dec
 .text.fast_osd
                0x00000000416162f4      0x23c common/built-in.o
                0x00000000416162f4                fast_osd
 .text.boot_logo
                0x0000000041616530       0x68 common/built-in.o
                0x0000000041616530                boot_logo
 .text.show_boot_logo
                0x0000000041616598       0x10 common/built-in.o
                0x0000000041616598                show_boot_logo
 .text.get_lcm_cfg_tab
                0x00000000416165a8       0x10 common/built-in.o
                0x00000000416165a8                get_lcm_cfg_tab
 .text._lcm_mcu_st7796s_PowerOff
                0x00000000416165b8       0x98 common/built-in.o
 .text._lcm_mcu_st7796s_deinit
                0x0000000041616650       0x8c common/built-in.o
 .text._lcm_mcu_st7796s_resume
                0x00000000416166dc       0x64 common/built-in.o
 .text._lcm_mcu_st7796s_suspend
                0x0000000041616740       0x64 common/built-in.o
 .text._lcm_mcu_st7796s_identify
                0x00000000416167a4       0x64 common/built-in.o
 .text._lcm_mcu_st7796s_PowerOn
                0x0000000041616808       0x74 common/built-in.o
 .text.lcm_mcu_st7796s_clear
                0x000000004161687c      0x114 common/built-in.o
                0x000000004161687c                lcm_mcu_st7796s_clear
 .text._lcm_mcu_st7796s_init
                0x0000000041616990       0xe0 common/built-in.o
 .text._lcm_mcu16_st7796s_PowerOff
                0x0000000041616a70       0x98 common/built-in.o
 .text._lcm_mcu16_st7796s_deinit
                0x0000000041616b08       0x8c common/built-in.o
 .text._lcm_mcu16_st7796s_resume
                0x0000000041616b94       0x64 common/built-in.o
 .text._lcm_mcu16_st7796s_suspend
                0x0000000041616bf8       0x64 common/built-in.o
 .text._lcm_mcu16_st7796s_identify
                0x0000000041616c5c       0x64 common/built-in.o
 .text._lcm_mcu16_st7796s_PowerOn
                0x0000000041616cc0       0x74 common/built-in.o
 .text.lcm_mcu16_st7796s_clear
                0x0000000041616d34      0x114 common/built-in.o
                0x0000000041616d34                lcm_mcu16_st7796s_clear
 .text._lcm_mcu16_st7796s_init
                0x0000000041616e48       0xe0 common/built-in.o
 .text._lcm_rgb_at070tn94_power_off
                0x0000000041616f28       0x98 common/built-in.o
 .text._lcm_rgb_at070tn94_resume
                0x0000000041616fc0       0x64 common/built-in.o
 .text._lcm_rgb_at070tn94_suspend
                0x0000000041617024       0x64 common/built-in.o
 .text._lcm_rgb_at070tn94_init
                0x0000000041617088       0x64 common/built-in.o
 .text._lcm_rgb_at070tn94_identify
                0x00000000416170ec       0x64 common/built-in.o
 .text._lcm_rgb_at070tn94_deinit
                0x0000000041617150       0x64 common/built-in.o
 .text._lcm_rgb_at070tn94_power_on
                0x00000000416171b4       0x74 common/built-in.o
 .text._lcm_rgb18_at070tn94_power_off
                0x0000000041617228       0x98 common/built-in.o
 .text._lcm_rgb18_at070tn94_resume
                0x00000000416172c0       0x64 common/built-in.o
 .text._lcm_rgb18_at070tn94_suspend
                0x0000000041617324       0x64 common/built-in.o
 .text._lcm_rgb18_at070tn94_init
                0x0000000041617388       0x64 common/built-in.o
 .text._lcm_rgb18_at070tn94_identify
                0x00000000416173ec       0x64 common/built-in.o
 .text._lcm_rgb18_at070tn94_deinit
                0x0000000041617450       0x64 common/built-in.o
 .text._lcm_rgb18_at070tn94_power_on
                0x00000000416174b4       0x74 common/built-in.o
 .text._lcm_mipi_ek79007_PowerOff
                0x0000000041617528       0x1c common/built-in.o
 .text._lcm_mipi_ek79007_PowerOn
                0x0000000041617544       0x1c common/built-in.o
 .text._lcm_mipi_ek79007_init
                0x0000000041617560       0x40 common/built-in.o
 .text._lcm_mipi_ek79007_suspend
                0x00000000416175a0        0x8 common/built-in.o
 .text._lcm_mipi_ek79007_deinit
                0x00000000416175a8        0x4 common/built-in.o
 .text._lcm_mipi_ek79007_identify
                0x00000000416175ac       0x64 common/built-in.o
 .text._lcm_mipi_ek79007_resume
                0x0000000041617610        0x8 common/built-in.o
 .text._lcm_mipi_st7701s_PowerOn
                0x0000000041617618       0x1c common/built-in.o
 .text._lcm_mipi_st7701s_PowerOff
                0x0000000041617634       0x44 common/built-in.o
 .text._lcm_mipi_st7701s_init
                0x0000000041617678       0x58 common/built-in.o
 .text._lcm_mipi_st7701s_suspend
                0x00000000416176d0       0x10 common/built-in.o
 .text._lcm_mipi_st7701s_resume
                0x00000000416176e0       0x10 common/built-in.o
 .text._lcm_mipi_st7701s_deinit
                0x00000000416176f0       0x2c common/built-in.o
 .text._lcm_mipi_st7701s_identify
                0x000000004161771c       0x64 common/built-in.o
 .text.regRead32
                0x0000000041617780       0x38 common/built-in.o
                0x0000000041617780                regRead32
 .text.regWrite32
                0x00000000416177b8       0x2c common/built-in.o
                0x00000000416177b8                regWrite32
 .text.regWriteBits32
                0x00000000416177e4       0x58 common/built-in.o
                0x00000000416177e4                regWriteBits32
 .text.reg_log_enable
                0x000000004161783c       0x10 common/built-in.o
                0x000000004161783c                reg_log_enable
 .text.getRegValuePtr
                0x000000004161784c       0x80 common/built-in.o
                0x000000004161784c                getRegValuePtr
 .text.getRegPtr
                0x00000000416178cc       0x90 common/built-in.o
                0x00000000416178cc                getRegPtr
 .text._get_lcm_pin_ptr
                0x000000004161795c       0x70 common/built-in.o
 .text.lcm_bus_pin_cfg
                0x00000000416179cc       0xd4 common/built-in.o
                0x00000000416179cc                lcm_bus_pin_cfg
 .text.lcm_bus_pin_default_cfg
                0x0000000041617aa0       0x74 common/built-in.o
                0x0000000041617aa0                lcm_bus_pin_default_cfg
 .text.lcm_dvdd_set
                0x0000000041617b14        0x8 common/built-in.o
                0x0000000041617b14                lcm_dvdd_set
 .text.lcm_avdd_set
                0x0000000041617b1c        0x8 common/built-in.o
                0x0000000041617b1c                lcm_avdd_set
 .text.lcm_iovdd_set
                0x0000000041617b24        0x8 common/built-in.o
                0x0000000041617b24                lcm_iovdd_set
 .text.lcm_vcom_set
                0x0000000041617b2c        0x8 common/built-in.o
                0x0000000041617b2c                lcm_vcom_set
 .text.lcm_vgh_set
                0x0000000041617b34        0x8 common/built-in.o
                0x0000000041617b34                lcm_vgh_set
 .text.lcm_vgl_set
                0x0000000041617b3c        0x8 common/built-in.o
                0x0000000041617b3c                lcm_vgl_set
 .text.lcm_reset_set
                0x0000000041617b44        0x8 common/built-in.o
                0x0000000041617b44                lcm_reset_set
 .text.lcm_standby_set
                0x0000000041617b4c        0x8 common/built-in.o
                0x0000000041617b4c                lcm_standby_set
 .text.lcm_back_light_gpio_set
                0x0000000041617b54        0x8 common/built-in.o
                0x0000000041617b54                lcm_back_light_gpio_set
 .text.lcm_back_light_pwm_set
                0x0000000041617b5c        0x8 common/built-in.o
                0x0000000041617b5c                lcm_back_light_pwm_set
 .text.lcm_power_pwm_set
                0x0000000041617b64        0x8 common/built-in.o
                0x0000000041617b64                lcm_power_pwm_set
 .text.vou_clk_calc
                0x0000000041617b6c       0xe4 common/built-in.o
                0x0000000041617b6c                vou_clk_calc
 .text.vou_clk_on
                0x0000000041617c50       0x3c common/built-in.o
                0x0000000041617c50                vou_clk_on
 .text.vou_reset
                0x0000000041617c8c       0x50 common/built-in.o
                0x0000000041617c8c                vou_reset
 .text.vou_clk_off
                0x0000000041617cdc       0x48 common/built-in.o
                0x0000000041617cdc                vou_clk_off
 .text.dsi_host_clk_on
                0x0000000041617d24       0x24 common/built-in.o
                0x0000000041617d24                dsi_host_clk_on
 .text.dsi_host_reset
                0x0000000041617d48       0x50 common/built-in.o
                0x0000000041617d48                dsi_host_reset
 .text.dsi_host_clk_off
                0x0000000041617d98       0x24 common/built-in.o
                0x0000000041617d98                dsi_host_clk_off
 .text.dsi_phy_clk_on
                0x0000000041617dbc       0x24 common/built-in.o
                0x0000000041617dbc                dsi_phy_clk_on
 .text.dsi_phy_reset
                0x0000000041617de0       0x50 common/built-in.o
                0x0000000041617de0                dsi_phy_reset
 .text.dsi_phy_clk_off
                0x0000000041617e30       0x24 common/built-in.o
                0x0000000041617e30                dsi_phy_clk_off
 .text.lcm_clk_off
                0x0000000041617e54       0x80 common/built-in.o
                0x0000000041617e54                lcm_clk_off
 .text.lcm_clk_on
                0x0000000041617ed4       0x80 common/built-in.o
                0x0000000041617ed4                lcm_clk_on
 .text.vou_dhd_clk_on
                0x0000000041617f54       0x48 common/built-in.o
                0x0000000041617f54                vou_dhd_clk_on
 .text.vou_dhd_out_mode
                0x0000000041617f9c       0x40 common/built-in.o
                0x0000000041617f9c                vou_dhd_out_mode
 .text.vou_dhd_force_update
                0x0000000041617fdc       0x2c common/built-in.o
                0x0000000041617fdc                vou_dhd_force_update
 .text.vou_lcd_src_sel
                0x0000000041618008       0x2c common/built-in.o
                0x0000000041618008                vou_lcd_src_sel
 .text.vou_dhd_src_sel
                0x0000000041618034       0x48 common/built-in.o
                0x0000000041618034                vou_dhd_src_sel
 .text._lcmMcuApiCheckHandle
                0x000000004161807c       0x6c common/built-in.o
                0x000000004161807c                _lcmMcuApiCheckHandle
 .text._lcmMcuApiGetValidHandle
                0x00000000416180e8       0x38 common/built-in.o
                0x00000000416180e8                _lcmMcuApiGetValidHandle
 .text._lcmMcuApiCheckStatus
                0x0000000041618120       0x60 common/built-in.o
                0x0000000041618120                _lcmMcuApiCheckStatus
 .text._lcmMcuApiCheckCmdDone
                0x0000000041618180       0x60 common/built-in.o
                0x0000000041618180                _lcmMcuApiCheckCmdDone
 .text._lcmMcuApiSetStatus
                0x00000000416181e0       0x84 common/built-in.o
                0x00000000416181e0                _lcmMcuApiSetStatus
 .text._lcmMcuApiSetTiming
                0x0000000041618264       0x8c common/built-in.o
                0x0000000041618264                _lcmMcuApiSetTiming
 .text._lcmMcuApiSetIf
                0x00000000416182f0       0x74 common/built-in.o
                0x00000000416182f0                _lcmMcuApiSetIf
 .text._lcmMcuApiSetFormat
                0x0000000041618364       0x5c common/built-in.o
                0x0000000041618364                _lcmMcuApiSetFormat
 .text._lcmMcuApiSetTeType
                0x00000000416183c0       0x5c common/built-in.o
                0x00000000416183c0                _lcmMcuApiSetTeType
 .text._lcmMcuApiMapParamCfg
                0x000000004161841c       0x58 common/built-in.o
                0x000000004161841c                _lcmMcuApiMapParamCfg
 .text._lcmMcuApiHandleInit
                0x0000000041618474      0x2ec common/built-in.o
                0x0000000041618474                _lcmMcuApiHandleInit
 .text.lcmMcuApiInit
                0x0000000041618760      0x1e8 common/built-in.o
                0x0000000041618760                lcmMcuApiInit
 .text.lcmMcuApiDeInit
                0x0000000041618948       0xb4 common/built-in.o
                0x0000000041618948                lcmMcuApiDeInit
 .text.lcmMcuApiWriteCmd
                0x00000000416189fc       0xf4 common/built-in.o
                0x00000000416189fc                lcmMcuApiWriteCmd
 .text.lcmMcuApiWriteData
                0x0000000041618af0       0xe8 common/built-in.o
                0x0000000041618af0                lcmMcuApiWriteData
 .text.lcmMcuApiWriteBurstData
                0x0000000041618bd8      0x114 common/built-in.o
                0x0000000041618bd8                lcmMcuApiWriteBurstData
 .text.lcmMcuApiReadRegData
                0x0000000041618cec      0x154 common/built-in.o
                0x0000000041618cec                lcmMcuApiReadRegData
 .text.lcmMcuApiPushTable
                0x0000000041618e40      0x128 common/built-in.o
                0x0000000041618e40                lcmMcuApiPushTable
 .text.lcmMcuApiSwitchShow
                0x0000000041618f68       0x70 common/built-in.o
                0x0000000041618f68                lcmMcuApiSwitchShow
 .text._lcmMcuDrvGetRegList
                0x0000000041618fd8       0x2c common/built-in.o
                0x0000000041618fd8                _lcmMcuDrvGetRegList
 .text._lcmGetRegDefault
                0x0000000041619004       0x3c common/built-in.o
                0x0000000041619004                _lcmGetRegDefault
 .text.lcmGetRegDefault
                0x0000000041619040      0x1b4 common/built-in.o
                0x0000000041619040                lcmGetRegDefault
 .text.lcmSetMcuBitDepth
                0x00000000416191f4       0x74 common/built-in.o
                0x00000000416191f4                lcmSetMcuBitDepth
 .text.lcmSetMcuRgbOrder
                0x0000000041619268       0x74 common/built-in.o
                0x0000000041619268                lcmSetMcuRgbOrder
 .text.lcmSetMcuMode
                0x00000000416192dc       0x74 common/built-in.o
                0x00000000416192dc                lcmSetMcuMode
 .text.lcmSetMcuTeEnable
                0x0000000041619350       0x74 common/built-in.o
                0x0000000041619350                lcmSetMcuTeEnable
 .text.lcmSetMcuTeEdge
                0x00000000416193c4       0x74 common/built-in.o
                0x00000000416193c4                lcmSetMcuTeEdge
 .text.lcmSetMcuIfType
                0x0000000041619438       0x74 common/built-in.o
                0x0000000041619438                lcmSetMcuIfType
 .text.lcmSetRgbIfType
                0x00000000416194ac       0x74 common/built-in.o
                0x00000000416194ac                lcmSetRgbIfType
 .text.lcmSetCsType
                0x0000000041619520       0x74 common/built-in.o
                0x0000000041619520                lcmSetCsType
 .text.lcmSetTeType
                0x0000000041619594       0x74 common/built-in.o
                0x0000000041619594                lcmSetTeType
 .text.lcmSetSendEndain
                0x0000000041619608       0x74 common/built-in.o
                0x0000000041619608                lcmSetSendEndain
 .text.lcmSetTrans3
                0x000000004161967c       0x74 common/built-in.o
                0x000000004161967c                lcmSetTrans3
 .text.lcmSetBitMap
                0x00000000416196f0      0x3bc common/built-in.o
                0x00000000416196f0                lcmSetBitMap
 .text.lcmSetTimingWrSetup
                0x0000000041619aac       0x74 common/built-in.o
                0x0000000041619aac                lcmSetTimingWrSetup
 .text.lcmSetTimingWrHold
                0x0000000041619b20       0x74 common/built-in.o
                0x0000000041619b20                lcmSetTimingWrHold
 .text.lcmSetTimingWrDestory
                0x0000000041619b94       0x74 common/built-in.o
                0x0000000041619b94                lcmSetTimingWrDestory
 .text.lcmSetTimingRdSetup
                0x0000000041619c08       0x74 common/built-in.o
                0x0000000041619c08                lcmSetTimingRdSetup
 .text.lcmSetTimingRdHold
                0x0000000041619c7c       0x74 common/built-in.o
                0x0000000041619c7c                lcmSetTimingRdHold
 .text.lcmSetTimingRdDestory
                0x0000000041619cf0       0x74 common/built-in.o
                0x0000000041619cf0                lcmSetTimingRdDestory
 .text.lcmSetStatusSwitchTrigger
                0x0000000041619d64       0x7c common/built-in.o
                0x0000000041619d64                lcmSetStatusSwitchTrigger
 .text.lcmSetStageStatus
                0x0000000041619de0       0x74 common/built-in.o
                0x0000000041619de0                lcmSetStageStatus
 .text.lcmGetStageStatus
                0x0000000041619e54       0x68 common/built-in.o
                0x0000000041619e54                lcmGetStageStatus
 .text.lcmClearCmdStatus
                0x0000000041619ebc       0x78 common/built-in.o
                0x0000000041619ebc                lcmClearCmdStatus
 .text.lcmGetCmdStatus
                0x0000000041619f34       0x84 common/built-in.o
                0x0000000041619f34                lcmGetCmdStatus
 .text.lcmSetCmdRun
                0x0000000041619fb8       0x7c common/built-in.o
                0x0000000041619fb8                lcmSetCmdRun
 .text.lcmSetCmdRW
                0x000000004161a034       0x74 common/built-in.o
                0x000000004161a034                lcmSetCmdRW
 .text.lcmSetCmdDummyNum
                0x000000004161a0a8       0x74 common/built-in.o
                0x000000004161a0a8                lcmSetCmdDummyNum
 .text.lcmSetCmdDataNum
                0x000000004161a11c       0x74 common/built-in.o
                0x000000004161a11c                lcmSetCmdDataNum
 .text.lcmSetCmdAddrNum
                0x000000004161a190       0x74 common/built-in.o
                0x000000004161a190                lcmSetCmdAddrNum
 .text.lcmSetWData
                0x000000004161a204       0x54 common/built-in.o
                0x000000004161a204                lcmSetWData
 .text.lcmGetRData
                0x000000004161a258       0x54 common/built-in.o
                0x000000004161a258                lcmGetRData
 .text.lcmSetWCmd
                0x000000004161a2ac       0x54 common/built-in.o
                0x000000004161a2ac                lcmSetWCmd
 .text.rgb_init
                0x000000004161a300      0x428 common/built-in.o
                0x000000004161a300                rgb_init
 .text.rgb_deinit
                0x000000004161a728      0x104 common/built-in.o
                0x000000004161a728                rgb_deinit
 .text.dsi_generic_write
                0x000000004161a82c       0x30 common/built-in.o
                0x000000004161a82c                dsi_generic_write
 .text.dsi_dcs_write
                0x000000004161a85c       0x30 common/built-in.o
                0x000000004161a85c                dsi_dcs_write
 .text.dsi_dcs_read
                0x000000004161a88c       0x3c common/built-in.o
                0x000000004161a88c                dsi_dcs_read
 .text.dsi_push_table
                0x000000004161a8c8       0xb0 common/built-in.o
                0x000000004161a8c8                dsi_push_table
 .text.dsi_init
                0x000000004161a978      0x420 common/built-in.o
                0x000000004161a978                dsi_init
 .text.dsi_deinit
                0x000000004161ad98      0x238 common/built-in.o
                0x000000004161ad98                dsi_deinit
 .text.dsi_lp_mode
                0x000000004161afd0       0x40 common/built-in.o
                0x000000004161afd0                dsi_lp_mode
 .text.dsi_hs_mode
                0x000000004161b010       0x40 common/built-in.o
                0x000000004161b010                dsi_hs_mode
 .text.get_phy_work_mode
                0x000000004161b050       0x4c common/built-in.o
                0x000000004161b050                get_phy_work_mode
 .text.dsi_host_set_power_up
                0x000000004161b09c       0x3c common/built-in.o
                0x000000004161b09c                dsi_host_set_power_up
 .text.dsi_host_set_tx_esc_clk_division
                0x000000004161b0d8       0x40 common/built-in.o
                0x000000004161b0d8                dsi_host_set_tx_esc_clk_division
 .text.dsi_host_set_to_clk_division
                0x000000004161b118       0x40 common/built-in.o
                0x000000004161b118                dsi_host_set_to_clk_division
 .text.dsi_host_set_dpi_vcid
                0x000000004161b158       0x3c common/built-in.o
                0x000000004161b158                dsi_host_set_dpi_vcid
 .text.dsi_host_set_dpi_color_format
                0x000000004161b194       0x3c common/built-in.o
                0x000000004161b194                dsi_host_set_dpi_color_format
 .text.dsi_host_set_dpi_vsync_pol
                0x000000004161b1d0       0x3c common/built-in.o
                0x000000004161b1d0                dsi_host_set_dpi_vsync_pol
 .text.dsi_host_set_dpi_hsync_pol
                0x000000004161b20c       0x3c common/built-in.o
                0x000000004161b20c                dsi_host_set_dpi_hsync_pol
 .text.dsi_host_set_invact_lpcmd_time
                0x000000004161b248       0x40 common/built-in.o
                0x000000004161b248                dsi_host_set_invact_lpcmd_time
 .text.dsi_host_set_outvact_lpcmd_time
                0x000000004161b288       0x40 common/built-in.o
                0x000000004161b288                dsi_host_set_outvact_lpcmd_time
 .text.dsi_host_set_dbi_vcid
                0x000000004161b2c8       0x3c common/built-in.o
                0x000000004161b2c8                dsi_host_set_dbi_vcid
 .text.dsi_host_set_in_dbi_conf
                0x000000004161b304       0x3c common/built-in.o
                0x000000004161b304                dsi_host_set_in_dbi_conf
 .text.dsi_host_set_lut_size_conf
                0x000000004161b340       0x3c common/built-in.o
                0x000000004161b340                dsi_host_set_lut_size_conf
 .text.dsi_host_set_partitioning
                0x000000004161b37c       0x3c common/built-in.o
                0x000000004161b37c                dsi_host_set_partitioning
 .text.dsi_host_set_dbi_wr_cmd_size
                0x000000004161b3b8       0x40 common/built-in.o
                0x000000004161b3b8                dsi_host_set_dbi_wr_cmd_size
 .text.dsi_host_set_dbi_allowed_cmd_size
                0x000000004161b3f8       0x3c common/built-in.o
                0x000000004161b3f8                dsi_host_set_dbi_allowed_cmd_size
 .text.dsi_host_set_pckhdl_eotp_tx_en
                0x000000004161b434       0x3c common/built-in.o
                0x000000004161b434                dsi_host_set_pckhdl_eotp_tx_en
 .text.dsi_host_set_pckhdl_eotp_rx_en
                0x000000004161b470       0x3c common/built-in.o
                0x000000004161b470                dsi_host_set_pckhdl_eotp_rx_en
 .text.dsi_host_set_pckhdl_bta_en
                0x000000004161b4ac       0x3c common/built-in.o
                0x000000004161b4ac                dsi_host_set_pckhdl_bta_en
 .text.dsi_host_set_pckhdl_ecc_rx_en
                0x000000004161b4e8       0x3c common/built-in.o
                0x000000004161b4e8                dsi_host_set_pckhdl_ecc_rx_en
 .text.dsi_host_set_pckhdl_crc_rx_en
                0x000000004161b524       0x3c common/built-in.o
                0x000000004161b524                dsi_host_set_pckhdl_crc_rx_en
 .text.dsi_host_set_gen_vcid_rx
                0x000000004161b560       0x3c common/built-in.o
                0x000000004161b560                dsi_host_set_gen_vcid_rx
 .text.dsi_host_set_cmd_video_mode
                0x000000004161b59c       0x3c common/built-in.o
                0x000000004161b59c                dsi_host_set_cmd_video_mode
 .text.dsi_host_set_vid_mode_type
                0x000000004161b5d8       0x3c common/built-in.o
                0x000000004161b5d8                dsi_host_set_vid_mode_type
 .text.dsi_host_set_vid_lp_vsa_en
                0x000000004161b614       0x3c common/built-in.o
                0x000000004161b614                dsi_host_set_vid_lp_vsa_en
 .text.dsi_host_set_vid_lp_vbp_en
                0x000000004161b650       0x3c common/built-in.o
                0x000000004161b650                dsi_host_set_vid_lp_vbp_en
 .text.dsi_host_set_vid_lp_vfp_en
                0x000000004161b68c       0x3c common/built-in.o
                0x000000004161b68c                dsi_host_set_vid_lp_vfp_en
 .text.dsi_host_set_vid_lp_vact_en
                0x000000004161b6c8       0x3c common/built-in.o
                0x000000004161b6c8                dsi_host_set_vid_lp_vact_en
 .text.dsi_host_set_vid_lp_hbp_en
                0x000000004161b704       0x3c common/built-in.o
                0x000000004161b704                dsi_host_set_vid_lp_hbp_en
 .text.dsi_host_set_vid_lp_hfp_en
                0x000000004161b740       0x3c common/built-in.o
                0x000000004161b740                dsi_host_set_vid_lp_hfp_en
 .text.dsi_host_set_vid_pkt_size
                0x000000004161b77c       0x3c common/built-in.o
                0x000000004161b77c                dsi_host_set_vid_pkt_size
 .text.dsi_host_set_vid_num_chunks
                0x000000004161b7b8       0x3c common/built-in.o
                0x000000004161b7b8                dsi_host_set_vid_num_chunks
 .text.dsi_host_set_vid_null_size
                0x000000004161b7f4       0x3c common/built-in.o
                0x000000004161b7f4                dsi_host_set_vid_null_size
 .text.dsi_host_set_vid_hsa_time
                0x000000004161b830       0x3c common/built-in.o
                0x000000004161b830                dsi_host_set_vid_hsa_time
 .text.dsi_host_set_vid_hbp_time
                0x000000004161b86c       0x3c common/built-in.o
                0x000000004161b86c                dsi_host_set_vid_hbp_time
 .text.dsi_host_set_vid_hline_time
                0x000000004161b8a8       0x3c common/built-in.o
                0x000000004161b8a8                dsi_host_set_vid_hline_time
 .text.dsi_host_set_vid_vsa_lines
                0x000000004161b8e4       0x3c common/built-in.o
                0x000000004161b8e4                dsi_host_set_vid_vsa_lines
 .text.dsi_host_set_vid_vbp_lines
                0x000000004161b920       0x3c common/built-in.o
                0x000000004161b920                dsi_host_set_vid_vbp_lines
 .text.dsi_host_set_vid_vfp_lines
                0x000000004161b95c       0x3c common/built-in.o
                0x000000004161b95c                dsi_host_set_vid_vfp_lines
 .text.dsi_host_set_vid_vactive_line
                0x000000004161b998       0x3c common/built-in.o
                0x000000004161b998                dsi_host_set_vid_vactive_line
 .text.dsi_host_set_edpi_allowed_cmd_size
                0x000000004161b9d4       0x40 common/built-in.o
                0x000000004161b9d4                dsi_host_set_edpi_allowed_cmd_size
 .text.dsi_host_set_tear_fx_en
                0x000000004161ba14       0x3c common/built-in.o
                0x000000004161ba14                dsi_host_set_tear_fx_en
 .text.dsi_host_set_ack_rqst_en
                0x000000004161ba50       0x3c common/built-in.o
                0x000000004161ba50                dsi_host_set_ack_rqst_en
 .text.dsi_host_set_gen_sw_0p_tx
                0x000000004161ba8c       0x3c common/built-in.o
                0x000000004161ba8c                dsi_host_set_gen_sw_0p_tx
 .text.dsi_host_set_gen_sw_1p_tx
                0x000000004161bac8       0x3c common/built-in.o
                0x000000004161bac8                dsi_host_set_gen_sw_1p_tx
 .text.dsi_host_set_gen_sw_2p_tx
                0x000000004161bb04       0x3c common/built-in.o
                0x000000004161bb04                dsi_host_set_gen_sw_2p_tx
 .text.dsi_host_set_gen_sr_0p_tx
                0x000000004161bb40       0x3c common/built-in.o
                0x000000004161bb40                dsi_host_set_gen_sr_0p_tx
 .text.dsi_host_set_gen_sr_1p_tx
                0x000000004161bb7c       0x3c common/built-in.o
                0x000000004161bb7c                dsi_host_set_gen_sr_1p_tx
 .text.dsi_host_set_gen_sr_2p_tx
                0x000000004161bbb8       0x3c common/built-in.o
                0x000000004161bbb8                dsi_host_set_gen_sr_2p_tx
 .text.dsi_host_set_gen_lw_tx
                0x000000004161bbf4       0x3c common/built-in.o
                0x000000004161bbf4                dsi_host_set_gen_lw_tx
 .text.dsi_host_set_dcs_sw_0p_tx
                0x000000004161bc30       0x3c common/built-in.o
                0x000000004161bc30                dsi_host_set_dcs_sw_0p_tx
 .text.dsi_host_set_dcs_sw_1p_tx
                0x000000004161bc6c       0x3c common/built-in.o
                0x000000004161bc6c                dsi_host_set_dcs_sw_1p_tx
 .text.dsi_host_set_dcs_sr_0p_tx
                0x000000004161bca8       0x3c common/built-in.o
                0x000000004161bca8                dsi_host_set_dcs_sr_0p_tx
 .text.dsi_host_set_dcs_lw_tx
                0x000000004161bce4       0x3c common/built-in.o
                0x000000004161bce4                dsi_host_set_dcs_lw_tx
 .text.dsi_host_set_max_rd_pkt_size
                0x000000004161bd20       0x3c common/built-in.o
                0x000000004161bd20                dsi_host_set_max_rd_pkt_size
 .text.dsi_host_set_gen_dt
                0x000000004161bd5c       0x2c common/built-in.o
                0x000000004161bd5c                dsi_host_set_gen_dt
 .text.dsi_host_set_gen_vc
                0x000000004161bd88       0x2c common/built-in.o
                0x000000004161bd88                dsi_host_set_gen_vc
 .text.dsi_host_set_gen_wc_lsbyte
                0x000000004161bdb4       0x30 common/built-in.o
                0x000000004161bdb4                dsi_host_set_gen_wc_lsbyte
 .text.dsi_host_set_gen_wc_msbyte
                0x000000004161bde4       0x30 common/built-in.o
                0x000000004161bde4                dsi_host_set_gen_wc_msbyte
 .text.dsi_host_set_gen_packet_header_cfg
                0x000000004161be14       0x2c common/built-in.o
                0x000000004161be14                dsi_host_set_gen_packet_header_cfg
 .text.dsi_host_set_gen_pld_data
                0x000000004161be40       0x34 common/built-in.o
                0x000000004161be40                dsi_host_set_gen_pld_data
 .text.dsi_host_get_gen_pld_data
                0x000000004161be74       0x3c common/built-in.o
                0x000000004161be74                dsi_host_get_gen_pld_data
 .text.dsi_host_get_gen_cmd_full
                0x000000004161beb0       0x40 common/built-in.o
                0x000000004161beb0                dsi_host_get_gen_cmd_full
 .text.dsi_host_get_gen_pld_w_full
                0x000000004161bef0       0x40 common/built-in.o
                0x000000004161bef0                dsi_host_get_gen_pld_w_full
 .text.dsi_host_get_gen_pld_r_empty
                0x000000004161bf30       0x40 common/built-in.o
                0x000000004161bf30                dsi_host_get_gen_pld_r_empty
 .text.dsi_host_get_gen_rd_cmd_busy
                0x000000004161bf70       0x40 common/built-in.o
                0x000000004161bf70                dsi_host_get_gen_rd_cmd_busy
 .text.dsi_host_set_lprx_to_cnt
                0x000000004161bfb0       0x40 common/built-in.o
                0x000000004161bfb0                dsi_host_set_lprx_to_cnt
 .text.dsi_host_set_hstx_to_cnt
                0x000000004161bff0       0x40 common/built-in.o
                0x000000004161bff0                dsi_host_set_hstx_to_cnt
 .text.dsi_host_set_hs_rd_to_cnt
                0x000000004161c030       0x40 common/built-in.o
                0x000000004161c030                dsi_host_set_hs_rd_to_cnt
 .text.dsi_host_set_lp_rd_to_cnt
                0x000000004161c070       0x40 common/built-in.o
                0x000000004161c070                dsi_host_set_lp_rd_to_cnt
 .text.dsi_host_set_hs_wr_to_cnt
                0x000000004161c0b0       0x40 common/built-in.o
                0x000000004161c0b0                dsi_host_set_hs_wr_to_cnt
 .text.dsi_host_set_presp_to_mode
                0x000000004161c0f0       0x3c common/built-in.o
                0x000000004161c0f0                dsi_host_set_presp_to_mode
 .text.dsi_host_set_lp_wr_to_cnt
                0x000000004161c12c       0x40 common/built-in.o
                0x000000004161c12c                dsi_host_set_lp_wr_to_cnt
 .text.dsi_host_set_bta_to_cnt
                0x000000004161c16c       0x40 common/built-in.o
                0x000000004161c16c                dsi_host_set_bta_to_cnt
 .text.dsi_host_set_phy_txrequestclkhs
                0x000000004161c1ac       0x3c common/built-in.o
                0x000000004161c1ac                dsi_host_set_phy_txrequestclkhs
 .text.dsi_host_set_phy_clklp2hs_time
                0x000000004161c1e8       0x3c common/built-in.o
                0x000000004161c1e8                dsi_host_set_phy_clklp2hs_time
 .text.dsi_host_set_phy_clkhs2lp_time
                0x000000004161c224       0x3c common/built-in.o
                0x000000004161c224                dsi_host_set_phy_clkhs2lp_time
 .text.dsi_host_set_phy_lp2hs_time
                0x000000004161c260       0x3c common/built-in.o
                0x000000004161c260                dsi_host_set_phy_lp2hs_time
 .text.dsi_host_set_phy_hs2lp_time
                0x000000004161c29c       0x3c common/built-in.o
                0x000000004161c29c                dsi_host_set_phy_hs2lp_time
 .text.dsi_host_set_phy_shutdownz
                0x000000004161c2d8       0x3c common/built-in.o
                0x000000004161c2d8                dsi_host_set_phy_shutdownz
 .text.dsi_host_set_phy_rstz
                0x000000004161c314       0x3c common/built-in.o
                0x000000004161c314                dsi_host_set_phy_rstz
 .text.dsi_host_set_phy_enableclk
                0x000000004161c350       0x3c common/built-in.o
                0x000000004161c350                dsi_host_set_phy_enableclk
 .text.dsi_host_set_phy_forcepll
                0x000000004161c38c       0x3c common/built-in.o
                0x000000004161c38c                dsi_host_set_phy_forcepll
 .text.dsi_host_set_n_lanes
                0x000000004161c3c8       0x3c common/built-in.o
                0x000000004161c3c8                dsi_host_set_n_lanes
 .text.dsi_host_set_phy_stop_wait_time
                0x000000004161c404       0x40 common/built-in.o
                0x000000004161c404                dsi_host_set_phy_stop_wait_time
 .text.dsi_host_set_phy_txrequlpsclk
                0x000000004161c444       0x3c common/built-in.o
                0x000000004161c444                dsi_host_set_phy_txrequlpsclk
 .text.dsi_host_set_phy_txexitulpsclk
                0x000000004161c480       0x3c common/built-in.o
                0x000000004161c480                dsi_host_set_phy_txexitulpsclk
 .text.dsi_host_set_phy_txrequlpslan
                0x000000004161c4bc       0x3c common/built-in.o
                0x000000004161c4bc                dsi_host_set_phy_txrequlpslan
 .text.dsi_host_set_phy_txexitulpslan
                0x000000004161c4f8       0x3c common/built-in.o
                0x000000004161c4f8                dsi_host_set_phy_txexitulpslan
 .text.dsi_host_set_phy_tx_triggers
                0x000000004161c534       0x3c common/built-in.o
                0x000000004161c534                dsi_host_set_phy_tx_triggers
 .text.dsi_host_get_phy_direction
                0x000000004161c570       0x40 common/built-in.o
                0x000000004161c570                dsi_host_get_phy_direction
 .text.dsi_host_set_phy_testclr
                0x000000004161c5b0       0x3c common/built-in.o
                0x000000004161c5b0                dsi_host_set_phy_testclr
 .text.dsi_host_set_phy_testclk
                0x000000004161c5ec       0x3c common/built-in.o
                0x000000004161c5ec                dsi_host_set_phy_testclk
 .text.dsi_host_set_phy_testen
                0x000000004161c628       0x3c common/built-in.o
                0x000000004161c628                dsi_host_set_phy_testen
 .text.dsi_host_get_int0_status_ack_with_err_0
                0x000000004161c664       0x2c common/built-in.o
                0x000000004161c664                dsi_host_get_int0_status_ack_with_err_0
 .text.dsi_host_get_int0_status_ack_with_err_8
                0x000000004161c690       0x2c common/built-in.o
                0x000000004161c690                dsi_host_get_int0_status_ack_with_err_8
 .text.dsi_host_get_int0_status_ack_with_err_9
                0x000000004161c6bc       0x2c common/built-in.o
                0x000000004161c6bc                dsi_host_get_int0_status_ack_with_err_9
 .text.dsi_host_get_int0_status_ack_with_err_10
                0x000000004161c6e8       0x2c common/built-in.o
                0x000000004161c6e8                dsi_host_get_int0_status_ack_with_err_10
 .text.dsi_host_get_int0_status
                0x000000004161c714       0x3c common/built-in.o
                0x000000004161c714                dsi_host_get_int0_status
 .text.dsi_host_set_int0
                0x000000004161c750       0x34 common/built-in.o
                0x000000004161c750                dsi_host_set_int0
 .text.dsi_host_set_int1
                0x000000004161c784       0x34 common/built-in.o
                0x000000004161c784                dsi_host_set_int1
 .text.dsi_host_set_vid_shadow_en
                0x000000004161c7b8       0x3c common/built-in.o
                0x000000004161c7b8                dsi_host_set_vid_shadow_en
 .text.dsi_host_set_vid_shadow_req
                0x000000004161c7f4       0x3c common/built-in.o
                0x000000004161c7f4                dsi_host_set_vid_shadow_req
 .text.dsi_host_set_vid_shadow_pin_req
                0x000000004161c830       0x3c common/built-in.o
                0x000000004161c830                dsi_host_set_vid_shadow_pin_req
 .text._dsi_host_bus_mode_cfg
                0x000000004161c86c      0x108 common/built-in.o
 .text._dsi_hal_gen_packet_header.part.0
                0x000000004161c974       0x74 common/built-in.o
 .text._dsi_hal_gen_rd_cmd_busy
                0x000000004161c9e8       0x30 common/built-in.o
                0x000000004161c9e8                _dsi_hal_gen_rd_cmd_busy
 .text._dsi_hal_gen_read_fifo_empty
                0x000000004161ca18       0x30 common/built-in.o
                0x000000004161ca18                _dsi_hal_gen_read_fifo_empty
 .text._dsi_hal_gen_read_payload
                0x000000004161ca48       0x3c common/built-in.o
                0x000000004161ca48                _dsi_hal_gen_read_payload
 .text._dsi_gen_rd_packet
                0x000000004161ca84      0x1e0 common/built-in.o
 .text._dsi_hal_gen_write_fifo_full
                0x000000004161cc64       0x30 common/built-in.o
                0x000000004161cc64                _dsi_hal_gen_write_fifo_full
 .text._dsi_hal_gen_packet_payload
                0x000000004161cc94       0x44 common/built-in.o
 .text._dsi_gen_wr_packet.constprop.0
                0x000000004161ccd8      0x1cc common/built-in.o
 .text._dsi_dcs_rd_cmd
                0x000000004161cea4       0xa0 common/built-in.o
                0x000000004161cea4                _dsi_dcs_rd_cmd
 .text.dsi_gen_wr_cmd
                0x000000004161cf44       0x78 common/built-in.o
                0x000000004161cf44                dsi_gen_wr_cmd
 .text.dsi_dcs_wr_cmd
                0x000000004161cfbc       0x90 common/built-in.o
                0x000000004161cfbc                dsi_dcs_wr_cmd
 .text.dsi_dcs_rd_cmd
                0x000000004161d04c      0x340 common/built-in.o
                0x000000004161d04c                dsi_dcs_rd_cmd
 .text.dsi_host_v0_init
                0x000000004161d38c     0x1198 common/built-in.o
                0x000000004161d38c                dsi_host_v0_init
 .text.dsi_host_v0_deinit
                0x000000004161e524       0xa8 common/built-in.o
                0x000000004161e524                dsi_host_v0_deinit
 .text.dsi_host_hs_mode
                0x000000004161e5cc       0xdc common/built-in.o
                0x000000004161e5cc                dsi_host_hs_mode
 .text.dsi_host_lp_mode
                0x000000004161e6a8       0xdc common/built-in.o
                0x000000004161e6a8                dsi_host_lp_mode
 .text.dsi_host_power_on
                0x000000004161e784      0x154 common/built-in.o
                0x000000004161e784                dsi_host_power_on
 .text.dsi_host_power_off
                0x000000004161e8d8      0x17c common/built-in.o
                0x000000004161e8d8                dsi_host_power_off
 .text.dsi_host_get_reg_default_tab
                0x000000004161ea54        0xc common/built-in.o
                0x000000004161ea54                dsi_host_get_reg_default_tab
 .text.dsi_phy_set_lpx
                0x000000004161ea60       0x40 common/built-in.o
                0x000000004161ea60                dsi_phy_set_lpx
 .text.dsi_phy_set_txreadyesc_mode
                0x000000004161eaa0       0x3c common/built-in.o
                0x000000004161eaa0                dsi_phy_set_txreadyesc_mode
 .text.dsi_phy_set_auto_ckgate_en
                0x000000004161eadc       0x3c common/built-in.o
                0x000000004161eadc                dsi_phy_set_auto_ckgate_en
 .text.dsi_phy_set_link_mode
                0x000000004161eb18       0x3c common/built-in.o
                0x000000004161eb18                dsi_phy_set_link_mode
 .text.dsi_phy_set_txreadyesc_extend_vld
                0x000000004161eb54       0x40 common/built-in.o
                0x000000004161eb54                dsi_phy_set_txreadyesc_extend_vld
 .text.dsi_phy_set_rxvalidesc_extend_vld
                0x000000004161eb94       0x40 common/built-in.o
                0x000000004161eb94                dsi_phy_set_rxvalidesc_extend_vld
 .text.dsi_phy_set_afifo_cfg
                0x000000004161ebd4       0x3c common/built-in.o
                0x000000004161ebd4                dsi_phy_set_afifo_cfg
 .text.dsi_phy_set_rcal_pluse_period
                0x000000004161ec10       0x3c common/built-in.o
                0x000000004161ec10                dsi_phy_set_rcal_pluse_period
 .text.dsi_phy_set_t_ipcd_det_time_d0
                0x000000004161ec4c       0x3c common/built-in.o
                0x000000004161ec4c                dsi_phy_set_t_ipcd_det_time_d0
 .text.dsi_phy_set_en_deskew
                0x000000004161ec88       0x3c common/built-in.o
                0x000000004161ec88                dsi_phy_set_en_deskew
 .text.dsi_phy_set_en_period_deskew
                0x000000004161ecc4       0x3c common/built-in.o
                0x000000004161ecc4                dsi_phy_set_en_period_deskew
 .text.dsi_phy_set_init_deskew_time
                0x000000004161ed00       0x3c common/built-in.o
                0x000000004161ed00                dsi_phy_set_init_deskew_time
 .text.dsi_phy_set_period_deskew_time
                0x000000004161ed3c       0x3c common/built-in.o
                0x000000004161ed3c                dsi_phy_set_period_deskew_time
 .text.dsi_phy_set_cl_en_deskew
                0x000000004161ed78       0x3c common/built-in.o
                0x000000004161ed78                dsi_phy_set_cl_en_deskew
 .text.dsi_phy_set_cl_deskew_time
                0x000000004161edb4       0x3c common/built-in.o
                0x000000004161edb4                dsi_phy_set_cl_deskew_time
 .text.dsi_phy_set_su_iddq_en_soft
                0x000000004161edf0       0x3c common/built-in.o
                0x000000004161edf0                dsi_phy_set_su_iddq_en_soft
 .text.dsi_phy_set_atest_en
                0x000000004161ee2c       0x3c common/built-in.o
                0x000000004161ee2c                dsi_phy_set_atest_en
 .text.dsi_phy_set_atest_sel
                0x000000004161ee68       0x3c common/built-in.o
                0x000000004161ee68                dsi_phy_set_atest_sel
 .text.dsi_phy_set_fset_en
                0x000000004161eea4       0x3c common/built-in.o
                0x000000004161eea4                dsi_phy_set_fset_en
 .text.dsi_phy_set_bg_en
                0x000000004161eee0       0x3c common/built-in.o
                0x000000004161eee0                dsi_phy_set_bg_en
 .text.dsi_phy_set_bg_rbias
                0x000000004161ef1c       0x3c common/built-in.o
                0x000000004161ef1c                dsi_phy_set_bg_rbias
 .text.dsi_phy_set_bg_trim
                0x000000004161ef58       0x3c common/built-in.o
                0x000000004161ef58                dsi_phy_set_bg_trim
 .text.dsi_phy_set_bist_en
                0x000000004161ef94       0x3c common/built-in.o
                0x000000004161ef94                dsi_phy_set_bist_en
 .text.dsi_phy_set_bist_sel
                0x000000004161efd0       0x3c common/built-in.o
                0x000000004161efd0                dsi_phy_set_bist_sel
 .text.dsi_phy_set_bist_bit_error
                0x000000004161f00c       0x3c common/built-in.o
                0x000000004161f00c                dsi_phy_set_bist_bit_error
 .text.dsi_phy_set_rcal_trim_init_time
                0x000000004161f048       0x40 common/built-in.o
                0x000000004161f048                dsi_phy_set_rcal_trim_init_time
 .text.dsi_phy_set_rcal_sel
                0x000000004161f088       0x3c common/built-in.o
                0x000000004161f088                dsi_phy_set_rcal_sel
 .text.dsi_phy_set_rcal_pn_swap_i
                0x000000004161f0c4       0x3c common/built-in.o
                0x000000004161f0c4                dsi_phy_set_rcal_pn_swap_i
 .text.dsi_phy_set_rcal_en_i
                0x000000004161f100       0x3c common/built-in.o
                0x000000004161f100                dsi_phy_set_rcal_en_i
 .text.dsi_phy_set_rcal_soft_rst
                0x000000004161f13c       0x3c common/built-in.o
                0x000000004161f13c                dsi_phy_set_rcal_soft_rst
 .text.dsi_phy_set_rcal_trim_soft
                0x000000004161f178       0x3c common/built-in.o
                0x000000004161f178                dsi_phy_set_rcal_trim_soft
 .text.dsi_phy_set_rcal_ctrl
                0x000000004161f1b4       0x40 common/built-in.o
                0x000000004161f1b4                dsi_phy_set_rcal_ctrl
 .text.dsi_phy_set_ft_sel
                0x000000004161f1f4       0x3c common/built-in.o
                0x000000004161f1f4                dsi_phy_set_ft_sel
 .text.dsi_phy_set_lpcd_vref_trim
                0x000000004161f230       0x3c common/built-in.o
                0x000000004161f230                dsi_phy_set_lpcd_vref_trim
 .text.dsi_phy_set_lprx_vref_trim
                0x000000004161f26c       0x3c common/built-in.o
                0x000000004161f26c                dsi_phy_set_lprx_vref_trim
 .text.dsi_phy_set_rg_ibias_sel
                0x000000004161f2a8       0x3c common/built-in.o
                0x000000004161f2a8                dsi_phy_set_rg_ibias_sel
 .text.dsi_phy_set_rcal_done_bypass
                0x000000004161f2e4       0x3c common/built-in.o
                0x000000004161f2e4                dsi_phy_set_rcal_done_bypass
 .text.dsi_phy_set_clane_rst2enlptx
                0x000000004161f320       0x74 common/built-in.o
                0x000000004161f320                dsi_phy_set_clane_rst2enlptx
 .text.dsi_phy_set_clane_inittime
                0x000000004161f394       0x64 common/built-in.o
                0x000000004161f394                dsi_phy_set_clane_inittime
 .text.dsi_phy_set_clane_clkprepare
                0x000000004161f3f8       0x74 common/built-in.o
                0x000000004161f3f8                dsi_phy_set_clane_clkprepare
 .text.dsi_phy_set_clane_clkzero
                0x000000004161f46c       0x74 common/built-in.o
                0x000000004161f46c                dsi_phy_set_clane_clkzero
 .text.dsi_phy_set_clane_clkpre
                0x000000004161f4e0       0x74 common/built-in.o
                0x000000004161f4e0                dsi_phy_set_clane_clkpre
 .text.dsi_phy_set_clane_clkpost
                0x000000004161f554       0x78 common/built-in.o
                0x000000004161f554                dsi_phy_set_clane_clkpost
 .text.dsi_phy_set_clane_clktrail
                0x000000004161f5cc       0x78 common/built-in.o
                0x000000004161f5cc                dsi_phy_set_clane_clktrail
 .text.dsi_phy_set_clane_hsexit
                0x000000004161f644       0x74 common/built-in.o
                0x000000004161f644                dsi_phy_set_clane_hsexit
 .text.dsi_phy_set_clane_pulldwn_mode
                0x000000004161f6b8       0x50 common/built-in.o
                0x000000004161f6b8                dsi_phy_set_clane_pulldwn_mode
 .text.dsi_phy_set_clane_wakeup
                0x000000004161f708       0x64 common/built-in.o
                0x000000004161f708                dsi_phy_set_clane_wakeup
 .text.dsi_phy_set_dlane_rst2enlptx
                0x000000004161f76c       0xd4 common/built-in.o
                0x000000004161f76c                dsi_phy_set_dlane_rst2enlptx
 .text.dsi_phy_set_dlane_inittime
                0x000000004161f840       0xb4 common/built-in.o
                0x000000004161f840                dsi_phy_set_dlane_inittime
 .text.dsi_phy_set_dlane_hsprepare
                0x000000004161f8f4       0xd4 common/built-in.o
                0x000000004161f8f4                dsi_phy_set_dlane_hsprepare
 .text.dsi_phy_set_dlane_hszero
                0x000000004161f9c8       0xd4 common/built-in.o
                0x000000004161f9c8                dsi_phy_set_dlane_hszero
 .text.dsi_phy_set_dlane_hstrail
                0x000000004161fa9c       0xd4 common/built-in.o
                0x000000004161fa9c                dsi_phy_set_dlane_hstrail
 .text.dsi_phy_set_dlane_hsexit
                0x000000004161fb70       0xd4 common/built-in.o
                0x000000004161fb70                dsi_phy_set_dlane_hsexit
 .text.dsi_phy_set_dlane_wakeup
                0x000000004161fc44       0xb4 common/built-in.o
                0x000000004161fc44                dsi_phy_set_dlane_wakeup
 .text.dsi_phy_set_dlane_tago
                0x000000004161fcf8       0x74 common/built-in.o
                0x000000004161fcf8                dsi_phy_set_dlane_tago
 .text.dsi_phy_set_dlane_tasure
                0x000000004161fd6c       0x74 common/built-in.o
                0x000000004161fd6c                dsi_phy_set_dlane_tasure
 .text.dsi_phy_set_dlane_taget
                0x000000004161fde0       0x74 common/built-in.o
                0x000000004161fde0                dsi_phy_set_dlane_taget
 .text.dsi_phy_set_dlane_pulldwn_mode
                0x000000004161fe54       0x70 common/built-in.o
                0x000000004161fe54                dsi_phy_set_dlane_pulldwn_mode
 .text.dsi_phy_set_lane_ck8t_reverse
                0x000000004161fec4       0x40 common/built-in.o
                0x000000004161fec4                dsi_phy_set_lane_ck8t_reverse
 .text.dsi_phy_set_lane_predrv_by_dly
                0x000000004161ff04       0xd4 common/built-in.o
                0x000000004161ff04                dsi_phy_set_lane_predrv_by_dly
 .text.dsi_phy_set_lane_predrv_dly_sel
                0x000000004161ffd8       0xd4 common/built-in.o
                0x000000004161ffd8                dsi_phy_set_lane_predrv_dly_sel
 .text.dsi_phy_set_lane_hstx_phase
                0x00000000416200ac       0xd4 common/built-in.o
                0x00000000416200ac                dsi_phy_set_lane_hstx_phase
 .text.dsi_phy_set_lane_hs_8t_clk_sel
                0x0000000041620180       0x90 common/built-in.o
                0x0000000041620180                dsi_phy_set_lane_hs_8t_clk_sel
 .text.dsi_phy_set_lane_lptx_vb_sel
                0x0000000041620210       0x90 common/built-in.o
                0x0000000041620210                dsi_phy_set_lane_lptx_vb_sel
 .text.dsi_phy_set_lane_bist_pattern_mode
                0x00000000416202a0       0x90 common/built-in.o
                0x00000000416202a0                dsi_phy_set_lane_bist_pattern_mode
 .text.dsi_phy_set_lane_prbs_check_num
                0x0000000041620330       0xf4 common/built-in.o
                0x0000000041620330                dsi_phy_set_lane_prbs_check_num
 .text.dsi_phy_set_lane_prbs_seed
                0x0000000041620424       0xb4 common/built-in.o
                0x0000000041620424                dsi_phy_set_lane_prbs_seed
 .text.dsi_phy_set_lane_prbs_err_th
                0x00000000416204d8       0xd4 common/built-in.o
                0x00000000416204d8                dsi_phy_set_lane_prbs_err_th
 .text.dsi_phy_set_core_dll_sel
                0x00000000416205ac       0x50 common/built-in.o
                0x00000000416205ac                dsi_phy_set_core_dll_sel
 .text.dsi_phy_set_core_lane_num
                0x00000000416205fc       0x50 common/built-in.o
                0x00000000416205fc                dsi_phy_set_core_lane_num
 .text.dsi_phy_set_core_clksel
                0x000000004162064c       0x50 common/built-in.o
                0x000000004162064c                dsi_phy_set_core_clksel
 .text.dsi_phy_set_core_phyerr_mask
                0x000000004162069c       0x74 common/built-in.o
                0x000000004162069c                dsi_phy_set_core_phyerr_mask
 .text.dsi_phy_set_core_ulprx_sel
                0x0000000041620710       0x50 common/built-in.o
                0x0000000041620710                dsi_phy_set_core_ulprx_sel
 .text.dsi_phy_set_core_dphy_soft_rst
                0x0000000041620760       0xb8 common/built-in.o
                0x0000000041620760                dsi_phy_set_core_dphy_soft_rst
 .text.dsi_phy_set_core_pwon_sel
                0x0000000041620818       0x94 common/built-in.o
                0x0000000041620818                dsi_phy_set_core_pwon_sel
 .text.dsi_phy_set_core_pwon_dsi_soft
                0x00000000416208ac       0x74 common/built-in.o
                0x00000000416208ac                dsi_phy_set_core_pwon_dsi_soft
 .text.dsi_phy_set_core_pwon_pll_soft
                0x0000000041620920       0x74 common/built-in.o
                0x0000000041620920                dsi_phy_set_core_pwon_pll_soft
 .text.dsi_phy_set_core_da_clk1_en
                0x0000000041620994       0x74 common/built-in.o
                0x0000000041620994                dsi_phy_set_core_da_clk1_en
 .text.dsi_phy_set_core_pixelclkl_div
                0x0000000041620a08       0x74 common/built-in.o
                0x0000000041620a08                dsi_phy_set_core_pixelclkl_div
 .text.dsi_phy_set_core_pll_soft_rst
                0x0000000041620a7c       0xa4 common/built-in.o
                0x0000000041620a7c                dsi_phy_set_core_pll_soft_rst
 .text.dsi_phy_set_core_pll_bist_en
                0x0000000041620b20       0x74 common/built-in.o
                0x0000000041620b20                dsi_phy_set_core_pll_bist_en
 .text.dsi_phy_set_core_pll_bist_ctrl
                0x0000000041620b94       0x74 common/built-in.o
                0x0000000041620b94                dsi_phy_set_core_pll_bist_ctrl
 .text.dsi_phy_set_core_pll_bist_cnt
                0x0000000041620c08       0x74 common/built-in.o
                0x0000000041620c08                dsi_phy_set_core_pll_bist_cnt
 .text.dsi_phy_set_core_pll_div_s
                0x0000000041620c7c       0x74 common/built-in.o
                0x0000000041620c7c                dsi_phy_set_core_pll_div_s
 .text.dsi_phy_set_core_pll_freq_doubler_en
                0x0000000041620cf0       0x74 common/built-in.o
                0x0000000041620cf0                dsi_phy_set_core_pll_freq_doubler_en
 .text.dsi_phy_set_core_pll_ref24m_sel
                0x0000000041620d64       0x74 common/built-in.o
                0x0000000041620d64                dsi_phy_set_core_pll_ref24m_sel
 .text.dsi_phy_set_core_pll_pdiv
                0x0000000041620dd8       0x74 common/built-in.o
                0x0000000041620dd8                dsi_phy_set_core_pll_pdiv
 .text.dsi_phy_set_core_pll_ssc_en
                0x0000000041620e4c       0x74 common/built-in.o
                0x0000000041620e4c                dsi_phy_set_core_pll_ssc_en
 .text.dsi_phy_set_core_pll_ssc_ctrl
                0x0000000041620ec0       0x74 common/built-in.o
                0x0000000041620ec0                dsi_phy_set_core_pll_ssc_ctrl
 .text.dsi_phy_set_core_pll_lpf_r2
                0x0000000041620f34       0x74 common/built-in.o
                0x0000000041620f34                dsi_phy_set_core_pll_lpf_r2
 .text.dsi_phy_set_core_pll_lpf_r3
                0x0000000041620fa8       0x74 common/built-in.o
                0x0000000041620fa8                dsi_phy_set_core_pll_lpf_r3
 .text.dsi_phy_set_core_pll_lpf_cl
                0x000000004162101c       0x74 common/built-in.o
                0x000000004162101c                dsi_phy_set_core_pll_lpf_cl
 .text.dsi_phy_set_core_pll_lpf_c2
                0x0000000041621090       0x74 common/built-in.o
                0x0000000041621090                dsi_phy_set_core_pll_lpf_c2
 .text.dsi_phy_set_core_pll_ldo_test_en
                0x0000000041621104       0x74 common/built-in.o
                0x0000000041621104                dsi_phy_set_core_pll_ldo_test_en
 .text.dsi_phy_set_core_pll_ldo_vref
                0x0000000041621178       0x74 common/built-in.o
                0x0000000041621178                dsi_phy_set_core_pll_ldo_vref
 .text.dsi_phy_set_core_pll_ldo_vout
                0x00000000416211ec       0x74 common/built-in.o
                0x00000000416211ec                dsi_phy_set_core_pll_ldo_vout
 .text.dsi_phy_set_core_pll_kint
                0x0000000041621260       0x74 common/built-in.o
                0x0000000041621260                dsi_phy_set_core_pll_kint
 .text.dsi_phy_set_core_pll_nint
                0x00000000416212d4       0x74 common/built-in.o
                0x00000000416212d4                dsi_phy_set_core_pll_nint
 .text.dsi_phy_set_core_pll_n
                0x0000000041621348       0x74 common/built-in.o
                0x0000000041621348                dsi_phy_set_core_pll_n
 .text.dsi_phy_set_core_pll_icp
                0x00000000416213bc       0x74 common/built-in.o
                0x00000000416213bc                dsi_phy_set_core_pll_icp
 .text.dsi_phy_set_core_pll_icp_of_fset
                0x0000000041621430       0x74 common/built-in.o
                0x0000000041621430                dsi_phy_set_core_pll_icp_of_fset
 .text.dsi_phy_get_core_pll_lock
                0x00000000416214a4       0x6c common/built-in.o
                0x00000000416214a4                dsi_phy_get_core_pll_lock
 .text.dsi_phy_set_core_rg_dslpll_ssc_step_wicith_ctrl
                0x0000000041621510       0x74 common/built-in.o
                0x0000000041621510                dsi_phy_set_core_rg_dslpll_ssc_step_wicith_ctrl
 .text.dsi_phy_set_core_rg_dslpll_ssc_step_number_ctrl
                0x0000000041621584       0x74 common/built-in.o
                0x0000000041621584                dsi_phy_set_core_rg_dslpll_ssc_step_number_ctrl
 .text.dsi_phy_set_core_pll_lock_bypass
                0x00000000416215f8       0x74 common/built-in.o
                0x00000000416215f8                dsi_phy_set_core_pll_lock_bypass
 .text.dsi_phy_set_core_pll_lock_time
                0x000000004162166c       0x74 common/built-in.o
                0x000000004162166c                dsi_phy_set_core_pll_lock_time
 .text.dsi_phy_set_core_pll_lock_cnt
                0x00000000416216e0       0x74 common/built-in.o
                0x00000000416216e0                dsi_phy_set_core_pll_lock_cnt
 .text.dsi_phy_set_core_hstx_sr
                0x0000000041621754       0x74 common/built-in.o
                0x0000000041621754                dsi_phy_set_core_hstx_sr
 .text.dsi_phy_set_core_hstx_amp_trim
                0x00000000416217c8       0x74 common/built-in.o
                0x00000000416217c8                dsi_phy_set_core_hstx_amp_trim
 .text.dsi_phy_set_core_lptx_sr_trim
                0x000000004162183c       0x74 common/built-in.o
                0x000000004162183c                dsi_phy_set_core_lptx_sr_trim
 .text.dsi_phy_set_core_lptx_amp_trim
                0x00000000416218b0       0x74 common/built-in.o
                0x00000000416218b0                dsi_phy_set_core_lptx_amp_trim
 .text.dsi_phy_set_core_en_lpcd
                0x0000000041621924       0x74 common/built-in.o
                0x0000000041621924                dsi_phy_set_core_en_lpcd
 .text.dsi_phy_set_core_en_lprx
                0x0000000041621998       0x74 common/built-in.o
                0x0000000041621998                dsi_phy_set_core_en_lprx
 .text.dsi_phy_set_core_en_ulprx
                0x0000000041621a0c       0x74 common/built-in.o
                0x0000000041621a0c                dsi_phy_set_core_en_ulprx
 .text.dsi_phy_set_core_lpcd_fl0
                0x0000000041621a80       0x74 common/built-in.o
                0x0000000041621a80                dsi_phy_set_core_lpcd_fl0
 .text.dsi_phy_set_core_lpcd_fl1
                0x0000000041621af4       0x74 common/built-in.o
                0x0000000041621af4                dsi_phy_set_core_lpcd_fl1
 .text.dsi_phy_set_mode_ext_loop_mode_cfg
                0x0000000041621b68       0x74 common/built-in.o
                0x0000000041621b68                dsi_phy_set_mode_ext_loop_mode_cfg
 .text.dsi_phy_set_mode_en_ext_loop_cfg
                0x0000000041621bdc       0x74 common/built-in.o
                0x0000000041621bdc                dsi_phy_set_mode_en_ext_loop_cfg
 .text.dsi_phy_set_mode_txclkreq_loop_cfg
                0x0000000041621c50       0x74 common/built-in.o
                0x0000000041621c50                dsi_phy_set_mode_txclkreq_loop_cfg
 .text.dsi_phy_set_mode_txdatareq_loop_cfg
                0x0000000041621cc4       0x74 common/built-in.o
                0x0000000041621cc4                dsi_phy_set_mode_txdatareq_loop_cfg
 .text.dsi_phy_set_mode_txdatasel_loop_cfg
                0x0000000041621d38       0x74 common/built-in.o
                0x0000000041621d38                dsi_phy_set_mode_txdatasel_loop_cfg
 .text.dsi_phy_set_mode_txdata_loop_cfg
                0x0000000041621dac       0x74 common/built-in.o
                0x0000000041621dac                dsi_phy_set_mode_txdata_loop_cfg
 .text.dsi_phy_set_mode_txdatanum_loop_cfg
                0x0000000041621e20       0x74 common/built-in.o
                0x0000000041621e20                dsi_phy_set_mode_txdatanum_loop_cfg
 .text.dsi_phy_set_mode_ext_loop_bist_bit_error_cfg
                0x0000000041621e94       0x74 common/built-in.o
                0x0000000041621e94                dsi_phy_set_mode_ext_loop_bist_bit_error_cfg
 .text.dsi_phy_set_mode_ext_loop_prbs_pattern_mode_cfg
                0x0000000041621f08       0x74 common/built-in.o
                0x0000000041621f08                dsi_phy_set_mode_ext_loop_prbs_pattern_mode_cfg
 .text.dsi_phy_set_mode_ext_loop_prbs_seed_cfg
                0x0000000041621f7c       0x74 common/built-in.o
                0x0000000041621f7c                dsi_phy_set_mode_ext_loop_prbs_seed_cfg
 .text._dsi_phy_v0_pll_lock_checker
                0x0000000041621ff0       0x68 common/built-in.o
 .text.dsi_phy_v0_init
                0x0000000041622058     0x124c common/built-in.o
                0x0000000041622058                dsi_phy_v0_init
 .text.dsi_phy_v0_deinit
                0x00000000416232a4       0xcc common/built-in.o
                0x00000000416232a4                dsi_phy_v0_deinit
 .text.dsi_phy_power_on
                0x0000000041623370       0xfc common/built-in.o
                0x0000000041623370                dsi_phy_power_on
 .text.dsi_phy_power_off
                0x000000004162346c      0x184 common/built-in.o
                0x000000004162346c                dsi_phy_power_off
 .text._dsi_phy_pll_v1_cfg
                0x00000000416235f0      0x36c common/built-in.o
                0x00000000416235f0                _dsi_phy_pll_v1_cfg
 .text.dsi_phy_pll_v1_on
                0x000000004162395c      0x1c4 common/built-in.o
                0x000000004162395c                dsi_phy_pll_v1_on
 .text.dsi_phy_get_reg_default_tab
                0x0000000041623b20        0xc common/built-in.o
                0x0000000041623b20                dsi_phy_get_reg_default_tab
 .text.dsi_pixel_clk_get
                0x0000000041623b2c       0x54 common/built-in.o
                0x0000000041623b2c                dsi_pixel_clk_get
 .text.dsi_bits_per_pixel_get
                0x0000000041623b80       0x4c common/built-in.o
                0x0000000041623b80                dsi_bits_per_pixel_get
 .text._ui_time_to_reg_carry.constprop.0.isra.0
                0x0000000041623bcc       0x30 common/built-in.o
 .text.dsi_phy_timing_calc
                0x0000000041623bfc      0x358 common/built-in.o
                0x0000000041623bfc                dsi_phy_timing_calc
 *fill*         0x0000000041623f54        0x4 
 .text.dsi_phy_pll_cfg_get
                0x0000000041623f58      0x69c common/built-in.o
                0x0000000041623f58                dsi_phy_pll_cfg_get
 .text.sfc_read
                0x00000000416245f4       0x18 common/built-in.o
                0x00000000416245f4                sfc_read
 .text.sfc_write
                0x000000004162460c       0x14 common/built-in.o
                0x000000004162460c                sfc_write
 .text.sfc_earse
                0x0000000041624620        0x8 common/built-in.o
                0x0000000041624620                sfc_earse
 .text.lcm_sfc_init
                0x0000000041624628       0x28 common/built-in.o
                0x0000000041624628                lcm_sfc_init
 .text.lcm_probe_info_update
                0x0000000041624650      0x11c common/built-in.o
                0x0000000041624650                lcm_probe_info_update
 .text.lcm_func_probe
                0x000000004162476c      0x158 common/built-in.o
                0x000000004162476c                lcm_func_probe
 .text.lcm_func_init
                0x00000000416248c4       0xc0 common/built-in.o
                0x00000000416248c4                lcm_func_init
 .text._mol_lcm_bus_deinit
                0x0000000041624984      0x120 common/built-in.o
 .text._mol_lcm_bus_init
                0x0000000041624aa4      0x244 common/built-in.o
 .text._mol_lcm_ops_cfg
                0x0000000041624ce8      0x164 common/built-in.o
 .text._mipi_bus_lp_cfg
                0x0000000041624e4c       0x60 common/built-in.o
 .text._mipi_push_table
                0x0000000041624eac       0x4c common/built-in.o
 .text._mipi_bus_hs_cfg
                0x0000000041624ef8       0x60 common/built-in.o
 .text.mol_lcm_init
                0x0000000041624f58      0x23c common/built-in.o
                0x0000000041624f58                mol_lcm_init
 .text.read_tab_index
                0x0000000041625194       0xcc common/built-in.o
                0x0000000041625194                read_tab_index
 .text.store_tab_index
                0x0000000041625260      0x128 common/built-in.o
                0x0000000041625260                store_tab_index
 .text.mol_lcm_scan
                0x0000000041625388      0x56c common/built-in.o
                0x0000000041625388                mol_lcm_scan
 .text.mol_lcm_probe
                0x00000000416258f4       0xbc common/built-in.o
                0x00000000416258f4                mol_lcm_probe
 .text.get_lcm_work_mode
                0x00000000416259b0      0x13c common/built-in.o
                0x00000000416259b0                get_lcm_work_mode
 .text.set_lcm_work_mode
                0x0000000041625aec       0x14 common/built-in.o
                0x0000000041625aec                set_lcm_work_mode
 .text.check_lcm_work_mode
                0x0000000041625b00      0x208 common/built-in.o
                0x0000000041625b00                check_lcm_work_mode
 .text.get_lcm_handle
                0x0000000041625d08       0x40 common/built-in.o
                0x0000000041625d08                get_lcm_handle
 .text.mc_lcm_probe
                0x0000000041625d48      0x128 common/built-in.o
                0x0000000041625d48                mc_lcm_probe
 .text.delayUs  0x0000000041625e70        0x4 common/built-in.o
                0x0000000041625e70                delayUs
 .text.delayMs  0x0000000041625e74       0x20 common/built-in.o
                0x0000000041625e74                delayMs
 .text.os_k_malloc
                0x0000000041625e94        0x4 common/built-in.o
                0x0000000041625e94                os_k_malloc
 .text.os_strcmp
                0x0000000041625e98        0x4 common/built-in.o
                0x0000000041625e98                os_strcmp
 .text.do_div64_u64
                0x0000000041625e9c        0xc common/built-in.o
                0x0000000041625e9c                do_div64_u64
 .text.debug_fun
                0x0000000041625ea8       0x7c common/built-in.o
                0x0000000041625ea8                debug_fun
 .text.dev_print
                0x0000000041625f24      0x224 disk/built-in.o
                0x0000000041625f24                dev_print
 .text.part_init
                0x0000000041626148       0x50 disk/built-in.o
                0x0000000041626148                part_init
 .text.part_print
                0x0000000041626198      0x13c disk/built-in.o
                0x0000000041626198                part_print
 .text.part_get_info
                0x00000000416262d4       0x60 disk/built-in.o
                0x00000000416262d4                part_get_info
 .text.blk_get_device_by_str
                0x0000000041626334      0x154 disk/built-in.o
                0x0000000041626334                blk_get_device_by_str
 .text.blk_get_device_part_str
                0x0000000041626488      0x3f0 disk/built-in.o
                0x0000000041626488                blk_get_device_part_str
 .text.part_set_generic_name
                0x0000000041626878       0x4c disk/built-in.o
                0x0000000041626878                part_set_generic_name
 .text.test_block_type
                0x00000000416268c4       0x7c disk/built-in.o
 .text.print_partition_extended
                0x0000000041626940      0x260 disk/built-in.o
 .text.part_print_dos
                0x0000000041626ba0       0x34 disk/built-in.o
                0x0000000041626ba0                part_print_dos
 .text.part_test_dos
                0x0000000041626bd4       0x58 disk/built-in.o
 .text.part_get_info_extended.constprop.0
                0x0000000041626c2c      0x25c disk/built-in.o
 .text.part_get_info_dos
                0x0000000041626e88       0x20 disk/built-in.o
                0x0000000041626e88                part_get_info_dos
 .text.alloc_priv
                0x0000000041626ea8       0x50 drivers/built-in.o
 .text.device_bind_common.constprop.0
                0x0000000041626ef8      0x358 drivers/built-in.o
 .text.device_bind_with_driver_data
                0x0000000041627250       0x24 drivers/built-in.o
                0x0000000041627250                device_bind_with_driver_data
 .text.device_bind
                0x0000000041627274       0x28 drivers/built-in.o
                0x0000000041627274                device_bind
 .text.device_bind_by_name
                0x000000004162729c       0x6c drivers/built-in.o
                0x000000004162729c                device_bind_by_name
 .text.device_probe
                0x0000000041627308      0x220 drivers/built-in.o
                0x0000000041627308                device_probe
 .text.dev_get_platdata
                0x0000000041627528       0x2c drivers/built-in.o
                0x0000000041627528                dev_get_platdata
 .text.dev_get_parent_platdata
                0x0000000041627554       0x2c drivers/built-in.o
                0x0000000041627554                dev_get_parent_platdata
 .text.dev_get_uclass_platdata
                0x0000000041627580       0x2c drivers/built-in.o
                0x0000000041627580                dev_get_uclass_platdata
 .text.dev_get_priv
                0x00000000416275ac       0x2c drivers/built-in.o
                0x00000000416275ac                dev_get_priv
 .text.dev_get_uclass_priv
                0x00000000416275d8       0x2c drivers/built-in.o
                0x00000000416275d8                dev_get_uclass_priv
 .text.dev_get_parent_priv
                0x0000000041627604       0x2c drivers/built-in.o
                0x0000000041627604                dev_get_parent_priv
 .text.device_find_first_child
                0x0000000041627630       0x1c drivers/built-in.o
                0x0000000041627630                device_find_first_child
 .text.device_find_next_child
                0x000000004162764c       0x28 drivers/built-in.o
                0x000000004162764c                device_find_next_child
 .text.dev_get_parent
                0x0000000041627674        0x8 drivers/built-in.o
                0x0000000041627674                dev_get_parent
 .text.dev_get_driver_data
                0x000000004162767c        0x8 drivers/built-in.o
                0x000000004162767c                dev_get_driver_data
 .text.device_get_uclass_id
                0x0000000041627684       0x10 drivers/built-in.o
                0x0000000041627684                device_get_uclass_id
 .text.device_has_active_children
                0x0000000041627694       0x40 drivers/built-in.o
                0x0000000041627694                device_has_active_children
 .text.device_is_last_sibling
                0x00000000416276d4       0x28 drivers/built-in.o
                0x00000000416276d4                device_is_last_sibling
 .text.device_set_name_alloced
                0x00000000416276fc       0x10 drivers/built-in.o
                0x00000000416276fc                device_set_name_alloced
 .text.devfdt_get_addr_index
                0x000000004162770c       0xa8 drivers/built-in.o
                0x000000004162770c                devfdt_get_addr_index
 .text.devfdt_get_addr
                0x00000000416277b4        0x8 drivers/built-in.o
                0x00000000416277b4                devfdt_get_addr
 .text.lists_driver_lookup_name
                0x00000000416277bc       0x48 drivers/built-in.o
                0x00000000416277bc                lists_driver_lookup_name
 .text.lists_uclass_lookup
                0x0000000041627804       0x38 drivers/built-in.o
                0x0000000041627804                lists_uclass_lookup
 .text.lists_bind_drivers
                0x000000004162783c       0x8c drivers/built-in.o
                0x000000004162783c                lists_bind_drivers
 .text.device_bind_driver_to_node
                0x00000000416278c8       0x48 drivers/built-in.o
                0x00000000416278c8                device_bind_driver_to_node
 .text.device_bind_driver
                0x0000000041627910       0x18 drivers/built-in.o
                0x0000000041627910                device_bind_driver
 .text.lists_bind_fdt
                0x0000000041627928      0x164 drivers/built-in.o
                0x0000000041627928                lists_bind_fdt
 .text.dm_scan_fdt_node
                0x0000000041627a8c       0xb8 drivers/built-in.o
 .text.dm_root  0x0000000041627b44       0x2c drivers/built-in.o
                0x0000000041627b44                dm_root
 .text.dm_get_translation_offset
                0x0000000041627b70       0x14 drivers/built-in.o
                0x0000000041627b70                dm_get_translation_offset
 .text.dm_init  0x0000000041627b84       0x60 drivers/built-in.o
                0x0000000041627b84                dm_init
 .text.dm_remove_devices_flags
                0x0000000041627be4       0x1c drivers/built-in.o
                0x0000000041627be4                dm_remove_devices_flags
 .text.dm_scan_platdata
                0x0000000041627c00       0x2c drivers/built-in.o
                0x0000000041627c00                dm_scan_platdata
 .text.dm_scan_fdt_dev
                0x0000000041627c2c       0x28 drivers/built-in.o
                0x0000000041627c2c                dm_scan_fdt_dev
 .text.dm_scan_fdt
                0x0000000041627c54       0x18 drivers/built-in.o
                0x0000000041627c54                dm_scan_fdt
 .text.dm_scan_other
                0x0000000041627c6c        0x8 drivers/built-in.o
                0x0000000041627c6c                dm_scan_other
 .text.dm_init_and_scan
                0x0000000041627c74       0x48 drivers/built-in.o
                0x0000000041627c74                dm_init_and_scan
 .text.uclass_find
                0x0000000041627cbc       0x4c drivers/built-in.o
                0x0000000041627cbc                uclass_find
 .text.uclass_get
                0x0000000041627d08      0x118 drivers/built-in.o
                0x0000000041627d08                uclass_get
 .text.uclass_find_device
                0x0000000041627e20       0x74 drivers/built-in.o
                0x0000000041627e20                uclass_find_device
 .text.uclass_find_first_device
                0x0000000041627e94       0x3c drivers/built-in.o
                0x0000000041627e94                uclass_find_first_device
 .text.uclass_find_next_device
                0x0000000041627ed0       0x2c drivers/built-in.o
                0x0000000041627ed0                uclass_find_next_device
 .text.uclass_find_device_by_seq
                0x0000000041627efc       0x7c drivers/built-in.o
                0x0000000041627efc                uclass_find_device_by_seq
 .text.uclass_find_device_by_of_offset
                0x0000000041627f78       0x68 drivers/built-in.o
                0x0000000041627f78                uclass_find_device_by_of_offset
 .text.uclass_get_device_by_driver
                0x0000000041627fe0       0x6c drivers/built-in.o
                0x0000000041627fe0                uclass_get_device_by_driver
 .text.uclass_get_device_tail
                0x000000004162804c       0x30 drivers/built-in.o
                0x000000004162804c                uclass_get_device_tail
 .text.uclass_get_device
                0x000000004162807c       0x30 drivers/built-in.o
                0x000000004162807c                uclass_get_device
 .text.uclass_get_device_by_seq
                0x00000000416280ac       0x54 drivers/built-in.o
                0x00000000416280ac                uclass_get_device_by_seq
 .text.uclass_get_device_by_of_offset
                0x0000000041628100       0x30 drivers/built-in.o
                0x0000000041628100                uclass_get_device_by_of_offset
 .text.uclass_first_device
                0x0000000041628130       0x38 drivers/built-in.o
                0x0000000041628130                uclass_first_device
 .text.uclass_next_device
                0x0000000041628168       0x40 drivers/built-in.o
                0x0000000041628168                uclass_next_device
 .text.uclass_bind_device
                0x00000000416281a8       0x7c drivers/built-in.o
                0x00000000416281a8                uclass_bind_device
 .text.uclass_unbind_device
                0x0000000041628224       0x4c drivers/built-in.o
                0x0000000041628224                uclass_unbind_device
 .text.uclass_resolve_seq
                0x0000000041628270       0xb4 drivers/built-in.o
                0x0000000041628270                uclass_resolve_seq
 .text.uclass_pre_probe_device
                0x0000000041628324       0x60 drivers/built-in.o
                0x0000000041628324                uclass_pre_probe_device
 .text.uclass_post_probe_device
                0x0000000041628384       0x20 drivers/built-in.o
                0x0000000041628384                uclass_post_probe_device
 .text.uclass_pre_remove_device
                0x00000000416283a4       0x20 drivers/built-in.o
                0x00000000416283a4                uclass_pre_remove_device
 .text.dm_warn  0x00000000416283c4       0x28 drivers/built-in.o
                0x00000000416283c4                dm_warn
 .text.dm_fdt_pre_reloc
                0x00000000416283ec       0x64 drivers/built-in.o
                0x00000000416283ec                dm_fdt_pre_reloc
 .text.device_unbind
                0x0000000041628450      0x144 drivers/built-in.o
                0x0000000041628450                device_unbind
 .text.device_free
                0x0000000041628594       0x90 drivers/built-in.o
                0x0000000041628594                device_free
 .text.device_remove
                0x0000000041628624      0x158 drivers/built-in.o
                0x0000000041628624                device_remove
 .text.simple_bus_post_bind
                0x000000004162877c       0x58 drivers/built-in.o
 .text.show_devices
                0x00000000416287d4      0x100 drivers/built-in.o
 .text.dm_dump_all
                0x00000000416288d4       0x3c drivers/built-in.o
                0x00000000416288d4                dm_dump_all
 .text.dm_dump_uclass
                0x0000000041628910       0xec drivers/built-in.o
                0x0000000041628910                dm_dump_uclass
 .text.ofnode_read_u32
                0x00000000416289fc       0x54 drivers/built-in.o
                0x00000000416289fc                ofnode_read_u32
 .text.ofnode_read_u32_default
                0x0000000041628a50       0x1c drivers/built-in.o
                0x0000000041628a50                ofnode_read_u32_default
 .text.ofnode_read_u32_array
                0x0000000041628a6c       0x28 drivers/built-in.o
                0x0000000041628a6c                ofnode_read_u32_array
 .text.ofnode_get_name
                0x0000000041628a94       0x10 drivers/built-in.o
                0x0000000041628a94                ofnode_get_name
 .text.ofnode_get_property
                0x0000000041628aa4       0x18 drivers/built-in.o
                0x0000000041628aa4                ofnode_get_property
 .text.get_desc
                0x0000000041628abc       0xac drivers/built-in.o
 .text.blk_get_if_type_name
                0x0000000041628b68       0x10 drivers/built-in.o
                0x0000000041628b68                blk_get_if_type_name
 .text.blk_get_devnum_by_typename
                0x0000000041628b78       0xe8 drivers/built-in.o
                0x0000000041628b78                blk_get_devnum_by_typename
 .text.blk_list_part
                0x0000000041628c60       0x74 drivers/built-in.o
                0x0000000041628c60                blk_list_part
 .text.blk_print_part_devnum
                0x0000000041628cd4       0x38 drivers/built-in.o
                0x0000000041628cd4                blk_print_part_devnum
 .text.blk_list_devices
                0x0000000041628d0c       0x68 drivers/built-in.o
                0x0000000041628d0c                blk_list_devices
 .text.blk_print_device_num
                0x0000000041628d74       0x3c drivers/built-in.o
                0x0000000041628d74                blk_print_device_num
 .text.blk_show_device
                0x0000000041628db0       0x78 drivers/built-in.o
                0x0000000041628db0                blk_show_device
 .text.blk_select_hwpart
                0x0000000041628e28       0x30 drivers/built-in.o
                0x0000000041628e28                blk_select_hwpart
 .text.blk_dselect_hwpart
                0x0000000041628e58        0x8 drivers/built-in.o
                0x0000000041628e58                blk_dselect_hwpart
 .text.blk_first_device
                0x0000000041628e60       0x60 drivers/built-in.o
                0x0000000041628e60                blk_first_device
 .text.blk_next_device
                0x0000000041628ec0       0x50 drivers/built-in.o
                0x0000000041628ec0                blk_next_device
 .text.blk_find_device
                0x0000000041628f10       0x80 drivers/built-in.o
                0x0000000041628f10                blk_find_device
 .text.blk_get_device
                0x0000000041628f90       0x20 drivers/built-in.o
                0x0000000041628f90                blk_get_device
 .text.blk_get_devnum_by_type
                0x0000000041628fb0       0x28 drivers/built-in.o
                0x0000000041628fb0                blk_get_devnum_by_type
 .text.blk_select_hwpart_devnum
                0x0000000041628fd8       0x2c drivers/built-in.o
                0x0000000041628fd8                blk_select_hwpart_devnum
 .text.blk_dread
                0x0000000041629004       0x30 drivers/built-in.o
                0x0000000041629004                blk_dread
 .text.blk_read_devnum
                0x0000000041629034       0x60 drivers/built-in.o
                0x0000000041629034                blk_read_devnum
 .text.blk_dwrite
                0x0000000041629094       0x30 drivers/built-in.o
                0x0000000041629094                blk_dwrite
 .text.blk_write_devnum
                0x00000000416290c4       0x38 drivers/built-in.o
                0x00000000416290c4                blk_write_devnum
 .text.blk_derase
                0x00000000416290fc       0x24 drivers/built-in.o
                0x00000000416290fc                blk_derase
 .text.blk_prepare_device
                0x0000000041629120       0x14 drivers/built-in.o
                0x0000000041629120                blk_prepare_device
 .text.blk_find_max_devnum
                0x0000000041629134       0x78 drivers/built-in.o
                0x0000000041629134                blk_find_max_devnum
 .text.blk_create_device
                0x00000000416291ac      0x168 drivers/built-in.o
                0x00000000416291ac                blk_create_device
 .text.blk_create_devicef
                0x0000000041629314       0xa0 drivers/built-in.o
                0x0000000041629314                blk_create_devicef
 .text.blk_unbind_all
                0x00000000416293b4       0xa4 drivers/built-in.o
                0x00000000416293b4                blk_unbind_all
 .text.misc_read
                0x0000000041629458       0x2c drivers/built-in.o
                0x0000000041629458                misc_read
 .text.misc_write
                0x0000000041629484       0x2c drivers/built-in.o
                0x0000000041629484                misc_write
 .text.dump_efuses
                0x00000000416294b0       0xb8 drivers/built-in.o
 .text.mc_efuse_ofdata_to_platdata
                0x0000000041629568       0x24 drivers/built-in.o
 .text.write_efuse
                0x000000004162958c       0xac drivers/built-in.o
 .text.efuse_init
                0x0000000041629638       0x58 drivers/built-in.o
 .text.mc_efuse_probe
                0x0000000041629690       0x44 drivers/built-in.o
 .text.mc_efuse_read
                0x00000000416296d4      0x114 drivers/built-in.o
 .text.mc_efuse_write
                0x00000000416297e8      0x148 drivers/built-in.o
 .text.aes_init_chn_reg
                0x0000000041629930       0x30 drivers/built-in.o
                0x0000000041629930                aes_init_chn_reg
 .text.aes_enable_channel
                0x0000000041629960       0x14 drivers/built-in.o
                0x0000000041629960                aes_enable_channel
 .text.aes_request_cid
                0x0000000041629974       0x18 drivers/built-in.o
                0x0000000041629974                aes_request_cid
 .text.aes_dma_int_enable
                0x000000004162998c       0x18 drivers/built-in.o
                0x000000004162998c                aes_dma_int_enable
 .text.aes_dma_fix_enable
                0x00000000416299a4       0x28 drivers/built-in.o
                0x00000000416299a4                aes_dma_fix_enable
 .text.aes_dma_trsc_len
                0x00000000416299cc       0x58 drivers/built-in.o
                0x00000000416299cc                aes_dma_trsc_len
 .text.aes_dma_trac_init
                0x0000000041629a24       0xb8 drivers/built-in.o
                0x0000000041629a24                aes_dma_trac_init
 .text.aes_dma_trac
                0x0000000041629adc       0x4c drivers/built-in.o
                0x0000000041629adc                aes_dma_trac
 .text.mc_aes_ofdata_to_platdata
                0x0000000041629b28       0x24 drivers/built-in.o
 .text.mc_aes_call
                0x0000000041629b4c      0x6f0 drivers/built-in.o
                0x0000000041629b4c                mc_aes_call
 .text.aes_enable
                0x000000004162a23c       0x28 drivers/built-in.o
                0x000000004162a23c                aes_enable
 .text.aes_test
                0x000000004162a264      0x758 drivers/built-in.o
 .text.mmc_send_op_cond_iter
                0x000000004162a9bc       0x78 drivers/built-in.o
 .text.mmc_send_ext_csd
                0x000000004162aa34       0x94 drivers/built-in.o
 .text.mmc_go_idle
                0x000000004162aac8       0x4c drivers/built-in.o
 .text.mmc_set_capacity
                0x000000004162ab14       0xa8 drivers/built-in.o
 .text.mmc_send_status
                0x000000004162abbc       0xd0 drivers/built-in.o
                0x000000004162abbc                mmc_send_status
 .text.mmc_set_blocklen
                0x000000004162ac8c       0x40 drivers/built-in.o
                0x000000004162ac8c                mmc_set_blocklen
 .text.mmc_bread
                0x000000004162accc      0x164 drivers/built-in.o
                0x000000004162accc                mmc_bread
 .text.mmc_switch
                0x000000004162ae30       0x68 drivers/built-in.o
                0x000000004162ae30                mmc_switch
 .text.mmc_switch_part
                0x000000004162ae98       0x64 drivers/built-in.o
                0x000000004162ae98                mmc_switch_part
 .text.mmc_hwpart_config
                0x000000004162aefc      0x454 drivers/built-in.o
                0x000000004162aefc                mmc_hwpart_config
 .text.mmc_set_clock
                0x000000004162b350       0x24 drivers/built-in.o
                0x000000004162b350                mmc_set_clock
 .text.mmc_startup
                0x000000004162b374      0xf2c drivers/built-in.o
 .text.mmc_start_init
                0x000000004162c2a0      0x220 drivers/built-in.o
                0x000000004162c2a0                mmc_start_init
 .text.mmc_init
                0x000000004162c4c0      0x140 drivers/built-in.o
                0x000000004162c4c0                mmc_init
 .text.mmc_set_dsr
                0x000000004162c600        0xc drivers/built-in.o
                0x000000004162c600                mmc_set_dsr
 .text.mmc_initialize
                0x000000004162c60c       0xc8 drivers/built-in.o
                0x000000004162c60c                mmc_initialize
 .text.mmc_blk_probe
                0x000000004162c6d4       0x18 drivers/built-in.o
 .text.dm_mmc_set_ios
                0x000000004162c6ec       0x20 drivers/built-in.o
                0x000000004162c6ec                dm_mmc_set_ios
 .text.mmc_set_ios
                0x000000004162c70c        0x8 drivers/built-in.o
                0x000000004162c70c                mmc_set_ios
 .text.dm_mmc_get_wp
                0x000000004162c714       0x20 drivers/built-in.o
                0x000000004162c714                dm_mmc_get_wp
 .text.mmc_getwp
                0x000000004162c734        0x8 drivers/built-in.o
                0x000000004162c734                mmc_getwp
 .text.dm_mmc_get_cd
                0x000000004162c73c       0x20 drivers/built-in.o
                0x000000004162c73c                dm_mmc_get_cd
 .text.mmc_getcd
                0x000000004162c75c        0x8 drivers/built-in.o
                0x000000004162c75c                mmc_getcd
 .text.mmc_get_mmc_dev
                0x000000004162c764       0x24 drivers/built-in.o
                0x000000004162c764                mmc_get_mmc_dev
 .text.dm_mmc_send_cmd
                0x000000004162c788       0x44 drivers/built-in.o
                0x000000004162c788                dm_mmc_send_cmd
 .text.mmc_send_cmd
                0x000000004162c7cc        0x8 drivers/built-in.o
                0x000000004162c7cc                mmc_send_cmd
 .text.mmc_select_hwpart
                0x000000004162c7d4       0x58 drivers/built-in.o
 .text.find_mmc_device
                0x000000004162c82c       0x4c drivers/built-in.o
                0x000000004162c82c                find_mmc_device
 .text.get_mmc_num
                0x000000004162c878       0x18 drivers/built-in.o
                0x000000004162c878                get_mmc_num
 .text.mmc_get_blk_desc
                0x000000004162c890       0x28 drivers/built-in.o
                0x000000004162c890                mmc_get_blk_desc
 .text.mmc_do_preinit
                0x000000004162c8b8       0x68 drivers/built-in.o
                0x000000004162c8b8                mmc_do_preinit
 .text.print_mmc_devices
                0x000000004162c920       0xe8 drivers/built-in.o
                0x000000004162c920                print_mmc_devices
 .text.mmc_bind
                0x000000004162ca08       0xc8 drivers/built-in.o
                0x000000004162ca08                mmc_bind
 .text.mmc_berase
                0x000000004162cad0      0x1bc drivers/built-in.o
                0x000000004162cad0                mmc_berase
 .text.mmc_bwrite
                0x000000004162cc8c      0x194 drivers/built-in.o
                0x000000004162cc8c                mmc_bwrite
 .text.dwmci_wait_reset
                0x000000004162ce20       0x38 drivers/built-in.o
 .text.dwmci_setup_bus.isra.0
                0x000000004162ce58       0xfc drivers/built-in.o
 .text.dwmci_set_ios
                0x000000004162cf54       0x84 drivers/built-in.o
 .text.dwmci_bounce_buffer_start.isra.0
                0x000000004162cfd8       0x7c drivers/built-in.o
 .text.dwmci_send_cmd
                0x000000004162d054      0x53c drivers/built-in.o
 .text.mc_dwmmc_clk_cfg
                0x000000004162d590       0xdc drivers/built-in.o
                0x000000004162d590                mc_dwmmc_clk_cfg
 .text.dwmci_probe
                0x000000004162d66c      0x104 drivers/built-in.o
                0x000000004162d66c                dwmci_probe
 .text.dwmci_setup_cfg
                0x000000004162d770       0x4c drivers/built-in.o
                0x000000004162d770                dwmci_setup_cfg
 .text.dwmci_bind
                0x000000004162d7bc        0x4 drivers/built-in.o
                0x000000004162d7bc                dwmci_bind
 .text.mc_dwmmc_probe
                0x000000004162d7c0       0xd8 drivers/built-in.o
 .text.mc_dwmmc_bind
                0x000000004162d898       0x20 drivers/built-in.o
 .text.dm_rtc_get
                0x000000004162d8b8       0x20 drivers/built-in.o
                0x000000004162d8b8                dm_rtc_get
 .text.dm_rtc_set
                0x000000004162d8d8       0x20 drivers/built-in.o
                0x000000004162d8d8                dm_rtc_set
 .text.dm_rtc_reset
                0x000000004162d8f8       0x20 drivers/built-in.o
                0x000000004162d8f8                dm_rtc_reset
 .text.rtc_calc_weekday
                0x000000004162d918       0xc4 drivers/built-in.o
                0x000000004162d918                rtc_calc_weekday
 .text.rtc_to_tm
                0x000000004162d9dc       0xfc drivers/built-in.o
                0x000000004162d9dc                rtc_to_tm
 .text.rtc_mktime
                0x000000004162dad8       0xac drivers/built-in.o
                0x000000004162dad8                rtc_mktime
 .text.mc_rtc_clk_init_fy00
                0x000000004162db84       0x34 drivers/built-in.o
 .text.molchip_remove
                0x000000004162dbb8        0x8 drivers/built-in.o
 .text.mc_rtc_poll_reg.constprop.0
                0x000000004162dbc0       0x54 drivers/built-in.o
 .text.molchip_rtc_get
                0x000000004162dc14       0x80 drivers/built-in.o
 .text.mc_rtc_core_write
                0x000000004162dc94       0x4c drivers/built-in.o
 .text.molchip_rtc_set
                0x000000004162dce0       0xf4 drivers/built-in.o
 .text.molchip_rtc_reset
                0x000000004162ddd4       0x48 drivers/built-in.o
 .text.molchip_probe
                0x000000004162de1c       0xb0 drivers/built-in.o
 .text.pwm_set_config
                0x000000004162decc       0x2c drivers/built-in.o
                0x000000004162decc                pwm_set_config
 .text.pwm_set_enable
                0x000000004162def8       0x20 drivers/built-in.o
                0x000000004162def8                pwm_set_enable
 .text.pwm_open
                0x000000004162df18       0x20 drivers/built-in.o
                0x000000004162df18                pwm_open
 .text.pwm_get_dev_by_name
                0x000000004162df38       0x74 drivers/built-in.o
                0x000000004162df38                pwm_get_dev_by_name
 .text.molchip_pwm_set_enable
                0x000000004162dfac       0x64 drivers/built-in.o
 .text.molchip_pwm_open
                0x000000004162e010      0x11c drivers/built-in.o
 .text.molchip_pwm_set_config
                0x000000004162e12c      0x1bc drivers/built-in.o
 .text.molchip_pwm_probe
                0x000000004162e2e8       0xfc drivers/built-in.o
 .text.pwm_test
                0x000000004162e3e4      0x11c drivers/built-in.o
 .text.dma_reset
                0x000000004162e500       0x1c drivers/dma/built-in.o
                0x000000004162e500                dma_reset
 .text.init_chn_reg
                0x000000004162e51c       0x30 drivers/dma/built-in.o
                0x000000004162e51c                init_chn_reg
 .text.enable_channel
                0x000000004162e54c       0x18 drivers/dma/built-in.o
                0x000000004162e54c                enable_channel
 .text.dma_chn_src
                0x000000004162e564       0x10 drivers/dma/built-in.o
                0x000000004162e564                dma_chn_src
 .text.dma_chn_dst
                0x000000004162e574       0x10 drivers/dma/built-in.o
                0x000000004162e574                dma_chn_dst
 .text.dma_trsc_len
                0x000000004162e584       0x58 drivers/dma/built-in.o
                0x000000004162e584                dma_trsc_len
 .text.dma_set_trsf_step
                0x000000004162e5dc       0x1c drivers/dma/built-in.o
                0x000000004162e5dc                dma_set_trsf_step
 .text.dma_int_enable
                0x000000004162e5f8       0x18 drivers/dma/built-in.o
                0x000000004162e5f8                dma_int_enable
 .text.dma_int_disable
                0x000000004162e610       0x18 drivers/dma/built-in.o
                0x000000004162e610                dma_int_disable
 .text.dma_int_clear
                0x000000004162e628       0x18 drivers/dma/built-in.o
                0x000000004162e628                dma_int_clear
 .text.dma_wait_complete
                0x000000004162e640       0x44 drivers/dma/built-in.o
                0x000000004162e640                dma_wait_complete
 .text.dma_llist_wait_complete
                0x000000004162e684       0x48 drivers/dma/built-in.o
                0x000000004162e684                dma_llist_wait_complete
 .text.spic_request_cid
                0x000000004162e6cc       0x18 drivers/dma/built-in.o
                0x000000004162e6cc                spic_request_cid
 .text.dma_init
                0x000000004162e6e4       0xa4 drivers/dma/built-in.o
                0x000000004162e6e4                dma_init
 .text.llist_enable
                0x000000004162e788       0x18 drivers/dma/built-in.o
                0x000000004162e788                llist_enable
 .text.dma_link_list
                0x000000004162e7a0      0x220 drivers/dma/built-in.o
                0x000000004162e7a0                dma_link_list
 .text.nor_dma_node_fill_new
                0x000000004162e9c0       0x88 drivers/dma/built-in.o
                0x000000004162e9c0                nor_dma_node_fill_new
 .text.gpio_set_mask.isra.0
                0x000000004162ea48       0x28 drivers/gpio/built-in.o
 .text.gpio_set_value
                0x000000004162ea70       0x48 drivers/gpio/built-in.o
                0x000000004162ea70                gpio_set_value
 .text.gpio_direction_output
                0x000000004162eab8       0x48 drivers/gpio/built-in.o
                0x000000004162eab8                gpio_direction_output
 .text.gpio_direction_input
                0x000000004162eb00       0x44 drivers/gpio/built-in.o
                0x000000004162eb00                gpio_direction_input
 .text.gpio_get_value
                0x000000004162eb44       0x2c drivers/gpio/built-in.o
                0x000000004162eb44                gpio_get_value
 .text.gpio_request
                0x000000004162eb70       0x38 drivers/gpio/built-in.o
                0x000000004162eb70                gpio_request
 .text.mtd_arg_off
                0x000000004162eba8       0x6c drivers/mtd/built-in.o
                0x000000004162eba8                mtd_arg_off
 .text.mtd_arg_off_size
                0x000000004162ec14       0xf0 drivers/mtd/built-in.o
                0x000000004162ec14                mtd_arg_off_size
 .text.spi_nor_read_mode
                0x000000004162ed04       0x70 drivers/mtd/spi/built-in.o
                0x000000004162ed04                spi_nor_read_mode
 .text.spi_nor_read_reg
                0x000000004162ed74       0x98 drivers/mtd/spi/built-in.o
                0x000000004162ed74                spi_nor_read_reg
 .text.spi_nor_write_reg
                0x000000004162ee0c       0x90 drivers/mtd/spi/built-in.o
                0x000000004162ee0c                spi_nor_write_reg
 .text.spi_nor_wait_ready
                0x000000004162ee9c       0x54 drivers/mtd/spi/built-in.o
                0x000000004162ee9c                spi_nor_wait_ready
 .text.spi_nor_write_enable
                0x000000004162eef0       0x10 drivers/mtd/spi/built-in.o
                0x000000004162eef0                spi_nor_write_enable
 .text.spi_quad_enable
                0x000000004162ef00       0x88 drivers/mtd/spi/built-in.o
                0x000000004162ef00                spi_quad_enable
 .text.spi_mx_quad_enable
                0x000000004162ef88       0x88 drivers/mtd/spi/built-in.o
                0x000000004162ef88                spi_mx_quad_enable
 .text.spi_giga_quad_enable
                0x000000004162f010       0x88 drivers/mtd/spi/built-in.o
                0x000000004162f010                spi_giga_quad_enable
 .text.spi_nor_write_enable_volatile
                0x000000004162f098       0x10 drivers/mtd/spi/built-in.o
                0x000000004162f098                spi_nor_write_enable_volatile
 .text.spi_spansion_quad_enable
                0x000000004162f0a8       0x8c drivers/mtd/spi/built-in.o
                0x000000004162f0a8                spi_spansion_quad_enable
 .text.spi_nor_write_disable
                0x000000004162f134       0x10 drivers/mtd/spi/built-in.o
                0x000000004162f134                spi_nor_write_disable
 .text.spi_nor_get_dummy
                0x000000004162f144       0x98 drivers/mtd/spi/built-in.o
                0x000000004162f144                spi_nor_get_dummy
 .text.spi_nor_ops
                0x000000004162f1dc      0x114 drivers/mtd/spi/built-in.o
                0x000000004162f1dc                spi_nor_ops
 .text.spi_nor_read_data
                0x000000004162f2f0       0xa0 drivers/mtd/spi/built-in.o
                0x000000004162f2f0                spi_nor_read_data
 .text.spi_nor_write_data
                0x000000004162f390       0x60 drivers/mtd/spi/built-in.o
                0x000000004162f390                spi_nor_write_data
 .text.spi_nor_program
                0x000000004162f3f0      0x108 drivers/mtd/spi/built-in.o
                0x000000004162f3f0                spi_nor_program
 .text.spi_dtr_enable
                0x000000004162f4f8       0x18 drivers/mtd/spi/built-in.o
                0x000000004162f4f8                spi_dtr_enable
 .text.spi_dtr_disable
                0x000000004162f510       0x14 drivers/mtd/spi/built-in.o
                0x000000004162f510                spi_dtr_disable
 .text.nfc_set_dtr_enable
                0x000000004162f524       0x38 drivers/mtd/spi/built-in.o
                0x000000004162f524                nfc_set_dtr_enable
 .text.spi_nor_read_setfreq
                0x000000004162f55c       0x2c drivers/mtd/spi/built-in.o
                0x000000004162f55c                spi_nor_read_setfreq
 .text.spi_dma_linklist_read_start
                0x000000004162f588      0x250 drivers/mtd/spi/built-in.o
                0x000000004162f588                spi_dma_linklist_read_start
 .text.spi_dma_linklist_read_stop
                0x000000004162f7d8       0x90 drivers/mtd/spi/built-in.o
                0x000000004162f7d8                spi_dma_linklist_read_stop
 .text.spi_nor_read
                0x000000004162f868       0xb4 drivers/mtd/spi/built-in.o
                0x000000004162f868                spi_nor_read
 .text.spi_nor_cont_read_done
                0x000000004162f91c       0x70 drivers/mtd/spi/built-in.o
                0x000000004162f91c                spi_nor_cont_read_done
 .text.spi_nor_erase_sector
                0x000000004162f98c       0x24 drivers/mtd/spi/built-in.o
                0x000000004162f98c                spi_nor_erase_sector
 .text.spi_nor_erase
                0x000000004162f9b0       0x98 drivers/mtd/spi/built-in.o
                0x000000004162f9b0                spi_nor_erase
 .text.spi_nor_read_id
                0x000000004162fa48       0xa4 drivers/mtd/spi/built-in.o
                0x000000004162fa48                spi_nor_read_id
 .text.spi_nor_convert_opcode
                0x000000004162faec       0x38 drivers/mtd/spi/built-in.o
                0x000000004162faec                spi_nor_convert_opcode
 .text.spi_nor_init_params
                0x000000004162fb24      0x16c drivers/mtd/spi/built-in.o
                0x000000004162fb24                spi_nor_init_params
 .text.spi_nor_hwcaps2cmd
                0x000000004162fc90       0x44 drivers/mtd/spi/built-in.o
                0x000000004162fc90                spi_nor_hwcaps2cmd
 .text.spi_nor_hwcaps_read2cmd
                0x000000004162fcd4       0x10 drivers/mtd/spi/built-in.o
                0x000000004162fcd4                spi_nor_hwcaps_read2cmd
 .text.spi_nor_hwcaps_pp2cmd
                0x000000004162fce4       0x10 drivers/mtd/spi/built-in.o
                0x000000004162fce4                spi_nor_hwcaps_pp2cmd
 .text.spi_nor_select_read
                0x000000004162fcf4       0xa0 drivers/mtd/spi/built-in.o
                0x000000004162fcf4                spi_nor_select_read
 .text.spi_nor_select_pp
                0x000000004162fd94       0x80 drivers/mtd/spi/built-in.o
                0x000000004162fd94                spi_nor_select_pp
 .text.spi_nor_select_erase
                0x000000004162fe14       0x40 drivers/mtd/spi/built-in.o
                0x000000004162fe14                spi_nor_select_erase
 .text.spi_nor_init
                0x000000004162fe54       0x34 drivers/mtd/spi/built-in.o
                0x000000004162fe54                spi_nor_init
 .text.spi_nor_setup
                0x000000004162fe88       0xe0 drivers/mtd/spi/built-in.o
                0x000000004162fe88                spi_nor_setup
 .text.spi_nor_scan
                0x000000004162ff68      0x224 drivers/mtd/spi/built-in.o
                0x000000004162ff68                spi_nor_scan
 .text.spi_nor_flash
                0x000000004163018c       0x80 drivers/mtd/spi/built-in.o
                0x000000004163018c                spi_nor_flash
 .text.spi_nand_flash
                0x000000004163020c       0x74 drivers/mtd/spi/built-in.o
                0x000000004163020c                spi_nand_flash
 .text.nvm_boot_device
                0x0000000041630280       0x48 drivers/mtd/spi/built-in.o
                0x0000000041630280                nvm_boot_device
 .text.spi_flash_probe
                0x00000000416302c8       0x48 drivers/mtd/spi/built-in.o
                0x00000000416302c8                spi_flash_probe
 .text.spi_flash_free
                0x0000000041630310        0x4 drivers/mtd/spi/built-in.o
                0x0000000041630310                spi_flash_free
 .text._dw_write_hwaddr
                0x0000000041630314       0x48 drivers/net/built-in.o
 .text.designware_eth_bind
                0x000000004163035c        0x8 drivers/net/built-in.o
 .text.designware_eth_free_pkt
                0x0000000041630364       0x4c drivers/net/built-in.o
                0x0000000041630364                designware_eth_free_pkt
 .text.dw_mdio_write
                0x00000000416303b0       0x88 drivers/net/built-in.o
 .text.dw_mdio_read
                0x0000000041630438       0x88 drivers/net/built-in.o
 .text.designware_eth_recv
                0x00000000416304c0       0x68 drivers/net/built-in.o
                0x00000000416304c0                designware_eth_recv
 .text.designware_eth_send
                0x0000000041630528       0xec drivers/net/built-in.o
                0x0000000041630528                designware_eth_send
 .text.designware_eth_stop
                0x0000000041630614       0x4c drivers/net/built-in.o
                0x0000000041630614                designware_eth_stop
 .text.designware_eth_write_hwaddr
                0x0000000041630660       0x24 drivers/net/built-in.o
                0x0000000041630660                designware_eth_write_hwaddr
 .text.designware_eth_ofdata_to_platdata
                0x0000000041630684       0x98 drivers/net/built-in.o
                0x0000000041630684                designware_eth_ofdata_to_platdata
 .text.designware_eth_remove
                0x000000004163071c       0x2c drivers/net/built-in.o
 .text.designware_eth_probe
                0x0000000041630748      0x118 drivers/net/built-in.o
                0x0000000041630748                designware_eth_probe
 .text.designware_eth_init
                0x0000000041630860      0x280 drivers/net/built-in.o
                0x0000000041630860                designware_eth_init
 .text.designware_eth_enable
                0x0000000041630ae0       0x3c drivers/net/built-in.o
                0x0000000041630ae0                designware_eth_enable
 .text.designware_eth_start
                0x0000000041630b1c       0x38 drivers/net/built-in.o
 .text.nc_wait_arp_handler
                0x0000000041630b54       0x14 drivers/net/built-in.o
 .text.nc_handler
                0x0000000041630b68       0x24 drivers/net/built-in.o
 .text.nc_timeout_handler
                0x0000000041630b8c       0x14 drivers/net/built-in.o
 .text.is_broadcast
                0x0000000041630ba0       0xa8 drivers/net/built-in.o
 .text.nc_stdio_getc
                0x0000000041630c48       0x88 drivers/net/built-in.o
 .text.nc_send_packet
                0x0000000041630cd0      0x154 drivers/net/built-in.o
 .text.nc_stdio_putc
                0x0000000041630e24       0x38 drivers/net/built-in.o
 .text.refresh_settings_from_env
                0x0000000041630e5c      0x128 drivers/net/built-in.o
 .text.nc_stdio_start
                0x0000000041630f84       0x38 drivers/net/built-in.o
 .text.nc_stdio_tstc
                0x0000000041630fbc       0x7c drivers/net/built-in.o
 .text.nc_stdio_puts
                0x0000000041631038       0x64 drivers/net/built-in.o
 .text.nc_start
                0x000000004163109c       0xdc drivers/net/built-in.o
                0x000000004163109c                nc_start
 .text.nc_input_packet
                0x0000000041631178       0xec drivers/net/built-in.o
                0x0000000041631178                nc_input_packet
 .text.drv_nc_init
                0x0000000041631264       0x84 drivers/net/built-in.o
                0x0000000041631264                drv_nc_init
 .text.qos_free_pkt
                0x00000000416312e8       0x84 drivers/net/built-in.o
                0x00000000416312e8                qos_free_pkt
 .text.qos_stop
                0x000000004163136c       0xd0 drivers/net/built-in.o
                0x000000004163136c                qos_stop
 .text.qos_set_full_duplex
                0x000000004163143c       0x3c drivers/net/built-in.o
 .text.qos_send
                0x0000000041631478       0xc8 drivers/net/built-in.o
                0x0000000041631478                qos_send
 .text.qos_recv
                0x0000000041631540       0x60 drivers/net/built-in.o
                0x0000000041631540                qos_recv
 .text.qos_write_hwaddr
                0x00000000416315a0       0x5c drivers/net/built-in.o
 .text.qos_probe_resources_core
                0x00000000416315fc       0xc0 drivers/net/built-in.o
 .text.qos_remove
                0x00000000416316bc       0x30 drivers/net/built-in.o
 .text.qos_mdio_wait_idle.isra.0
                0x00000000416316ec       0x64 drivers/net/built-in.o
 .text.qos_mdio_read
                0x0000000041631750       0xb0 drivers/net/built-in.o
 .text.qos_mdio_write
                0x0000000041631800       0xb4 drivers/net/built-in.o
 .text.bit_modify_rdata.isra.0
                0x00000000416318b4       0x1c drivers/net/built-in.o
 .text.bit_check_and_modify.isra.0
                0x00000000416318d0       0x48 drivers/net/built-in.o
 .text.qos_probe
                0x0000000041631918      0xe10 drivers/net/built-in.o
 .text.qos_start
                0x0000000041632728      0x670 drivers/net/built-in.o
 .text.change_loopback
                0x0000000041632d98      0x200 drivers/net/built-in.o
                0x0000000041632d98                change_loopback
 .text.init_gmac
                0x0000000041632f98      0x118 drivers/net/built-in.o
 .text.scan_function.isra.0
                0x00000000416330b0      0xbf8 drivers/net/built-in.o
 .text.do_dpll_scan
                0x0000000041633ca8      0x220 drivers/net/built-in.o
 .text.gmac_loopback_autoscan
                0x0000000041633ec8      0x230 drivers/net/built-in.o
                0x0000000041633ec8                gmac_loopback_autoscan
 .text.genphy_shutdown
                0x00000000416340f8        0x8 drivers/net/phy/built-in.o
                0x00000000416340f8                genphy_shutdown
 .text.genphy_restart_aneg
                0x0000000041634100       0x5c drivers/net/phy/built-in.o
                0x0000000041634100                genphy_restart_aneg
 .text.genphy_config_aneg
                0x000000004163415c      0x1fc drivers/net/phy/built-in.o
                0x000000004163415c                genphy_config_aneg
 .text.genphy_config
                0x0000000041634358       0xc4 drivers/net/phy/built-in.o
                0x0000000041634358                genphy_config
 .text.genphy_update_link
                0x000000004163441c      0x150 drivers/net/phy/built-in.o
                0x000000004163441c                genphy_update_link
 .text.genphy_parse_link
                0x000000004163456c      0x19c drivers/net/phy/built-in.o
                0x000000004163456c                genphy_parse_link
 .text.genphy_startup
                0x0000000041634708       0x20 drivers/net/phy/built-in.o
                0x0000000041634708                genphy_startup
 .text.phy_init
                0x0000000041634728       0x14 drivers/net/phy/built-in.o
                0x0000000041634728                phy_init
 .text.phy_register
                0x000000004163473c       0x28 drivers/net/phy/built-in.o
                0x000000004163473c                phy_register
 .text.phy_set_supported
                0x0000000041634764       0x58 drivers/net/phy/built-in.o
                0x0000000041634764                phy_set_supported
 .text.get_phy_id
                0x00000000416347bc       0x70 drivers/net/phy/built-in.o
                0x00000000416347bc                get_phy_id
 .text.get_phy_device_by_mask
                0x000000004163482c      0x294 drivers/net/phy/built-in.o
 .text.phy_reset
                0x0000000041634ac0       0xb8 drivers/net/phy/built-in.o
                0x0000000041634ac0                phy_reset
 .text.phy_find_by_mask
                0x0000000041634b78       0x3c drivers/net/phy/built-in.o
                0x0000000041634b78                phy_find_by_mask
 .text.phy_connect_dev
                0x0000000041634bb4       0x68 drivers/net/phy/built-in.o
                0x0000000041634bb4                phy_connect_dev
 .text.phy_connect
                0x0000000041634c1c       0x50 drivers/net/phy/built-in.o
                0x0000000041634c1c                phy_connect
 .text.phy_startup
                0x0000000041634c6c       0x1c drivers/net/phy/built-in.o
                0x0000000041634c6c                phy_startup
 .text.board_phy_config
                0x0000000041634c88       0x1c drivers/net/phy/built-in.o
                0x0000000041634c88                board_phy_config
 .text.phy_config
                0x0000000041634ca4        0x4 drivers/net/phy/built-in.o
                0x0000000041634ca4                phy_config
 .text.phy_shutdown
                0x0000000041634ca8       0x28 drivers/net/phy/built-in.o
                0x0000000041634ca8                phy_shutdown
 .text.phy_get_interface_by_name
                0x0000000041634cd0       0x40 drivers/net/phy/built-in.o
                0x0000000041634cd0                phy_get_interface_by_name
 .text.rtl8211b_probe
                0x0000000041634d10        0x8 drivers/net/phy/built-in.o
 .text.rtl8201f_config
                0x0000000041634d18      0x1bc drivers/net/phy/built-in.o
 .text.rtl8211x_config
                0x0000000041634ed4       0xc0 drivers/net/phy/built-in.o
 .text.rtl8211f_config
                0x0000000041634f94       0xb8 drivers/net/phy/built-in.o
 .text.rtl8211x_startup
                0x000000004163504c      0x114 drivers/net/phy/built-in.o
 .text.rtl8211f_startup
                0x0000000041635160       0xfc drivers/net/phy/built-in.o
 .text.rtl8211e_startup
                0x000000004163525c       0x20 drivers/net/phy/built-in.o
 .text.phy_realtek_init
                0x000000004163527c       0x48 drivers/net/phy/built-in.o
                0x000000004163527c                phy_realtek_init
 .text.mochip7c01_phy_reset
                0x00000000416352c4        0x8 drivers/net/phy/built-in.o
 .text.mochip7c01_startup
                0x00000000416352cc       0x20 drivers/net/phy/built-in.o
                0x00000000416352cc                mochip7c01_startup
 .text.mochip7c01_config
                0x00000000416352ec       0x20 drivers/net/phy/built-in.o
 .text.auto_find_phy
                0x000000004163530c      0x2e8 drivers/net/phy/built-in.o
                0x000000004163530c                auto_find_phy
 .text.phy_molchip_init
                0x00000000416355f4       0x18 drivers/net/phy/built-in.o
                0x00000000416355f4                phy_molchip_init
 .text._serial_putc
                0x000000004163560c       0x40 drivers/serial/built-in.o
 .text.__serial_getc
                0x000000004163564c       0x2c drivers/serial/built-in.o
 .text.__serial_tstc
                0x0000000041635678       0x24 drivers/serial/built-in.o
 .text.serial_stub_putc
                0x000000004163569c        0x8 drivers/serial/built-in.o
 .text.serial_stub_puts
                0x00000000416356a4       0x24 drivers/serial/built-in.o
 .text.serial_stub_getc
                0x00000000416356c8        0x8 drivers/serial/built-in.o
 .text.serial_stub_tstc
                0x00000000416356d0        0x8 drivers/serial/built-in.o
 .text.serial_pre_remove
                0x00000000416356d8        0x8 drivers/serial/built-in.o
 .text.serial_post_probe
                0x00000000416356e0       0xc0 drivers/serial/built-in.o
 .text.serial_init
                0x00000000416357a0      0x15c drivers/serial/built-in.o
                0x00000000416357a0                serial_init
 .text.serial_initialize
                0x00000000416358fc        0x4 drivers/serial/built-in.o
                0x00000000416358fc                serial_initialize
 .text.serial_putc
                0x0000000041635900       0x18 drivers/serial/built-in.o
                0x0000000041635900                serial_putc
 .text.serial_puts
                0x0000000041635918       0x30 drivers/serial/built-in.o
                0x0000000041635918                serial_puts
 .text.serial_getc
                0x0000000041635948       0x14 drivers/serial/built-in.o
                0x0000000041635948                serial_getc
 .text.serial_tstc
                0x000000004163595c       0x14 drivers/serial/built-in.o
                0x000000004163595c                serial_tstc
 .text.serial_setbrg
                0x0000000041635970       0x30 drivers/serial/built-in.o
                0x0000000041635970                serial_setbrg
 .text.on_baudrate
                0x00000000416359a0       0xec drivers/serial/built-in.o
 .text.serial_stdio_init
                0x0000000041635a8c        0x4 drivers/serial/built-in.o
                0x0000000041635a8c                serial_stdio_init
 .text.ts01_serial_setbrg
                0x0000000041635a90       0x78 drivers/serial/built-in.o
                0x0000000041635a90                ts01_serial_setbrg
 .text.ts01_serial_probe
                0x0000000041635b08       0x60 drivers/serial/built-in.o
 .text.ts01_serial_getc
                0x0000000041635b68       0x24 drivers/serial/built-in.o
 .text.ts01_serial_putc
                0x0000000041635b8c       0x28 drivers/serial/built-in.o
 .text.ts01_serial_pending
                0x0000000041635bb4       0x24 drivers/serial/built-in.o
 .text.ts01_serial_ofdata_to_platdata
                0x0000000041635bd8       0x48 drivers/serial/built-in.o
 .text.enalbe_spic
                0x0000000041635c20       0x1c drivers/spi/built-in.o
                0x0000000041635c20                enalbe_spic
 .text.reset_spic
                0x0000000041635c3c       0x3c drivers/spi/built-in.o
                0x0000000041635c3c                reset_spic
 .text.clk_select_spic
                0x0000000041635c78       0x28 drivers/spi/built-in.o
                0x0000000041635c78                clk_select_spic
 .text.spi_enable
                0x0000000041635ca0       0x14 drivers/spi/built-in.o
                0x0000000041635ca0                spi_enable
 .text.spi_set_polarity
                0x0000000041635cb4       0x20 drivers/spi/built-in.o
                0x0000000041635cb4                spi_set_polarity
 .text.spi_set_phase
                0x0000000041635cd4       0x20 drivers/spi/built-in.o
                0x0000000041635cd4                spi_set_phase
 .text.spi_set_baudrate
                0x0000000041635cf4       0x10 drivers/spi/built-in.o
                0x0000000041635cf4                spi_set_baudrate
 .text.spi_set_dummy_byte
                0x0000000041635d04       0x20 drivers/spi/built-in.o
                0x0000000041635d04                spi_set_dummy_byte
 .text.spi_rx_sample_delay
                0x0000000041635d24       0x10 drivers/spi/built-in.o
                0x0000000041635d24                spi_rx_sample_delay
 .text.sfc_cmd_write
                0x0000000041635d34       0x18 drivers/spi/built-in.o
                0x0000000041635d34                sfc_cmd_write
 .text.sfc_cmd_read
                0x0000000041635d4c       0x18 drivers/spi/built-in.o
                0x0000000041635d4c                sfc_cmd_read
 .text.sfc_ecc_enable
                0x0000000041635d64       0x34 drivers/spi/built-in.o
                0x0000000041635d64                sfc_ecc_enable
 .text.sfc_data_type
                0x0000000041635d98       0x20 drivers/spi/built-in.o
                0x0000000041635d98                sfc_data_type
 .text.sfc_addr_length
                0x0000000041635db8       0x28 drivers/spi/built-in.o
                0x0000000041635db8                sfc_addr_length
 .text.sfc_spare_length
                0x0000000041635de0       0x2c drivers/spi/built-in.o
                0x0000000041635de0                sfc_spare_length
 .text.sfc_spare_len_1k
                0x0000000041635e0c       0x28 drivers/spi/built-in.o
                0x0000000041635e0c                sfc_spare_len_1k
 .text.nfc_data_length
                0x0000000041635e34       0x28 drivers/spi/built-in.o
                0x0000000041635e34                nfc_data_length
 .text.sfc_data_length
                0x0000000041635e5c       0x3c drivers/spi/built-in.o
                0x0000000041635e5c                sfc_data_length
 .text.ecc_sts_clr
                0x0000000041635e98       0x14 drivers/spi/built-in.o
                0x0000000041635e98                ecc_sts_clr
 .text.sfc_ecc_clr
                0x0000000041635eac       0x20 drivers/spi/built-in.o
                0x0000000041635eac                sfc_ecc_clr
 .text.sfc_start_exec
                0x0000000041635ecc       0x7c drivers/spi/built-in.o
                0x0000000041635ecc                sfc_start_exec
 .text.sfc_cmd  0x0000000041635f48       0x1c drivers/spi/built-in.o
                0x0000000041635f48                sfc_cmd
 .text.sfc_addr
                0x0000000041635f64       0x70 drivers/spi/built-in.o
                0x0000000041635f64                sfc_addr
 .text.nfc_fb_incdec_mode
                0x0000000041635fd4       0x1c drivers/spi/built-in.o
                0x0000000041635fd4                nfc_fb_incdec_mode
 .text.nfc_set_tmod
                0x0000000041635ff0       0x20 drivers/spi/built-in.o
                0x0000000041635ff0                nfc_set_tmod
 .text.nfc_set_fldform
                0x0000000041636010       0x20 drivers/spi/built-in.o
                0x0000000041636010                nfc_set_fldform
 .text.nfc_set_frmform
                0x0000000041636030       0x20 drivers/spi/built-in.o
                0x0000000041636030                nfc_set_frmform
 .text.nfc_set_cmd_wmode
                0x0000000041636050       0x20 drivers/spi/built-in.o
                0x0000000041636050                nfc_set_cmd_wmode
 .text.nfc_set_phase_vld
                0x0000000041636070       0x1c drivers/spi/built-in.o
                0x0000000041636070                nfc_set_phase_vld
 .text.nfc_set_data_wmode
                0x000000004163608c       0x1c drivers/spi/built-in.o
                0x000000004163608c                nfc_set_data_wmode
 .text.nfc_set_addr_wmode
                0x00000000416360a8       0x20 drivers/spi/built-in.o
                0x00000000416360a8                nfc_set_addr_wmode
 .text.sfc_dev_mode_reg_set
                0x00000000416360c8       0xa0 drivers/spi/built-in.o
                0x00000000416360c8                sfc_dev_mode_reg_set
 .text.sfc_write_reg
                0x0000000041636168       0x10 drivers/spi/built-in.o
                0x0000000041636168                sfc_write_reg
 .text.sfc_ecc_pos
                0x0000000041636178       0x38 drivers/spi/built-in.o
                0x0000000041636178                sfc_ecc_pos
 .text.sfc_write_data
                0x00000000416361b0       0x88 drivers/spi/built-in.o
                0x00000000416361b0                sfc_write_data
 .text.sfc_read_reg
                0x0000000041636238       0x10 drivers/spi/built-in.o
                0x0000000041636238                sfc_read_reg
 .text.sfc_wait_fbuf2_ready
                0x0000000041636248       0x34 drivers/spi/built-in.o
                0x0000000041636248                sfc_wait_fbuf2_ready
 .text.sfc_fbuf2_ack
                0x000000004163627c       0x10 drivers/spi/built-in.o
                0x000000004163627c                sfc_fbuf2_ack
 .text.sfc_read_data
                0x000000004163628c       0x78 drivers/spi/built-in.o
                0x000000004163628c                sfc_read_data
 .text.sfc_dma_rx0_stop
                0x0000000041636304       0x10 drivers/spi/built-in.o
                0x0000000041636304                sfc_dma_rx0_stop
 .text.sfc_dma_wait_ready
                0x0000000041636314        0x8 drivers/spi/built-in.o
                0x0000000041636314                sfc_dma_wait_ready
 .text.sfc_write_spare
                0x000000004163631c       0x60 drivers/spi/built-in.o
                0x000000004163631c                sfc_write_spare
 .text.sfc_read_spare
                0x000000004163637c       0x8c drivers/spi/built-in.o
                0x000000004163637c                sfc_read_spare
 .text.sfc_ecc_enc_mode
                0x0000000041636408       0x1c drivers/spi/built-in.o
                0x0000000041636408                sfc_ecc_enc_mode
 .text.sfc_spare_ecc_byte
                0x0000000041636424       0x2c drivers/spi/built-in.o
                0x0000000041636424                sfc_spare_ecc_byte
 .text.sfc_ecc_page_size
                0x0000000041636450       0x20 drivers/spi/built-in.o
                0x0000000041636450                sfc_ecc_page_size
 .text.nfc_dma_reg_inter_num
                0x0000000041636470       0x18 drivers/spi/built-in.o
                0x0000000041636470                nfc_dma_reg_inter_num
 .text.spi_cs_holdtime
                0x0000000041636488       0x1c drivers/spi/built-in.o
                0x0000000041636488                spi_cs_holdtime
 .text.spi_set_rd_delay_cnt
                0x00000000416364a4       0x18 drivers/spi/built-in.o
                0x00000000416364a4                spi_set_rd_delay_cnt
 .text.sfc_ecc_mode
                0x00000000416364bc       0x1c drivers/spi/built-in.o
                0x00000000416364bc                sfc_ecc_mode
 .text.spi_init
                0x00000000416364d8       0xa8 drivers/spi/built-in.o
                0x00000000416364d8                spi_init
 .text.board_spic_init
                0x0000000041636580        0x8 drivers/spi/built-in.o
                0x0000000041636580                board_spic_init
 .text.nfc_all_clr
                0x0000000041636588       0x30 drivers/spi/built-in.o
                0x0000000041636588                nfc_all_clr
 .text.sfc_all_clr
                0x00000000416365b8        0x4 drivers/spi/built-in.o
                0x00000000416365b8                sfc_all_clr
 .text.sfc_access_start
                0x00000000416365bc       0x10 drivers/spi/built-in.o
                0x00000000416365bc                sfc_access_start
 .text.nfc_flowbuf_clr
                0x00000000416365cc       0x10 drivers/spi/built-in.o
                0x00000000416365cc                nfc_flowbuf_clr
 .text.nfc_cmd_set_clr
                0x00000000416365dc       0x2c drivers/spi/built-in.o
                0x00000000416365dc                nfc_cmd_set_clr
 .text.nfc_dma_en
                0x0000000041636608       0x1c drivers/spi/built-in.o
                0x0000000041636608                nfc_dma_en
 .text.nfc_dma_common_reg_set
                0x0000000041636624       0x3c drivers/spi/built-in.o
                0x0000000041636624                nfc_dma_common_reg_set
 .text.nfc_dma_rx_ch0_start
                0x0000000041636660       0x38 drivers/spi/built-in.o
                0x0000000041636660                nfc_dma_rx_ch0_start
 .text.nfc_dma_rx_ch0_reg_set
                0x0000000041636698        0x4 drivers/spi/built-in.o
                0x0000000041636698                nfc_dma_rx_ch0_reg_set
 .text.nfc_ccmd_datalength
                0x000000004163669c       0x2c drivers/spi/built-in.o
                0x000000004163669c                nfc_ccmd_datalength
 .text.nfc_dev_mode_reg_set
                0x00000000416366c8       0x54 drivers/spi/built-in.o
                0x00000000416366c8                nfc_dev_mode_reg_set
 .text.nfc_cmd  0x000000004163671c       0x18 drivers/spi/built-in.o
                0x000000004163671c                nfc_cmd
 .text.sfc_done
                0x0000000041636734       0x44 drivers/spi/built-in.o
                0x0000000041636734                sfc_done
 .text.spi_set_4_bit_address_mode
                0x0000000041636778       0x30 drivers/spi/built-in.o
                0x0000000041636778                spi_set_4_bit_address_mode
 .text.nfc_data_type
                0x00000000416367a8       0x20 drivers/spi/built-in.o
                0x00000000416367a8                nfc_data_type
 .text.nfc_set_page_size
                0x00000000416367c8       0x2c drivers/spi/built-in.o
                0x00000000416367c8                nfc_set_page_size
 .text.nfc_cmd_type
                0x00000000416367f4       0x20 drivers/spi/built-in.o
                0x00000000416367f4                nfc_cmd_type
 .text.nfc_cmd_mode_reg_set
                0x0000000041636814       0x24 drivers/spi/built-in.o
                0x0000000041636814                nfc_cmd_mode_reg_set
 .text.nfc_read_en
                0x0000000041636838        0x4 drivers/spi/built-in.o
                0x0000000041636838                nfc_read_en
 .text.nfc_check_buf_p2_rdy
                0x000000004163683c       0x30 drivers/spi/built-in.o
                0x000000004163683c                nfc_check_buf_p2_rdy
 .text.nfc_addr_length
                0x000000004163686c       0x20 drivers/spi/built-in.o
                0x000000004163686c                nfc_addr_length
 .text.spic_addr
                0x000000004163688c       0x70 drivers/spi/built-in.o
                0x000000004163688c                spic_addr
 .text.nfc_cmd_set_reg_set
                0x00000000416368fc       0x58 drivers/spi/built-in.o
                0x00000000416368fc                nfc_cmd_set_reg_set
 .text.write_nfc_soft_fb_p2_ack
                0x0000000041636954       0x14 drivers/spi/built-in.o
                0x0000000041636954                write_nfc_soft_fb_p2_ack
 .text.sfc_dma_nor_read_data
                0x0000000041636968       0x40 drivers/spi/built-in.o
                0x0000000041636968                sfc_dma_nor_read_data
 .text.usb_get_dr_mode
                0x00000000416369a8       0x80 drivers/usb/common/built-in.o
                0x00000000416369a8                usb_get_dr_mode
 .text.usb_ether_register
                0x0000000041636a28      0x114 drivers/usb/eth/built-in.o
                0x0000000041636a28                usb_ether_register
 .text.usb_ether_deregister
                0x0000000041636b3c        0x8 drivers/usb/eth/built-in.o
                0x0000000041636b3c                usb_ether_deregister
 .text.usb_ether_receive
                0x0000000041636b44       0xa4 drivers/usb/eth/built-in.o
                0x0000000041636b44                usb_ether_receive
 .text.usb_ether_advance_rxbuf
                0x0000000041636be8       0x2c drivers/usb/eth/built-in.o
                0x0000000041636be8                usb_ether_advance_rxbuf
 .text.usb_ether_get_rx_bytes
                0x0000000041636c14       0x28 drivers/usb/eth/built-in.o
                0x0000000041636c14                usb_ether_get_rx_bytes
 .text.asix_eth_stop
                0x0000000041636c3c        0x4 drivers/usb/eth/built-in.o
                0x0000000041636c3c                asix_eth_stop
 .text.asix_send_common
                0x0000000041636c40       0x9c drivers/usb/eth/built-in.o
 .text.asix_eth_send
                0x0000000041636cdc       0x24 drivers/usb/eth/built-in.o
                0x0000000041636cdc                asix_eth_send
 .text.asix_eth_recv
                0x0000000041636d00       0xc4 drivers/usb/eth/built-in.o
                0x0000000041636d00                asix_eth_recv
 .text.asix_free_pkt
                0x0000000041636dc4       0x28 drivers/usb/eth/built-in.o
 .text.asix_read_cmd.isra.0
                0x0000000041636dec       0x54 drivers/usb/eth/built-in.o
 .text.asix_read_rx_ctl.isra.0
                0x0000000041636e40       0x34 drivers/usb/eth/built-in.o
 .text.asix_write_cmd.isra.0
                0x0000000041636e74       0x50 drivers/usb/eth/built-in.o
 .text.asix_sw_reset.isra.0
                0x0000000041636ec4       0x3c drivers/usb/eth/built-in.o
 .text.asix_mdio_read
                0x0000000041636f00       0x84 drivers/usb/eth/built-in.o
 .text.asix_mdio_write
                0x0000000041636f84       0x84 drivers/usb/eth/built-in.o
 .text.asix_eth_probe
                0x0000000041637008      0x2e8 drivers/usb/eth/built-in.o
 .text.asix_write_hwaddr_common
                0x00000000416372f0       0x48 drivers/usb/eth/built-in.o
 .text.asix_write_hwaddr
                0x0000000041637338       0x3c drivers/usb/eth/built-in.o
                0x0000000041637338                asix_write_hwaddr
 .text.asix_eth_start
                0x0000000041637374       0xf4 drivers/usb/eth/built-in.o
 .text.usb_child_post_bind
                0x0000000041637468       0x70 drivers/usb/host/built-in.o
 .text.remove_inactive_children.constprop.0
                0x00000000416374d8       0x6c drivers/usb/host/built-in.o
 .text.usb_match_one_id
                0x0000000041637544      0x16c drivers/usb/host/built-in.o
 .text.usb_disable_asynch
                0x00000000416376b0       0x20 drivers/usb/host/built-in.o
                0x00000000416376b0                usb_disable_asynch
 .text.submit_int_msg
                0x00000000416376d0       0x44 drivers/usb/host/built-in.o
                0x00000000416376d0                submit_int_msg
 .text.submit_control_msg
                0x0000000041637714       0x84 drivers/usb/host/built-in.o
                0x0000000041637714                submit_control_msg
 .text.submit_bulk_msg
                0x0000000041637798       0x40 drivers/usb/host/built-in.o
                0x0000000041637798                submit_bulk_msg
 .text.usb_alloc_device
                0x00000000416377d8       0x28 drivers/usb/host/built-in.o
                0x00000000416377d8                usb_alloc_device
 .text.usb_reset_root_port
                0x0000000041637800       0x28 drivers/usb/host/built-in.o
                0x0000000041637800                usb_reset_root_port
 .text.usb_update_hub_device
                0x0000000041637828       0x28 drivers/usb/host/built-in.o
                0x0000000041637828                usb_update_hub_device
 .text.usb_stop
                0x0000000041637850       0xb0 drivers/usb/host/built-in.o
                0x0000000041637850                usb_stop
 .text.usb_get_bus
                0x0000000041637900       0x30 drivers/usb/host/built-in.o
                0x0000000041637900                usb_get_bus
 .text.usb_scan_device
                0x0000000041637930      0x280 drivers/usb/host/built-in.o
                0x0000000041637930                usb_scan_device
 .text.usb_scan_bus.constprop.0
                0x0000000041637bb0       0x74 drivers/usb/host/built-in.o
 .text.usb_init
                0x0000000041637c24      0x1d0 drivers/usb/host/built-in.o
                0x0000000041637c24                usb_init
 .text.usb_child_pre_probe
                0x0000000041637df4       0x68 drivers/usb/host/built-in.o
                0x0000000041637df4                usb_child_pre_probe
 .text.xhci_submit_int_msg
                0x0000000041637e5c        0x8 drivers/usb/host/built-in.o
 .text.handshake
                0x0000000041637e64       0x5c drivers/usb/host/built-in.o
 .text.xhci_reset
                0x0000000041637ec0       0xac drivers/usb/host/built-in.o
 .text.xhci_submit_bulk_msg
                0x0000000041637f6c       0x3c drivers/usb/host/built-in.o
 .text.xhci_get_ep_index.isra.0
                0x0000000041637fa8       0x24 drivers/usb/host/built-in.o
 .text.xhci_get_ctrl
                0x0000000041637fcc       0x2c drivers/usb/host/built-in.o
                0x0000000041637fcc                xhci_get_ctrl
 .text.xhci_configure_endpoints
                0x0000000041637ff8       0xec drivers/usb/host/built-in.o
 .text.xhci_update_hub_device
                0x00000000416380e4      0x144 drivers/usb/host/built-in.o
 .text.xhci_alloc_device
                0x0000000041638228       0xcc drivers/usb/host/built-in.o
 .text.xhci_submit_control_msg
                0x00000000416382f4      0x824 drivers/usb/host/built-in.o
 .text.xhci_check_maxpacket
                0x0000000041638b18       0xc8 drivers/usb/host/built-in.o
                0x0000000041638b18                xhci_check_maxpacket
 .text.xhci_register
                0x0000000041638be0      0x18c drivers/usb/host/built-in.o
                0x0000000041638be0                xhci_register
 .text.xhci_deregister
                0x0000000041638d6c       0x5c drivers/usb/host/built-in.o
                0x0000000041638d6c                xhci_deregister
 .text.xhci_link_segments
                0x0000000041638dc8       0x4c drivers/usb/host/built-in.o
 .text.xhci_ring_free
                0x0000000041638e14       0x84 drivers/usb/host/built-in.o
 .text.xhci_flush_cache
                0x0000000041638e98       0x50 drivers/usb/host/built-in.o
                0x0000000041638e98                xhci_flush_cache
 .text.xhci_malloc
                0x0000000041638ee8       0x6c drivers/usb/host/built-in.o
 .text.xhci_segment_alloc
                0x0000000041638f54       0x5c drivers/usb/host/built-in.o
 .text.xhci_alloc_container_ctx
                0x0000000041638fb0       0xa8 drivers/usb/host/built-in.o
 .text.xhci_inval_cache
                0x0000000041639058       0x50 drivers/usb/host/built-in.o
                0x0000000041639058                xhci_inval_cache
 .text.xhci_cleanup
                0x00000000416390a8      0x144 drivers/usb/host/built-in.o
                0x00000000416390a8                xhci_cleanup
 .text.xhci_ring_alloc
                0x00000000416391ec       0xe8 drivers/usb/host/built-in.o
                0x00000000416391ec                xhci_ring_alloc
 .text.xhci_alloc_virt_device
                0x00000000416392d4       0xe0 drivers/usb/host/built-in.o
                0x00000000416392d4                xhci_alloc_virt_device
 .text.xhci_mem_init
                0x00000000416393b4      0x30c drivers/usb/host/built-in.o
                0x00000000416393b4                xhci_mem_init
 .text.xhci_get_input_control_ctx
                0x00000000416396c0       0x44 drivers/usb/host/built-in.o
                0x00000000416396c0                xhci_get_input_control_ctx
 .text.xhci_get_slot_ctx
                0x0000000041639704       0x34 drivers/usb/host/built-in.o
                0x0000000041639704                xhci_get_slot_ctx
 .text.xhci_get_ep_ctx
                0x0000000041639738       0x34 drivers/usb/host/built-in.o
                0x0000000041639738                xhci_get_ep_ctx
 .text.xhci_endpoint_copy
                0x000000004163976c       0x54 drivers/usb/host/built-in.o
                0x000000004163976c                xhci_endpoint_copy
 .text.xhci_slot_copy
                0x00000000416397c0       0x44 drivers/usb/host/built-in.o
                0x00000000416397c0                xhci_slot_copy
 .text.xhci_setup_addressable_virt_dev
                0x0000000041639804      0x24c drivers/usb/host/built-in.o
                0x0000000041639804                xhci_setup_addressable_virt_dev
 .text.record_transfer_result
                0x0000000041639a50       0xc4 drivers/usb/host/built-in.o
 .text.giveback_first_trb
                0x0000000041639b14       0x5c drivers/usb/host/built-in.o
 .text.last_trb_on_last_seg.isra.0
                0x0000000041639b70       0x3c drivers/usb/host/built-in.o
 .text.queue_trb.isra.0
                0x0000000041639bac      0x10c drivers/usb/host/built-in.o
 .text.prepare_ring
                0x0000000041639cb8      0x10c drivers/usb/host/built-in.o
 .text.xhci_queue_command
                0x0000000041639dc4       0xc0 drivers/usb/host/built-in.o
                0x0000000041639dc4                xhci_queue_command
 .text.xhci_acknowledge_event
                0x0000000041639e84       0xd0 drivers/usb/host/built-in.o
                0x0000000041639e84                xhci_acknowledge_event
 .text.xhci_wait_for_event
                0x0000000041639f54      0x110 drivers/usb/host/built-in.o
                0x0000000041639f54                xhci_wait_for_event
 .text.abort_td
                0x000000004163a064      0x150 drivers/usb/host/built-in.o
 .text.xhci_bulk_tx
                0x000000004163a1b4      0x354 drivers/usb/host/built-in.o
                0x000000004163a1b4                xhci_bulk_tx
 .text.xhci_ctrl_tx
                0x000000004163a508      0x344 drivers/usb/host/built-in.o
                0x000000004163a508                xhci_ctrl_tx
 .text.xhci_dwc3_remove
                0x000000004163a84c       0x18 drivers/usb/host/built-in.o
 .text.dwc3_set_mode
                0x000000004163a864       0x14 drivers/usb/host/built-in.o
                0x000000004163a864                dwc3_set_mode
 .text.dwc3_core_soft_reset
                0x000000004163a878       0x84 drivers/usb/host/built-in.o
                0x000000004163a878                dwc3_core_soft_reset
 .text.dwc3_core_init
                0x000000004163a8fc       0x80 drivers/usb/host/built-in.o
                0x000000004163a8fc                dwc3_core_init
 .text.xhci_dwc3_probe
                0x000000004163a97c       0x60 drivers/usb/host/built-in.o
 .text.molchip_usb3_enable_phy
                0x000000004163a9dc       0xf4 drivers/usb/phy/built-in.o
                0x000000004163a9dc                molchip_usb3_enable_phy
 .text.env_get_yesno
                0x000000004163aad0       0x3c env/built-in.o
                0x000000004163aad0                env_get_yesno
 .text.env_get_default
                0x000000004163ab0c       0x30 env/built-in.o
                0x000000004163ab0c                env_get_default
 .text.set_default_env
                0x000000004163ab3c       0xa8 env/built-in.o
                0x000000004163ab3c                set_default_env
 .text.set_default_vars
                0x000000004163abe4       0x3c env/built-in.o
                0x000000004163abe4                set_default_vars
 .text.env_import
                0x000000004163ac20       0xe0 env/built-in.o
                0x000000004163ac20                env_import
 .text.env_export
                0x000000004163ad00       0xa0 env/built-in.o
                0x000000004163ad00                env_export
 .text.env_relocate
                0x000000004163ada0       0x2c env/built-in.o
                0x000000004163ada0                env_relocate
 .text.env_complete
                0x000000004163adcc       0xdc env/built-in.o
                0x000000004163adcc                env_complete
 .text.env_driver_lookup_default
                0x000000004163aea8       0x34 env/built-in.o
                0x000000004163aea8                env_driver_lookup_default
 .text.env_get_char
                0x000000004163aedc       0x54 env/built-in.o
                0x000000004163aedc                env_get_char
 .text.env_load
                0x000000004163af30       0x2c env/built-in.o
                0x000000004163af30                env_load
 .text.env_save
                0x000000004163af5c       0x34 env/built-in.o
                0x000000004163af5c                env_save
 .text.env_init
                0x000000004163af90       0x50 env/built-in.o
                0x000000004163af90                env_init
 .text.env_attr_walk
                0x000000004163afe0      0x114 env/built-in.o
                0x000000004163afe0                env_attr_walk
 .text.env_attr_lookup
                0x000000004163b0f4      0x184 env/built-in.o
                0x000000004163b0f4                env_attr_lookup
 .text.clear_callback
                0x000000004163b278       0x10 env/built-in.o
 .text.find_env_callback
                0x000000004163b288       0x5c env/built-in.o
 .text.on_callbacks
                0x000000004163b2e4       0x50 env/built-in.o
 .text.set_callback
                0x000000004163b334       0x9c env/built-in.o
 .text.env_callback_init
                0x000000004163b3d0       0xc4 env/built-in.o
                0x000000004163b3d0                env_callback_init
 .text.skip_num
                0x000000004163b494       0x6c env/built-in.o
 .text.clear_flags
                0x000000004163b500       0x10 env/built-in.o
 .text.on_flags
                0x000000004163b510       0x50 env/built-in.o
 .text.env_flags_parse_vartype
                0x000000004163b560       0x50 env/built-in.o
                0x000000004163b560                env_flags_parse_vartype
 .text.env_flags_parse_varaccess
                0x000000004163b5b0       0x50 env/built-in.o
                0x000000004163b5b0                env_flags_parse_varaccess
 .text.env_parse_flags_to_bin
                0x000000004163b600       0x2c env/built-in.o
 .text.set_flags
                0x000000004163b62c       0x94 env/built-in.o
 .text.eth_validate_ethaddr_str
                0x000000004163b6c0       0x94 env/built-in.o
                0x000000004163b6c0                eth_validate_ethaddr_str
 .text.env_flags_init
                0x000000004163b754       0xbc env/built-in.o
                0x000000004163b754                env_flags_init
 .text.env_flags_validate
                0x000000004163b810      0x284 env/built-in.o
                0x000000004163b810                env_flags_validate
 .text.setup_flash_device.part.0
                0x000000004163ba94       0x4c env/built-in.o
 .text.env_sf_load
                0x000000004163bae0       0xbc env/built-in.o
 .text.env_sf_save.part.0
                0x000000004163bb9c       0xe8 env/built-in.o
 .text.env_sf_save
                0x000000004163bc84       0x30 env/built-in.o
 .text.fs_probe_unsupported
                0x000000004163bcb4       0x18 fs/built-in.o
 .text.fs_ls_unsupported
                0x000000004163bccc        0x8 fs/built-in.o
 .text.fs_exists_unsupported
                0x000000004163bcd4        0x8 fs/built-in.o
 .text.fs_size_unsupported
                0x000000004163bcdc        0x8 fs/built-in.o
 .text.fs_read_unsupported
                0x000000004163bce4        0x8 fs/built-in.o
 .text.fs_close_unsupported
                0x000000004163bcec        0x4 fs/built-in.o
 .text.fs_get_info
                0x000000004163bcf0       0x20 fs/built-in.o
 .text.fs_close
                0x000000004163bd10       0x28 fs/built-in.o
 .text.fs_write_unsupported
                0x000000004163bd38        0x8 fs/built-in.o
 .text.fs_uuid_unsupported
                0x000000004163bd40        0x8 fs/built-in.o
 .text.fs_set_blk_dev
                0x000000004163bd48       0xb8 fs/built-in.o
                0x000000004163bd48                fs_set_blk_dev
 .text.fs_ls    0x000000004163be00       0x3c fs/built-in.o
                0x000000004163be00                fs_ls
 .text.fs_size  0x000000004163be3c       0x3c fs/built-in.o
                0x000000004163be3c                fs_size
 .text.fs_read  0x000000004163be78       0xa8 fs/built-in.o
                0x000000004163be78                fs_read
 .text.do_size  0x000000004163bf20       0x60 fs/built-in.o
                0x000000004163bf20                do_size
 .text.do_load  0x000000004163bf80      0x230 fs/built-in.o
                0x000000004163bf80                do_load
 .text.do_ls    0x000000004163c1b0       0x64 fs/built-in.o
                0x000000004163c1b0                do_ls
 .text.downcase
                0x000000004163c214       0x30 fs/built-in.o
 .text.dirdelim
                0x000000004163c244       0x30 fs/built-in.o
 .text.mkcksum  0x000000004163c274       0x50 fs/built-in.o
 .text.disk_read
                0x000000004163c2c4       0x5c fs/built-in.o
 .text.get_cluster
                0x000000004163c320      0x17c fs/built-in.o
 .text.get_name
                0x000000004163c49c       0xac fs/built-in.o
 .text.read_bootsectandvi
                0x000000004163c548      0x114 fs/built-in.o
 .text.disk_write
                0x000000004163c65c       0x90 fs/built-in.o
 .text.flush_dirty_fat_buffer
                0x000000004163c6ec       0xa8 fs/built-in.o
 .text.get_fatent
                0x000000004163c794      0x18c fs/built-in.o
 .text.find_empty_cluster
                0x000000004163c920       0x2c fs/built-in.o
 .text.set_cluster
                0x000000004163c94c      0x178 fs/built-in.o
 .text.set_name
                0x000000004163cac4      0x144 fs/built-in.o
 .text.check_overflow
                0x000000004163cc08       0x78 fs/built-in.o
 .text.slot2str
                0x000000004163cc80       0xc4 fs/built-in.o
 .text.get_vfatname.constprop.0.isra.0
                0x000000004163cd44      0x1b0 fs/built-in.o
 .text.set_fatent_value.isra.0
                0x000000004163cef4      0x1c8 fs/built-in.o
 .text.flush_dir_table.constprop.0
                0x000000004163d0bc       0xd4 fs/built-in.o
 .text.do_fat_write
                0x000000004163d190      0xc38 fs/built-in.o
 .text.fat_set_blk_dev
                0x000000004163ddc8       0xcc fs/built-in.o
                0x000000004163ddc8                fat_set_blk_dev
 .text.do_fat_read_at
                0x000000004163de94      0xc90 fs/built-in.o
                0x000000004163de94                do_fat_read_at
 .text.do_fat_read
                0x000000004163eb24       0x3c fs/built-in.o
                0x000000004163eb24                do_fat_read
 .text.file_fat_detectfs
                0x000000004163eb60      0x148 fs/built-in.o
                0x000000004163eb60                file_fat_detectfs
 .text.file_fat_ls
                0x000000004163eca8       0x2c fs/built-in.o
                0x000000004163eca8                file_fat_ls
 .text.fat_exists
                0x000000004163ecd4       0x44 fs/built-in.o
                0x000000004163ecd4                fat_exists
 .text.fat_size
                0x000000004163ed18       0x38 fs/built-in.o
                0x000000004163ed18                fat_size
 .text.file_fat_read_at
                0x000000004163ed50       0x60 fs/built-in.o
                0x000000004163ed50                file_fat_read_at
 .text.fat_read_file
                0x000000004163edb0       0x48 fs/built-in.o
                0x000000004163edb0                fat_read_file
 .text.fat_close
                0x000000004163edf8        0x4 fs/built-in.o
                0x000000004163edf8                fat_close
 .text.file_fat_write
                0x000000004163edfc       0x5c fs/built-in.o
                0x000000004163edfc                file_fat_write
 .text.zcalloc  0x000000004163ee58        0x8 lib/built-in.o
                0x000000004163ee58                zcalloc
 .text.zcfree   0x000000004163ee60        0x8 lib/built-in.o
                0x000000004163ee60                zcfree
 .text.inflate_fast
                0x000000004163ee68      0x578 lib/built-in.o
                0x000000004163ee68                inflate_fast
 .text.inflate_table
                0x000000004163f3e0      0x4fc lib/built-in.o
                0x000000004163f3e0                inflate_table
 .text.inflateReset
                0x000000004163f8dc       0x78 lib/built-in.o
                0x000000004163f8dc                inflateReset
 .text.inflateInit2_
                0x000000004163f954      0x100 lib/built-in.o
                0x000000004163f954                inflateInit2_
 .text.inflateEnd
                0x000000004163fa54       0x64 lib/built-in.o
                0x000000004163fa54                inflateEnd
 .text.adler32  0x000000004163fab8      0x348 lib/built-in.o
                0x000000004163fab8                adler32
 .text.inflate  0x000000004163fe00     0x14fc lib/built-in.o
                0x000000004163fe00                inflate
 .text.gzalloc  0x00000000416412fc       0x10 lib/built-in.o
                0x00000000416412fc                gzalloc
 .text.gzfree   0x000000004164130c        0x8 lib/built-in.o
                0x000000004164130c                gzfree
 .text.zunzip   0x0000000041641314      0x11c lib/built-in.o
                0x0000000041641314                zunzip
 .text.gunzip   0x0000000041641430       0xbc lib/built-in.o
                0x0000000041641430                gunzip
 .text.initcall_run_list
                0x00000000416414ec       0x5c lib/built-in.o
                0x00000000416414ec                initcall_run_list
 .text.lmb_add_region
                0x0000000041641548      0x18c lib/built-in.o
 .text.lmb_init
                0x00000000416416d4       0x28 lib/built-in.o
                0x00000000416416d4                lmb_init
 .text.lmb_add  0x00000000416416fc        0x4 lib/built-in.o
                0x00000000416416fc                lmb_add
 .text.lmb_free
                0x0000000041641700       0xe8 lib/built-in.o
                0x0000000041641700                lmb_free
 .text.lmb_reserve
                0x00000000416417e8        0x8 lib/built-in.o
                0x00000000416417e8                lmb_reserve
 .text.__lmb_alloc_base
                0x00000000416417f0      0x12c lib/built-in.o
                0x00000000416417f0                __lmb_alloc_base
 .text.lmb_alloc_base
                0x000000004164191c       0x34 lib/built-in.o
                0x000000004164191c                lmb_alloc_base
 .text.lmb_alloc
                0x0000000041641950        0x8 lib/built-in.o
                0x0000000041641950                lmb_alloc
 .text.board_lmb_reserve
                0x0000000041641958        0x4 lib/built-in.o
                0x0000000041641958                board_lmb_reserve
 .text.string_to_ip
                0x000000004164195c       0x90 lib/built-in.o
                0x000000004164195c                string_to_ip
 .text.qsort    0x00000000416419ec       0xe8 lib/built-in.o
                0x00000000416419ec                qsort
 .text.strcmp_compar
                0x0000000041641ad4        0xc lib/built-in.o
                0x0000000041641ad4                strcmp_compar
 .text.fdt_check_header
                0x0000000041641ae0       0x74 lib/built-in.o
                0x0000000041641ae0                fdt_check_header
 .text.fdt_offset_ptr
                0x0000000041641b54       0x6c lib/built-in.o
                0x0000000041641b54                fdt_offset_ptr
 .text.fdt_next_tag
                0x0000000041641bc0       0xf4 lib/built-in.o
                0x0000000041641bc0                fdt_next_tag
 .text._fdt_check_node_offset
                0x0000000041641cb4       0x3c lib/built-in.o
                0x0000000041641cb4                _fdt_check_node_offset
 .text._fdt_check_prop_offset
                0x0000000041641cf0       0x3c lib/built-in.o
                0x0000000041641cf0                _fdt_check_prop_offset
 .text.fdt_next_node
                0x0000000041641d2c       0xbc lib/built-in.o
                0x0000000041641d2c                fdt_next_node
 .text.fdt_first_subnode
                0x0000000041641de8       0x34 lib/built-in.o
                0x0000000041641de8                fdt_first_subnode
 .text.fdt_next_subnode
                0x0000000041641e1c       0x4c lib/built-in.o
                0x0000000041641e1c                fdt_next_subnode
 .text._fdt_find_string
                0x0000000041641e68       0x58 lib/built-in.o
                0x0000000041641e68                _fdt_find_string
 .text.fdt_move
                0x0000000041641ec0       0x44 lib/built-in.o
                0x0000000041641ec0                fdt_move
 .text.fdt_path_next_separator
                0x0000000041641f04       0x50 lib/built-in.o
 .text._nextprop
                0x0000000041641f54       0x54 lib/built-in.o
 .text.fdt_string
                0x0000000041641fa8       0x14 lib/built-in.o
                0x0000000041641fa8                fdt_string
 .text.fdt_get_mem_rsv
                0x0000000041641fbc       0x5c lib/built-in.o
                0x0000000041641fbc                fdt_get_mem_rsv
 .text.fdt_num_mem_rsv
                0x0000000041642018       0x2c lib/built-in.o
                0x0000000041642018                fdt_num_mem_rsv
 .text.fdt_subnode_offset_namelen
                0x0000000041642044       0xd0 lib/built-in.o
                0x0000000041642044                fdt_subnode_offset_namelen
 .text.fdt_subnode_offset
                0x0000000041642114       0x30 lib/built-in.o
                0x0000000041642114                fdt_subnode_offset
 .text.fdt_get_name
                0x0000000041642144       0x74 lib/built-in.o
                0x0000000041642144                fdt_get_name
 .text.fdt_first_property_offset
                0x00000000416421b8       0x20 lib/built-in.o
                0x00000000416421b8                fdt_first_property_offset
 .text.fdt_next_property_offset
                0x00000000416421d8       0x20 lib/built-in.o
                0x00000000416421d8                fdt_next_property_offset
 .text.fdt_get_property_by_offset
                0x00000000416421f8       0x50 lib/built-in.o
                0x00000000416421f8                fdt_get_property_by_offset
 .text.fdt_get_property_namelen
                0x0000000041642248       0xbc lib/built-in.o
                0x0000000041642248                fdt_get_property_namelen
 .text.fdt_get_property
                0x0000000041642304       0x3c lib/built-in.o
                0x0000000041642304                fdt_get_property
 .text.fdt_getprop_namelen
                0x0000000041642340       0x20 lib/built-in.o
                0x0000000041642340                fdt_getprop_namelen
 .text.fdt_getprop_by_offset
                0x0000000041642360       0x44 lib/built-in.o
                0x0000000041642360                fdt_getprop_by_offset
 .text.fdt_getprop
                0x00000000416423a4       0x3c lib/built-in.o
                0x00000000416423a4                fdt_getprop
 .text.fdt_get_alias_namelen
                0x00000000416423e0       0x44 lib/built-in.o
                0x00000000416423e0                fdt_get_alias_namelen
 .text.fdt_path_offset_namelen
                0x0000000041642424       0xd8 lib/built-in.o
                0x0000000041642424                fdt_path_offset_namelen
 .text.fdt_path_offset
                0x00000000416424fc       0x28 lib/built-in.o
                0x00000000416424fc                fdt_path_offset
 .text.fdt_supernode_atdepth_offset
                0x0000000041642524       0x9c lib/built-in.o
                0x0000000041642524                fdt_supernode_atdepth_offset
 .text.fdt_node_depth
                0x00000000416425c0       0x28 lib/built-in.o
                0x00000000416425c0                fdt_node_depth
 .text.fdt_parent_offset
                0x00000000416425e8       0x30 lib/built-in.o
                0x00000000416425e8                fdt_parent_offset
 .text._fdt_blocks_misordered
                0x0000000041642618       0x64 lib/built-in.o
 .text._fdt_splice
                0x000000004164267c       0x9c lib/built-in.o
 .text._fdt_splice_mem_rsv
                0x0000000041642718       0x54 lib/built-in.o
 .text._fdt_splice_struct
                0x000000004164276c       0x4c lib/built-in.o
 .text._fdt_packblocks
                0x00000000416427b8       0x8c lib/built-in.o
 .text._fdt_find_add_string
                0x0000000041642844       0xa4 lib/built-in.o
 .text._fdt_add_property
                0x00000000416428e8       0x90 lib/built-in.o
 .text._fdt_rw_check_header
                0x0000000041642978       0x60 lib/built-in.o
 .text.fdt_add_mem_rsv
                0x00000000416429d8       0x84 lib/built-in.o
                0x00000000416429d8                fdt_add_mem_rsv
 .text.fdt_del_mem_rsv
                0x0000000041642a5c       0x58 lib/built-in.o
                0x0000000041642a5c                fdt_del_mem_rsv
 .text.fdt_setprop
                0x0000000041642ab4       0xec lib/built-in.o
                0x0000000041642ab4                fdt_setprop
 .text.fdt_delprop
                0x0000000041642ba0       0x68 lib/built-in.o
                0x0000000041642ba0                fdt_delprop
 .text.fdt_add_subnode_namelen
                0x0000000041642c08       0xf0 lib/built-in.o
                0x0000000041642c08                fdt_add_subnode_namelen
 .text.fdt_add_subnode
                0x0000000041642cf8       0x30 lib/built-in.o
                0x0000000041642cf8                fdt_add_subnode
 .text.fdt_del_node
                0x0000000041642d28       0x50 lib/built-in.o
                0x0000000041642d28                fdt_del_node
 .text.fdt_open_into
                0x0000000041642d78      0x18c lib/built-in.o
                0x0000000041642d78                fdt_open_into
 .text.fdt_strerror
                0x0000000041642f04       0x58 lib/built-in.o
                0x0000000041642f04                fdt_strerror
 .text._fdt_node_end_offset
                0x0000000041642f5c       0x40 lib/built-in.o
                0x0000000041642f5c                _fdt_node_end_offset
 .text.fdt_address_cells
                0x0000000041642f9c       0x4c lib/built-in.o
                0x0000000041642f9c                fdt_address_cells
 .text.fdt_size_cells
                0x0000000041642fe8       0x48 lib/built-in.o
                0x0000000041642fe8                fdt_size_cells
 .text.fdtdec_get_int
                0x0000000041643030       0x34 lib/built-in.o
                0x0000000041643030                fdtdec_get_int
 .text.fdtdec_get_uint
                0x0000000041643064       0x34 lib/built-in.o
                0x0000000041643064                fdtdec_get_uint
 .text.get_prop_check_min_len
                0x0000000041643098       0x3c lib/built-in.o
 .text.fdtdec_get_is_enabled
                0x00000000416430d4       0x3c lib/built-in.o
                0x00000000416430d4                fdtdec_get_is_enabled
 .text.fdtdec_get_alias_seq
                0x0000000041643110      0x118 lib/built-in.o
                0x0000000041643110                fdtdec_get_alias_seq
 .text.fdtdec_get_chosen_prop
                0x0000000041643228       0x34 lib/built-in.o
                0x0000000041643228                fdtdec_get_chosen_prop
 .text.fdtdec_get_chosen_node
                0x000000004164325c       0x28 lib/built-in.o
                0x000000004164325c                fdtdec_get_chosen_node
 .text.fdtdec_prepare_fdt
                0x0000000041643284       0x44 lib/built-in.o
                0x0000000041643284                fdtdec_prepare_fdt
 .text.fdtdec_get_int_array
                0x00000000416432c8       0x64 lib/built-in.o
                0x00000000416432c8                fdtdec_get_int_array
 .text.fdtdec_get_config_int
                0x000000004164332c       0x40 lib/built-in.o
                0x000000004164332c                fdtdec_get_config_int
 .text.fdtdec_get_config_string
                0x000000004164336c       0x3c lib/built-in.o
                0x000000004164336c                fdtdec_get_config_string
 .text.fdtdec_setup
                0x00000000416433a8       0x30 lib/built-in.o
                0x00000000416433a8                fdtdec_setup
 .text.cmpkey   0x00000000416433d8       0x14 lib/built-in.o
 .text.drop_var_from_set.part.0
                0x00000000416433ec       0x50 lib/built-in.o
 .text.match_string.constprop.0
                0x000000004164343c       0x60 lib/built-in.o
 .text._hdelete.constprop.0
                0x000000004164349c       0x50 lib/built-in.o
 .text.hcreate_r
                0x00000000416434ec       0x9c lib/built-in.o
                0x00000000416434ec                hcreate_r
 .text.hdestroy_r
                0x0000000041643588       0x6c lib/built-in.o
                0x0000000041643588                hdestroy_r
 .text.hmatch_r
                0x00000000416435f4       0x9c lib/built-in.o
                0x00000000416435f4                hmatch_r
 .text.hsearch_r
                0x0000000041643690      0x474 lib/built-in.o
                0x0000000041643690                hsearch_r
 .text.hdelete_r
                0x0000000041643b04       0xf0 lib/built-in.o
                0x0000000041643b04                hdelete_r
 .text.hexport_r
                0x0000000041643bf4      0x2ec lib/built-in.o
                0x0000000041643bf4                hexport_r
 .text.himport_r
                0x0000000041643ee0      0x3f8 lib/built-in.o
                0x0000000041643ee0                himport_r
 .text.hwalk_r  0x00000000416442d8       0x5c lib/built-in.o
                0x00000000416442d8                hwalk_r
 .text.display_options_get_banner_priv
                0x0000000041644334       0x98 lib/built-in.o
                0x0000000041644334                display_options_get_banner_priv
 .text.display_options_get_banner
                0x00000000416443cc       0x14 lib/built-in.o
                0x00000000416443cc                display_options_get_banner
 .text.display_options
                0x00000000416443e0       0x34 lib/built-in.o
                0x00000000416443e0                display_options
 .text.print_size
                0x0000000041644414      0x124 lib/built-in.o
                0x0000000041644414                print_size
 .text.print_buffer
                0x0000000041644538      0x1d0 lib/built-in.o
                0x0000000041644538                print_buffer
 .text.crc32_no_comp
                0x0000000041644708       0xd8 lib/built-in.o
                0x0000000041644708                crc32_no_comp
 .text.crc32    0x00000000416447e0       0x14 lib/built-in.o
                0x00000000416447e0                crc32
 .text.crc32_wd
                0x00000000416447f4        0x4 lib/built-in.o
                0x00000000416447f4                crc32_wd
 .text.crc32_wd_buf
                0x00000000416447f8       0x38 lib/built-in.o
                0x00000000416447f8                crc32_wd_buf
 .text.__div64_32
                0x0000000041644830       0xc8 lib/built-in.o
                0x0000000041644830                __div64_32
 .text.hang     0x00000000416448f8       0x1c lib/built-in.o
                0x00000000416448f8                hang
 .text.skip_spaces
                0x0000000041644914       0x28 lib/built-in.o
                0x0000000041644914                skip_spaces
 .text.strim    0x000000004164493c       0x5c lib/built-in.o
                0x000000004164493c                strim
 .text.strcpy   0x0000000041644998       0x18 lib/built-in.o
                0x0000000041644998                strcpy
 .text.strncpy  0x00000000416449b0       0x24 lib/built-in.o
                0x00000000416449b0                strncpy
 .text.strcat   0x00000000416449d4       0x30 lib/built-in.o
                0x00000000416449d4                strcat
 .text.strcmp   0x0000000041644a04       0x28 lib/built-in.o
                0x0000000041644a04                strcmp
 .text.strncmp  0x0000000041644a2c       0x3c lib/built-in.o
                0x0000000041644a2c                strncmp
 .text.strchr   0x0000000041644a68       0x2c lib/built-in.o
                0x0000000041644a68                strchr
 .text.strlen   0x0000000041644a94       0x20 lib/built-in.o
                0x0000000041644a94                strlen
 .text.strlcpy  0x0000000041644ab4       0x50 lib/built-in.o
                0x0000000041644ab4                strlcpy
 .text.strrchr  0x0000000041644b04       0x38 lib/built-in.o
                0x0000000041644b04                strrchr
 .text.strnlen  0x0000000041644b3c       0x2c lib/built-in.o
                0x0000000041644b3c                strnlen
 .text.strdup   0x0000000041644b68       0x34 lib/built-in.o
                0x0000000041644b68                strdup
 .text.strpbrk  0x0000000041644b9c       0x54 lib/built-in.o
                0x0000000041644b9c                strpbrk
 .text.memmove  0x0000000041644bf0       0x3c lib/built-in.o
                0x0000000041644bf0                memmove
 .text.memcmp   0x0000000041644c2c       0x34 lib/built-in.o
                0x0000000041644c2c                memcmp
 .text.strstr   0x0000000041644c60       0x60 lib/built-in.o
                0x0000000041644c60                strstr
 .text.memchr   0x0000000041644cc0       0x30 lib/built-in.o
                0x0000000041644cc0                memchr
 .text.tick_to_time
                0x0000000041644cf0       0xb0 lib/built-in.o
 .text.get_ticks
                0x0000000041644da0       0x30 lib/built-in.o
                0x0000000041644da0                get_ticks
 .text.timer_init
                0x0000000041644dd0        0x8 lib/built-in.o
                0x0000000041644dd0                timer_init
 .text.get_timer
                0x0000000041644dd8       0x18 lib/built-in.o
                0x0000000041644dd8                get_timer
 .text.udelay   0x0000000041644df0      0x11c lib/built-in.o
                0x0000000041644df0                udelay
 .text.uuid_str_valid
                0x0000000041644f0c       0x90 lib/built-in.o
                0x0000000041644f0c                uuid_str_valid
 .text.uuid_str_to_bin
                0x0000000041644f9c      0x16c lib/built-in.o
                0x0000000041644f9c                uuid_str_to_bin
 .text.rand_r   0x0000000041645108       0x1c lib/built-in.o
                0x0000000041645108                rand_r
 .text.put_dec_trunc
                0x0000000041645124       0xe0 lib/built-in.o
 .text.put_dec  0x0000000041645204      0x148 lib/built-in.o
 .text.number   0x000000004164534c      0x2e0 lib/built-in.o
 .text.string   0x000000004164562c       0xf0 lib/built-in.o
 .text.vsnprintf_internal
                0x000000004164571c      0x6c4 lib/built-in.o
 .text.vscnprintf
                0x0000000041645de0       0x24 lib/built-in.o
                0x0000000041645de0                vscnprintf
 .text.snprintf
                0x0000000041645e04       0x28 lib/built-in.o
                0x0000000041645e04                snprintf
 .text.vsprintf
                0x0000000041645e2c       0x10 lib/built-in.o
                0x0000000041645e2c                vsprintf
 .text.sprintf  0x0000000041645e3c       0x28 lib/built-in.o
                0x0000000041645e3c                sprintf
 .text.printf   0x0000000041645e64       0x44 lib/built-in.o
                0x0000000041645e64                printf
 .text.vprintf  0x0000000041645ea8       0x34 lib/built-in.o
                0x0000000041645ea8                vprintf
 .text.simple_itoa
                0x0000000041645edc       0x58 lib/built-in.o
                0x0000000041645edc                simple_itoa
 .text.str2off  0x0000000041645f34       0x3c lib/built-in.o
                0x0000000041645f34                str2off
 .text.panic_finish
                0x0000000041645f70       0x30 lib/built-in.o
 .text.panic_str
                0x0000000041645fa0        0xc lib/built-in.o
                0x0000000041645fa0                panic_str
 .text.panic    0x0000000041645fac       0x1c lib/built-in.o
                0x0000000041645fac                panic
 .text.simple_strtoul
                0x0000000041645fc8       0xb0 lib/built-in.o
                0x0000000041645fc8                simple_strtoul
 .text.strict_strtoul
                0x0000000041646078       0x78 lib/built-in.o
                0x0000000041646078                strict_strtoul
 .text.simple_strtol
                0x00000000416460f0       0x24 lib/built-in.o
                0x00000000416460f0                simple_strtol
 .text.ustrtoul
                0x0000000041646114       0x70 lib/built-in.o
                0x0000000041646114                ustrtoul
 .text.simple_strtoull
                0x0000000041646184       0xcc lib/built-in.o
                0x0000000041646184                simple_strtoull
 .text.ustrtoull
                0x0000000041646250       0x88 lib/built-in.o
                0x0000000041646250                ustrtoull
 .text.trailing_strtoln
                0x00000000416462d8       0x6c lib/built-in.o
                0x00000000416462d8                trailing_strtoln
 .text.trailing_strtol
                0x0000000041646344        0x8 lib/built-in.o
                0x0000000041646344                trailing_strtol
 .text.compute_ip_checksum
                0x000000004164634c       0x70 net/built-in.o
                0x000000004164634c                compute_ip_checksum
 .text.ip_checksum_ok
                0x00000000416463bc       0x1c net/built-in.o
                0x00000000416463bc                ip_checksum_ok
 .text.arp_init
                0x00000000416463d8       0x50 net/built-in.o
                0x00000000416463d8                arp_init
 .text.arp_raw_request
                0x0000000041646428       0xd0 net/built-in.o
                0x0000000041646428                arp_raw_request
 .text.arp_request
                0x00000000416464f8       0x80 net/built-in.o
                0x00000000416464f8                arp_request
 .text.arp_timeout_check
                0x0000000041646578       0x90 net/built-in.o
                0x0000000041646578                arp_timeout_check
 .text.arp_receive
                0x0000000041646608      0x26c net/built-in.o
                0x0000000041646608                arp_receive
 .text.dhcp_extended
                0x0000000041646874      0x230 net/built-in.o
 .text.dhcp_process_options
                0x0000000041646aa4      0x230 net/built-in.o
 .text.dhcp_packet_process_options
                0x0000000041646cd4       0x8c net/built-in.o
 .text.dhcp_handler
                0x0000000041646d60      0x3d4 net/built-in.o
 .text.bootp_reset
                0x0000000041647134       0x44 net/built-in.o
                0x0000000041647134                bootp_reset
 .text.bootp_request
                0x0000000041647178      0x280 net/built-in.o
                0x0000000041647178                bootp_request
 .text.bootp_timeout_handler
                0x00000000416473f8       0x70 net/built-in.o
 .text.dhcp_request
                0x0000000041647468        0x4 net/built-in.o
                0x0000000041647468                dhcp_request
 .text.cdp_compute_csum
                0x000000004164746c       0xbc net/built-in.o
 .text.cdp_send_trigger.isra.0
                0x0000000041647528       0xb4 net/built-in.o
 .text.cdp_timeout_handler
                0x00000000416475dc       0x64 net/built-in.o
 .text.cdp_receive
                0x0000000041647640      0x148 net/built-in.o
                0x0000000041647640                cdp_receive
 .text.cdp_start
                0x0000000041647788       0x68 net/built-in.o
                0x0000000041647788                cdp_start
 .text.dns_timeout_handler
                0x00000000416477f0       0x24 net/built-in.o
 .text.dns_handler
                0x0000000041647814      0x1d0 net/built-in.o
 .text.dns_start
                0x00000000416479e4      0x144 net/built-in.o
                0x00000000416479e4                dns_start
 .text.eth_get_uclass_priv
                0x0000000041647b28       0x20 net/built-in.o
 .text.eth_pre_remove
                0x0000000041647b48       0x30 net/built-in.o
 .text.eth_post_probe
                0x0000000041647b78      0x19c net/built-in.o
 .text.eth_post_bind
                0x0000000041647d14       0x34 net/built-in.o
 .text.eth_write_hwaddr.isra.0
                0x0000000041647d48       0xc4 net/built-in.o
 .text.on_ethaddr
                0x0000000041647e0c       0x80 net/built-in.o
 .text.eth_set_current_to_next
                0x0000000041647e8c       0x3c net/built-in.o
                0x0000000041647e8c                eth_set_current_to_next
 .text.eth_get_dev
                0x0000000041647ec8       0x38 net/built-in.o
                0x0000000041647ec8                eth_get_dev
 .text.eth_set_dev
                0x0000000041647f00       0x40 net/built-in.o
                0x0000000041647f00                eth_set_dev
 .text.eth_pre_unbind
                0x0000000041647f40       0x28 net/built-in.o
 .text.eth_get_dev_by_name
                0x0000000041647f68       0xf0 net/built-in.o
                0x0000000041647f68                eth_get_dev_by_name
 .text.eth_get_ethaddr
                0x0000000041648058       0x20 net/built-in.o
                0x0000000041648058                eth_get_ethaddr
 .text.eth_init_state_only
                0x0000000041648078       0x38 net/built-in.o
                0x0000000041648078                eth_init_state_only
 .text.eth_halt_state_only
                0x00000000416480b0       0x28 net/built-in.o
                0x00000000416480b0                eth_halt_state_only
 .text.eth_get_dev_index
                0x00000000416480d8       0x24 net/built-in.o
                0x00000000416480d8                eth_get_dev_index
 .text.eth_init
                0x00000000416480fc       0xfc net/built-in.o
                0x00000000416480fc                eth_init
 .text.eth_halt
                0x00000000416481f8       0x3c net/built-in.o
                0x00000000416481f8                eth_halt
 .text.eth_is_active
                0x0000000041648234       0x38 net/built-in.o
                0x0000000041648234                eth_is_active
 .text.eth_send
                0x000000004164826c       0x50 net/built-in.o
                0x000000004164826c                eth_send
 .text.eth_rx   0x00000000416482bc       0xac net/built-in.o
                0x00000000416482bc                eth_rx
 .text.eth_initialize
                0x0000000041648368       0xdc net/built-in.o
                0x0000000041648368                eth_initialize
 .text.eth_parse_enetaddr
                0x0000000041648444       0x5c net/built-in.o
                0x0000000041648444                eth_parse_enetaddr
 .text.eth_env_get_enetaddr
                0x00000000416484a0       0x5c net/built-in.o
                0x00000000416484a0                eth_env_get_enetaddr
 .text.eth_env_set_enetaddr
                0x00000000416484fc       0x4c net/built-in.o
                0x00000000416484fc                eth_env_set_enetaddr
 .text.eth_env_get_enetaddr_by_index
                0x0000000041648548       0x44 net/built-in.o
                0x0000000041648548                eth_env_get_enetaddr_by_index
 .text.eth_env_set_enetaddr_by_index
                0x000000004164858c       0x44 net/built-in.o
                0x000000004164858c                eth_env_set_enetaddr_by_index
 .text.eth_common_init
                0x00000000416485d0       0x18 net/built-in.o
                0x00000000416485d0                eth_common_init
 .text.eth_mac_skip
                0x00000000416485e8       0x3c net/built-in.o
                0x00000000416485e8                eth_mac_skip
 .text.eth_get_name
                0x0000000041648624       0x28 net/built-in.o
                0x0000000041648624                eth_get_name
 .text.eth_current_changed
                0x000000004164864c       0x90 net/built-in.o
                0x000000004164864c                eth_current_changed
 .text.eth_try_another
                0x00000000416486dc       0x80 net/built-in.o
                0x00000000416486dc                eth_try_another
 .text.eth_set_current
                0x000000004164875c       0x8c net/built-in.o
                0x000000004164875c                eth_set_current
 .text.pick     0x00000000416487e8       0x44 net/built-in.o
 .text.configure_wait
                0x000000004164882c       0x68 net/built-in.o
 .text.link_local_timeout
                0x0000000041648894      0x1b8 net/built-in.o
 .text.link_local_start
                0x0000000041648a4c      0x128 net/built-in.o
                0x0000000041648a4c                link_local_start
 .text.net_clear_handlers
                0x0000000041648b74       0x34 net/built-in.o
 .text.start_again_timeout_handler
                0x0000000041648ba8       0x14 net/built-in.o
 .text.dummy_handler
                0x0000000041648bbc        0x4 net/built-in.o
 .text.on_ipaddr
                0x0000000041648bc0       0x30 net/built-in.o
 .text.on_gatewayip
                0x0000000041648bf0       0x30 net/built-in.o
 .text.on_netmask
                0x0000000041648c20       0x30 net/built-in.o
 .text.on_serverip
                0x0000000041648c50       0x30 net/built-in.o
 .text.on_dnsip
                0x0000000041648c80       0x30 net/built-in.o
 .text.net_init_loop
                0x0000000041648cb0       0x2c net/built-in.o
 .text.net_auto_load
                0x0000000041648cdc       0x64 net/built-in.o
                0x0000000041648cdc                net_auto_load
 .text.net_init
                0x0000000041648d40       0x70 net/built-in.o
                0x0000000041648d40                net_init
 .text.net_start_again
                0x0000000041648db0      0x164 net/built-in.o
                0x0000000041648db0                net_start_again
 .text.net_loop
                0x0000000041648f14      0x474 net/built-in.o
                0x0000000041648f14                net_loop
 .text.net_set_udp_handler
                0x0000000041649388       0x20 net/built-in.o
                0x0000000041649388                net_set_udp_handler
 .text.net_get_arp_handler
                0x00000000416493a8       0x10 net/built-in.o
                0x00000000416493a8                net_get_arp_handler
 .text.net_set_arp_handler
                0x00000000416493b8       0x20 net/built-in.o
                0x00000000416493b8                net_set_arp_handler
 .text.net_set_icmp_handler
                0x00000000416493d8       0x10 net/built-in.o
                0x00000000416493d8                net_set_icmp_handler
 .text.net_set_timeout_handler
                0x00000000416493e8       0x54 net/built-in.o
                0x00000000416493e8                net_set_timeout_handler
 .text.net_process_received_packet
                0x000000004164943c      0x3ec net/built-in.o
                0x000000004164943c                net_process_received_packet
 .text.net_eth_hdr_size
                0x0000000041649828       0x40 net/built-in.o
                0x0000000041649828                net_eth_hdr_size
 .text.net_set_ether
                0x0000000041649868       0xa4 net/built-in.o
                0x0000000041649868                net_set_ether
 .text.net_update_ether
                0x000000004164990c       0x84 net/built-in.o
                0x000000004164990c                net_update_ether
 .text.net_set_ip_header
                0x0000000041649990       0x98 net/built-in.o
                0x0000000041649990                net_set_ip_header
 .text.net_set_udp_header
                0x0000000041649a28       0xb0 net/built-in.o
                0x0000000041649a28                net_set_udp_header
 .text.net_send_udp_packet
                0x0000000041649ad8      0x104 net/built-in.o
                0x0000000041649ad8                net_send_udp_packet
 .text.copy_filename
                0x0000000041649bdc       0x44 net/built-in.o
                0x0000000041649bdc                copy_filename
 .text.on_bootfile
                0x0000000041649c20       0x34 net/built-in.o
 .text.random_port
                0x0000000041649c54       0x18 net/built-in.o
                0x0000000041649c54                random_port
 .text.ip_to_string
                0x0000000041649c6c       0x3c net/built-in.o
                0x0000000041649c6c                ip_to_string
 .text.vlan_to_string
                0x0000000041649ca8       0x40 net/built-in.o
                0x0000000041649ca8                vlan_to_string
 .text.string_to_vlan
                0x0000000041649ce8       0x50 net/built-in.o
                0x0000000041649ce8                string_to_vlan
 .text.on_nvlan
                0x0000000041649d38       0x30 net/built-in.o
 .text.on_vlan  0x0000000041649d68       0x30 net/built-in.o
 .text.rpc_lookup_reply
                0x0000000041649d98       0xac net/built-in.o
 .text.nfs_mount_reply
                0x0000000041649e44       0x9c net/built-in.o
 .text.nfs_umountall_reply
                0x0000000041649ee0       0x90 net/built-in.o
 .text.nfs_lookup_reply
                0x0000000041649f70      0x10c net/built-in.o
 .text.nfs3_get_attributes_offset
                0x000000004164a07c       0x14 net/built-in.o
 .text.nfs_readlink_reply
                0x000000004164a090      0x134 net/built-in.o
 .text.basename
                0x000000004164a1c4       0x38 net/built-in.o
 .text.rpc_req  0x000000004164a1fc      0x12c net/built-in.o
 .text.nfs_mount_req
                0x000000004164a328       0xc0 net/built-in.o
 .text.nfs_read_reply.constprop.0
                0x000000004164a3e8      0x184 net/built-in.o
 .text.nfs_readlink_req
                0x000000004164a56c       0xcc net/built-in.o
 .text.nfs_read_req
                0x000000004164a638       0xfc net/built-in.o
 .text.nfs_lookup_req
                0x000000004164a734      0x18c net/built-in.o
 .text.nfs_umountall_req
                0x000000004164a8c0       0x84 net/built-in.o
 .text.nfs_send
                0x000000004164a944      0x164 net/built-in.o
 .text.nfs_handler
                0x000000004164aaa8      0x23c net/built-in.o
 .text.nfs_timeout_handler
                0x000000004164ace4       0x60 net/built-in.o
 .text.nfs_start
                0x000000004164ad44      0x170 net/built-in.o
                0x000000004164ad44                nfs_start
 .text.ping_timeout_handler
                0x000000004164aeb4       0x1c net/built-in.o
 .text.ping_start
                0x000000004164aed0      0x13c net/built-in.o
                0x000000004164aed0                ping_start
 .text.ping_receive
                0x000000004164b00c      0x100 net/built-in.o
                0x000000004164b00c                ping_receive
 .text.rarp_receive
                0x000000004164b10c       0xd4 net/built-in.o
                0x000000004164b10c                rarp_receive
 .text.rarp_request
                0x000000004164b1e0       0xf0 net/built-in.o
                0x000000004164b1e0                rarp_request
 .text.rarp_timeout_handler
                0x000000004164b2d0       0x44 net/built-in.o
 .text.sntp_handler
                0x000000004164b314       0x24 net/built-in.o
 .text.sntp_timeout_handler
                0x000000004164b338       0x24 net/built-in.o
 .text.sntp_start
                0x000000004164b35c       0xc0 net/built-in.o
                0x000000004164b35c                sntp_start
 .text.new_transfer
                0x000000004164b41c       0x38 net/built-in.o
 .text.tftp_complete
                0x000000004164b454       0x78 net/built-in.o
 .text.icmp_handler
                0x000000004164b4cc       0x2c net/built-in.o
 .text.tftp_send
                0x000000004164b4f8      0x268 net/built-in.o
 .text.update_block_number
                0x000000004164b760       0xb4 net/built-in.o
 .text.tftp_handler
                0x000000004164b814      0x350 net/built-in.o
 .text.tftp_timeout_handler
                0x000000004164bb64       0x88 net/built-in.o
 .text.tftp_start
                0x000000004164bbec      0x410 net/built-in.o
                0x000000004164bbec                tftp_start
 .text.tftp_start_server
                0x000000004164bffc      0x100 net/built-in.o
                0x000000004164bffc                tftp_start_server
 .text.do_dm_dump_devres
                0x000000004164c0fc        0x8 test/dm/built-in.o
 .text.do_dm    0x000000004164c104       0x74 test/dm/built-in.o
 .text.do_dm_dump_uclass
                0x000000004164c178       0x10 test/dm/built-in.o
 .text.do_dm_dump_all
                0x000000004164c188       0x10 test/dm/built-in.o
 .text.__udivsi3
                0x000000004164c198       0x9c arch/arm/lib/lib.a(lib1funcs.o)
                0x000000004164c198                __udivsi3
                0x000000004164c198                __aeabi_uidiv
 .text.__divsi3
                0x000000004164c234       0xcc arch/arm/lib/lib.a(lib1funcs.o)
                0x000000004164c234                __aeabi_idiv
                0x000000004164c234                __divsi3
 .text.__aeabi_uidivmod
                0x000000004164c300       0x30 arch/arm/lib/lib.a(lib1funcs.o)
                0x000000004164c300                __aeabi_uidivmod
                0x000000004164c318                __aeabi_idivmod
 .text.Ldiv0    0x000000004164c330       0x10 arch/arm/lib/lib.a(lib1funcs.o)
 .text.__aeabi_uldivmod
                0x000000004164c340      0x184 arch/arm/lib/lib.a(uldivmod.o)
                0x000000004164c340                __aeabi_uldivmod
 .text.__div0   0x000000004164c4c4        0x4 arch/arm/lib/lib.a(div0.o)
                0x000000004164c4c4                __div0

.glue_7         0x000000004164c4c8        0x0
 .glue_7        0x000000004164c4c8        0x0 linker stubs

.glue_7t        0x000000004164c4c8        0x0
 .glue_7t       0x000000004164c4c8        0x0 linker stubs

.vfp11_veneer   0x000000004164c4c8        0x0
 .vfp11_veneer  0x000000004164c4c8        0x0 linker stubs

.v4_bx          0x000000004164c4c8        0x0
 .v4_bx         0x000000004164c4c8        0x0 linker stubs

.iplt           0x000000004164c4c8        0x0
 .iplt          0x000000004164c4c8        0x0 arch/arm/cpu/armv7/start.o
                0x000000004164c4c8                . = ALIGN (0x4)

.rodata         0x000000004164c4c8    0x12004
 *(SORT_BY_ALIGNMENT(SORT_BY_NAME(.rodata*)))
 .rodata        0x000000004164c4c8       0x80 arch/arm/lib/built-in.o
 .rodata        0x000000004164c548       0x58 common/built-in.o
 .rodata.CSWTCH.2
                0x000000004164c5a0       0x10 board/molchip/built-in.o
 .rodata.CSWTCH.26
                0x000000004164c5b0       0x14 drivers/usb/host/built-in.o
 .rodata.CSWTCH.28
                0x000000004164c5c4       0x20 disk/built-in.o
 .rodata.CSWTCH.40
                0x000000004164c5e4       0x14 cmd/built-in.o
 .rodata.CSWTCH.43
                0x000000004164c5f8        0xc drivers/usb/host/built-in.o
 .rodata.asix_eth_id_table
                0x000000004164c604      0x138 drivers/usb/eth/built-in.o
 .rodata.asix_eth_ops
                0x000000004164c73c       0x1c drivers/usb/eth/built-in.o
 .rodata.boot_os
                0x000000004164c758       0x60 common/built-in.o
 .rodata.crc_table
                0x000000004164c7b8      0x400 lib/built-in.o
 .rodata.desc_and_len_tbl
                0x000000004164cbb8       0x30 cmd/built-in.o
 .rodata.designware_eth_ids
                0x000000004164cbe8       0x30 drivers/net/built-in.o
 .rodata.designware_eth_ops
                0x000000004164cc18       0x1c drivers/net/built-in.o
                0x000000004164cc18                designware_eth_ops
 .rodata.dm_dwmci_ops
                0x000000004164cc34       0x10 drivers/built-in.o
                0x000000004164cc34                dm_dwmci_ops
 .rodata.env_flags_varaccess_mask
                0x000000004164cc44       0x10 env/built-in.o
 .rodata.ext_csd_bits.3
                0x000000004164cc54       0x18 drivers/built-in.o
 .rodata.ext_to_hostcaps.2
                0x000000004164cc6c      0x21c drivers/built-in.o
 .rodata.fbase  0x000000004164ce88       0x10 drivers/built-in.o
 .rodata.fdt_errtable
                0x000000004164ce98       0x48 lib/built-in.o
 .rodata.fy00_data
                0x000000004164cee0        0x4 drivers/built-in.o
 .rodata.generic_simple_bus_ids
                0x000000004164cee4       0x18 drivers/built-in.o
 .rodata.gpio_base_tab
                0x000000004164cefc       0x20 drivers/gpio/built-in.o
 .rodata.hub_id_table
                0x000000004164cf1c       0x30 common/built-in.o
 .rodata.hwcaps_pp2cmd.3
                0x000000004164cf4c       0x38 drivers/mtd/spi/built-in.o
 .rodata.hwcaps_read2cmd.4
                0x000000004164cf84       0x78 drivers/mtd/spi/built-in.o
 .rodata.if_type_uclass_id
                0x000000004164cffc       0x30 drivers/built-in.o
 .rodata.if_typename_str
                0x000000004164d02c       0x30 drivers/built-in.o
 .rodata.init_sequence_f
                0x000000004164d05c       0x9c common/built-in.o
 .rodata.keywords
                0x000000004164d0f8       0x98 cmd/built-in.o
 .rodata.mass_storage_id_table
                0x000000004164d190       0x30 common/built-in.o
 .rodata.mc_aes_ids
                0x000000004164d1c0       0x10 drivers/built-in.o
 .rodata.mc_dwmmc_ids
                0x000000004164d1d0       0x10 drivers/built-in.o
 .rodata.mc_efuse_ids
                0x000000004164d1e0       0x10 drivers/built-in.o
 .rodata.mc_efuse_ops
                0x000000004164d1f0       0x10 drivers/built-in.o
 .rodata.mmc_blk_ops
                0x000000004164d200       0x10 drivers/built-in.o
 .rodata.molchip_pwm_match
                0x000000004164d210       0x10 drivers/built-in.o
 .rodata.molchip_pwm_ops
                0x000000004164d220       0x10 drivers/built-in.o
 .rodata.molchip_rtc_ids
                0x000000004164d230       0x10 drivers/built-in.o
 .rodata.molchip_rtc_ops
                0x000000004164d240       0x14 drivers/built-in.o
 .rodata.month_offset
                0x000000004164d254       0x30 drivers/built-in.o
 .rodata.phy_interface_strings
                0x000000004164d284       0x44 drivers/net/phy/built-in.o
 .rodata.qos_ids
                0x000000004164d2c8       0x10 drivers/net/built-in.o
 .rodata.qos_ops
                0x000000004164d2d8       0x1c drivers/net/built-in.o
 .rodata.reg_0_5_desc_tbl
                0x000000004164d2f4       0x30 cmd/built-in.o
 .rodata.reg_0_desc_tbl
                0x000000004164d324       0x78 cmd/built-in.o
 .rodata.reg_1_desc_tbl
                0x000000004164d39c       0xc0 cmd/built-in.o
 .rodata.reg_2_desc_tbl
                0x000000004164d45c        0xc cmd/built-in.o
 .rodata.reg_3_desc_tbl
                0x000000004164d468       0x24 cmd/built-in.o
 .rodata.reg_4_desc_tbl
                0x000000004164d48c       0x90 cmd/built-in.o
 .rodata.reg_5_desc_tbl
                0x000000004164d51c       0x90 cmd/built-in.o
 .rodata.root_info
                0x000000004164d5ac        0x8 drivers/built-in.o
 .rodata.s_lcm_mcu16_st7796s_info
                0x000000004164d5b4      0x220 common/built-in.o
                0x000000004164d5b4                s_lcm_mcu16_st7796s_info
 .rodata.s_lcm_mcu_st7796s_info
                0x000000004164d7d4      0x220 common/built-in.o
                0x000000004164d7d4                s_lcm_mcu_st7796s_info
 .rodata.s_lcm_mipi_ek79007_info
                0x000000004164d9f4      0x220 common/built-in.o
                0x000000004164d9f4                s_lcm_mipi_ek79007_info
 .rodata.s_lcm_mipi_st7701s_info
                0x000000004164dc14      0x220 common/built-in.o
                0x000000004164dc14                s_lcm_mipi_st7701s_info
 .rodata.sd_au_size
                0x000000004164de34       0x40 drivers/built-in.o
 .rodata.ts01_serial_ids
                0x000000004164de74       0x10 drivers/serial/built-in.o
 .rodata.uimage_arch
                0x000000004164de84      0x138 common/built-in.o
 .rodata.uimage_comp
                0x000000004164dfbc       0x54 common/built-in.o
 .rodata.uimage_os
                0x000000004164e010       0x78 common/built-in.o
 .rodata.uimage_type
                0x000000004164e088      0x180 common/built-in.o
 .rodata.usb_dr_modes
                0x000000004164e208       0x10 drivers/usb/common/built-in.o
 .rodata.usb_hub_ids
                0x000000004164e218       0x10 common/built-in.o
 .rodata.usb_mass_storage_ids
                0x000000004164e228       0x10 common/built-in.o
 .rodata.usb_storage_ops
                0x000000004164e238       0x10 common/built-in.o
 .rodata.weekdays
                0x000000004164e248       0x1c cmd/built-in.o
 .rodata.widths.1
                0x000000004164e264       0x18 drivers/built-in.o
 .rodata.xhci_dwc3_ids
                0x000000004164e27c       0x10 drivers/usb/host/built-in.o
 .rodata.dbase.2
                0x000000004164e28c       0x40 lib/built-in.o
 .rodata.dext.1
                0x000000004164e2cc       0x40 lib/built-in.o
 .rodata.distfix
                0x000000004164e30c       0x80 lib/built-in.o
 .rodata.lbase.4
                0x000000004164e38c       0x3e lib/built-in.o
 .rodata.lenfix
                0x000000004164e3ca      0x800 lib/built-in.o
 .rodata.lext.3
                0x000000004164ebca       0x3e lib/built-in.o
 .rodata.order.0
                0x000000004164ec08       0x26 lib/built-in.o
 .rodata        0x000000004164ec2e      0x100 board/molchip/built-in.o
 .rodata        0x000000004164ed2e       0x3a drivers/usb/host/built-in.o
 .rodata        0x000000004164ed68        0x3 env/built-in.o
 .rodata        0x000000004164ed6b        0x7 net/built-in.o
 .rodata.CSWTCH.1
                0x000000004164ed72        0x3 common/built-in.o
 .rodata.CSWTCH.44
                0x000000004164ed75        0x3 drivers/usb/host/built-in.o
 .rodata.CSWTCH.60
                0x000000004164ed78       0x16 common/built-in.o
 .rodata.CSWTCH.8
                0x000000004164ed8e        0x3 drivers/built-in.o
 .rodata.__FUNCTION__.0
                0x000000004164ed91      0x15e common/built-in.o
 .rodata.__FUNCTION__.0
                0x000000004164eeef       0x41 drivers/usb/host/built-in.o
 .rodata.__FUNCTION__.1
                0x000000004164ef30      0x116 common/built-in.o
 .rodata.__FUNCTION__.1
                0x000000004164f046       0x45 drivers/usb/host/built-in.o
 .rodata.__FUNCTION__.10
                0x000000004164f08b       0x5b common/built-in.o
 .rodata.__FUNCTION__.11
                0x000000004164f0e6       0x36 common/built-in.o
 .rodata.__FUNCTION__.12
                0x000000004164f11c       0x33 common/built-in.o
 .rodata.__FUNCTION__.13
                0x000000004164f14f       0x30 common/built-in.o
 .rodata.__FUNCTION__.14
                0x000000004164f17f       0x3e common/built-in.o
 .rodata.__FUNCTION__.15
                0x000000004164f1bd       0x24 common/built-in.o
 .rodata.__FUNCTION__.16
                0x000000004164f1e1       0x14 common/built-in.o
 .rodata.__FUNCTION__.18
                0x000000004164f1f5       0x17 common/built-in.o
 .rodata.__FUNCTION__.19
                0x000000004164f20c       0x16 common/built-in.o
 .rodata.__FUNCTION__.2
                0x000000004164f222      0x107 common/built-in.o
 .rodata.__FUNCTION__.2
                0x000000004164f329       0x36 drivers/usb/host/built-in.o
 .rodata.__FUNCTION__.21
                0x000000004164f35f       0x16 common/built-in.o
 .rodata.__FUNCTION__.3
                0x000000004164f375       0xd8 common/built-in.o
 .rodata.__FUNCTION__.3
                0x000000004164f44d       0x3f drivers/usb/host/built-in.o
 .rodata.__FUNCTION__.4
                0x000000004164f48c       0xe2 common/built-in.o
 .rodata.__FUNCTION__.4
                0x000000004164f56e       0x20 drivers/usb/host/built-in.o
 .rodata.__FUNCTION__.5
                0x000000004164f58e       0xef common/built-in.o
 .rodata.__FUNCTION__.5
                0x000000004164f67d       0x26 drivers/usb/host/built-in.o
 .rodata.__FUNCTION__.6
                0x000000004164f6a3       0xb7 common/built-in.o
 .rodata.__FUNCTION__.6
                0x000000004164f75a       0x10 drivers/usb/host/built-in.o
 .rodata.__FUNCTION__.7
                0x000000004164f76a       0x7f common/built-in.o
 .rodata.__FUNCTION__.7
                0x000000004164f7e9        0xf drivers/usb/host/built-in.o
 .rodata.__FUNCTION__.8
                0x000000004164f7f8       0x41 common/built-in.o
 .rodata.__FUNCTION__.8
                0x000000004164f839       0x11 drivers/usb/host/built-in.o
 .rodata.__FUNCTION__.9
                0x000000004164f84a       0x33 common/built-in.o
 .rodata.__FUNCTION__.9
                0x000000004164f87d       0x11 drivers/usb/host/built-in.o
 .rodata.__func__.0
                0x000000004164f88e        0xe cmd/built-in.o
 .rodata.__func__.0
                0x000000004164f89c       0x18 common/built-in.o
 .rodata.__func__.0
                0x000000004164f8b4       0x30 drivers/built-in.o
 .rodata.__func__.0
                0x000000004164f8e4       0x25 drivers/net/built-in.o
 .rodata.__func__.0
                0x000000004164f909       0x10 drivers/usb/common/built-in.o
 .rodata.__func__.0
                0x000000004164f919        0xb env/built-in.o
 .rodata.__func__.1
                0x000000004164f924        0xe cmd/built-in.o
 .rodata.__func__.1
                0x000000004164f932       0x27 common/built-in.o
 .rodata.__func__.1
                0x000000004164f959       0x14 drivers/built-in.o
 .rodata.__func__.1
                0x000000004164f96d       0x21 drivers/net/built-in.o
 .rodata.__func__.1
                0x000000004164f98e        0xb env/built-in.o
 .rodata.__func__.2
                0x000000004164f999       0x18 common/built-in.o
 .rodata.__func__.2
                0x000000004164f9b1        0xd drivers/built-in.o
 .rodata.__func__.2
                0x000000004164f9be        0xa drivers/net/built-in.o
 .rodata.__func__.2
                0x000000004164f9c8       0x10 env/built-in.o
 .rodata.__func__.3
                0x000000004164f9d8       0x18 drivers/built-in.o
 .rodata.__func__.3
                0x000000004164f9f0        0xf drivers/net/built-in.o
 .rodata.__func__.4
                0x000000004164f9ff       0x21 drivers/built-in.o
 .rodata.__func__.4
                0x000000004164fa20        0xa drivers/net/built-in.o
 .rodata.__func__.5
                0x000000004164fa2a       0x11 drivers/built-in.o
 .rodata.__func__.5
                0x000000004164fa3b       0x19 drivers/net/built-in.o
 .rodata.__func__.6
                0x000000004164fa54        0xd drivers/built-in.o
 .rodata.__func__.6
                0x000000004164fa61       0x10 drivers/net/built-in.o
 .rodata.__func__.7
                0x000000004164fa71        0xa drivers/net/built-in.o
 .rodata.__func__.8
                0x000000004164fa7b       0x10 drivers/net/built-in.o
 .rodata._ctype
                0x000000004164fa8b      0x100 lib/built-in.o
                0x000000004164fa8b                _ctype
 .rodata._do_env_set.constprop.0.str1.1
                0x000000004164fb8b       0x7c cmd/built-in.o
 .rodata._do_help.str1.1
                0x000000004164fc07       0x5f common/built-in.o
 .rodata._dsi_dcs_rd_cmd.str1.1
                0x000000004164fc66       0x1d common/built-in.o
 .rodata._dsi_gen_rd_packet.str1.1
                0x000000004164fc83       0x87 common/built-in.o
 .rodata._dsi_gen_wr_packet.constprop.0.str1.1
                0x000000004164fd0a       0x6c common/built-in.o
 .rodata._dsi_phy_pll_v1_cfg.str1.1
                0x000000004164fd76       0x45 common/built-in.o
 .rodata._get_lcm_pin_ptr.str1.1
                0x000000004164fdbb       0x34 common/built-in.o
                                         0x4b (size before relaxing)
 .rodata._lcmMcuApiCheckHandle.str1.1
                0x000000004164fdef       0x1c common/built-in.o
                                         0x33 (size before relaxing)
 .rodata._lcmMcuApiCheckStatus.str1.1
                0x000000004164fe0b       0x1e common/built-in.o
 .rodata._lcmMcuApiHandleInit.str1.1
                0x000000004164fe29       0x1a common/built-in.o
 .rodata._lcmMcuApiMapParamCfg.str1.1
                0x000000004164fe43       0x20 common/built-in.o
 .rodata._lcmMcuApiSetStatus.str1.1
                0x000000004164fe63       0x1c common/built-in.o
 .rodata._lcm_mcu16_st7796s_PowerOff.str1.1
                0x000000004164fe7f       0x5e common/built-in.o
 .rodata._lcm_mcu16_st7796s_deinit.str1.1
                0x000000004164fe7f       0x22 common/built-in.o
 .rodata._lcm_mcu16_st7796s_init.str1.1
                0x000000004164fea1        0xf common/built-in.o
 .rodata._lcm_mcu_st7796s_PowerOff.str1.1
                0x000000004164fea1       0x5e common/built-in.o
 .rodata._lcm_mcu_st7796s_deinit.str1.1
                0x000000004164feff       0x20 common/built-in.o
 .rodata._lcm_mcu_st7796s_init.str1.1
                0x000000004164ff1f        0xf common/built-in.o
 .rodata._lcm_mipi_ek79007_identify.str1.1
                0x000000004164ff2e       0x30 common/built-in.o
                                         0x47 (size before relaxing)
 .rodata._lcm_mipi_st7701s_identify.str1.1
                0x000000004164ff5e       0x47 common/built-in.o
 .rodata._lcm_rgb18_at070tn94_power_off.str1.1
                0x000000004164ff5e       0x5e common/built-in.o
 .rodata._lcm_rgb_at070tn94_power_off.str1.1
                0x000000004164ff5e       0x5e common/built-in.o
 .rodata._mol_lcm_bus_deinit.str1.1
                0x000000004164ff5e       0x3e common/built-in.o
                                         0x6a (size before relaxing)
 .rodata._mol_lcm_bus_init.str1.1
                0x000000004164ff9c       0x38 common/built-in.o
 .rodata.aes_test.str1.1
                0x000000004164ffd4      0x358 drivers/built-in.o
                                        0x414 (size before relaxing)
 .rodata.arp_receive.str1.1
                0x000000004165032c       0x14 net/built-in.o
 .rodata.arp_request.str1.1
                0x0000000041650340       0x2a net/built-in.o
 .rodata.arp_timeout_check.str1.1
                0x000000004165036a       0x2b net/built-in.o
 .rodata.asix_eth_start.str1.1
                0x0000000041650395       0x3f drivers/usb/eth/built-in.o
 .rodata.autoboot_command.str1.1
                0x00000000416503d4        0xe common/built-in.o
 .rodata.bad_mode.str1.1
                0x00000000416503e2       0x13 arch/arm/lib/built-in.o
 .rodata.bit_modify_rdata.isra.0.str1.1
                0x00000000416503f5        0xe drivers/net/built-in.o
 .rodata.blk_common_cmd.str1.1
                0x0000000041650403       0xef cmd/built-in.o
                                        0x103 (size before relaxing)
 .rodata.blk_create_devicef.str1.1
                0x00000000416504f2        0x6 drivers/built-in.o
 .rodata.blk_get_device_by_str.str1.1
                0x00000000416504f8       0x6a disk/built-in.o
 .rodata.blk_get_device_part_str.str1.1
                0x0000000041650562      0x10d disk/built-in.o
                                        0x11b (size before relaxing)
 .rodata.blk_list_devices.str1.1
                0x000000004165066f       0x32 drivers/built-in.o
                                          0xc (size before relaxing)
 .rodata.blk_print_device_num.str1.1
                0x000000004165066f       0x11 drivers/built-in.o
 .rodata.blk_show_device.str1.1
                0x0000000041650680       0x1d drivers/built-in.o
 .rodata.boot_fdt_add_mem_rsv_regions.str1.1
                0x000000004165069d       0x35 common/built-in.o
 .rodata.boot_get_fdt.str1.1
                0x00000000416506d2      0x164 common/built-in.o
                                        0x183 (size before relaxing)
 .rodata.boot_get_ramdisk.str1.1
                0x0000000041650836       0xb7 common/built-in.o
                                        0x10d (size before relaxing)
 .rodata.boot_jump_linux.str1.1
                0x00000000416508ed       0x2c arch/arm/lib/built-in.o
 .rodata.boot_prep_linux.str1.1
                0x0000000041650919       0x51 arch/arm/lib/built-in.o
                                         0x5a (size before relaxing)
 .rodata.boot_prep_vxworks.str1.1
                0x000000004165096a       0x2a arch/arm/lib/built-in.o
 .rodata.boot_ramdisk_high.str1.1
                0x0000000041650994       0x54 common/built-in.o
 .rodata.boot_relocate_fdt.str1.1
                0x00000000416509e8       0xa5 common/built-in.o
 .rodata.bootdelay_process.str1.1
                0x0000000041650a8d       0x42 common/built-in.o
 .rodata.bootm_decomp_image.str1.1
                0x0000000041650acf       0xbc common/built-in.o
                                         0xc0 (size before relaxing)
 .rodata.bootm_find_images.str1.1
                0x0000000041650b8b       0x49 common/built-in.o
 .rodata.bootm_maybe_autostart.str1.1
                0x0000000041650bd4       0x3b cmd/built-in.o
 .rodata.bootp_request.str1.1
                0x0000000041650c0f       0x25 net/built-in.o
 .rodata.bootp_timeout_handler.str1.1
                0x0000000041650c34       0x26 net/built-in.o
 .rodata.bootz_setup.str1.1
                0x0000000041650c5a       0x1d arch/arm/lib/built-in.o
 .rodata.cdp_receive.str1.1
                0x0000000041650c77       0x5b net/built-in.o
 .rodata.cdp_snap_hdr
                0x0000000041650cd2        0x8 net/built-in.o
 .rodata.cdp_start.str1.1
                0x0000000041650cda       0x11 net/built-in.o
 .rodata.change_loopback.str1.1
                0x0000000041650ceb       0x78 drivers/net/built-in.o
                                         0x7f (size before relaxing)
 .rodata.check_cache_range.str1.1
                0x0000000041650d63       0x35 arch/arm/lib/built-in.o
 .rodata.check_lcm_work_mode.str1.1
                0x0000000041650d98       0xdf common/built-in.o
                                         0xf6 (size before relaxing)
 .rodata.cli_process_fdt.str1.1
                0x0000000041650e77        0xb common/built-in.o
                                         0x13 (size before relaxing)
 .rodata.cli_readline_into_buffer.str1.1
                0x0000000041650e82        0x3 common/built-in.o
 .rodata.cli_secure_boot_cmd.str1.1
                0x0000000041650e82       0x50 common/built-in.o
 .rodata.cli_simple_loop.str1.1
                0x0000000041650ed2        0x7 common/built-in.o
                                         0x14 (size before relaxing)
 .rodata.cli_simple_parse_line.str1.1
                0x0000000041650ed9       0x1f common/built-in.o
 .rodata.cli_simple_run_command.str1.1
                0x0000000041650ef8       0x16 common/built-in.o
 .rodata.cmd_auto_complete.str1.1
                0x0000000041650f0e       0x5f common/built-in.o
                                         0x12 (size before relaxing)
 .rodata.cmd_process.str1.1
                0x0000000041650f0e       0x23 common/built-in.o
 .rodata.cmd_process_error.str1.1
                0x0000000041650f31       0x1f common/built-in.o
 .rodata.cmd_usage.str1.1
                0x0000000041650f50       0x36 common/built-in.o
 .rodata.common_diskboot.str1.1
                0x0000000041650f86       0x8f cmd/built-in.o
 .rodata.debug_fun.str1.1
                0x0000000041651015       0x17 common/built-in.o
                                         0x43 (size before relaxing)
 .rodata.default_environment
                0x000000004165102c      0x118 env/built-in.o
                0x000000004165102c                default_environment
 .rodata.delims.0
                0x0000000041651144        0x3 env/built-in.o
 .rodata.designware_eth_init.str1.1
                0x0000000041651147       0x63 drivers/net/built-in.o
                                         0x6e (size before relaxing)
 .rodata.designware_eth_ofdata_to_platdata.str1.1
                0x00000000416511aa       0x13 drivers/net/built-in.o
 .rodata.designware_eth_probe.str1.1
                0x00000000416511bd       0x1d drivers/net/built-in.o
                                         0x20 (size before relaxing)
 .rodata.designware_eth_send.str1.1
                0x00000000416511da       0x1b drivers/net/built-in.o
 .rodata.dev_get_platdata.str1.1
                0x00000000416511f5       0x11 drivers/built-in.o
 .rodata.dev_print.str1.1
                0x0000000041651206      0x14d disk/built-in.o
                                        0x15e (size before relaxing)
 .rodata.devfdt_get_addr_index.str1.1
                0x0000000041651353        0x4 drivers/built-in.o
 .rodata.device_bind_common.constprop.0.str1.1
                0x0000000041651353       0x5b drivers/built-in.o
 .rodata.device_probe.str1.1
                0x00000000416513ae       0x30 drivers/built-in.o
 .rodata.device_remove.str1.1
                0x00000000416513de       0x98 drivers/built-in.o
 .rodata.dhcp_extended.str1.1
                0x0000000041651476       0x37 net/built-in.o
                                         0x3f (size before relaxing)
 .rodata.dhcp_handler.str1.1
                0x00000000416514ad       0x41 net/built-in.o
                                         0x4a (size before relaxing)
 .rodata.dhcp_process_options.str1.1
                0x00000000416514ee       0x78 net/built-in.o
 .rodata.digits
                0x0000000041651566       0x10 board/molchip/built-in.o
 .rodata.digits.1
                0x0000000041651576       0x10 lib/built-in.o
 .rodata.disk_write.str1.1
                0x0000000041651586       0x18 fs/built-in.o
 .rodata.display_options.str1.1
                0x000000004165159e        0x3 lib/built-in.o
 .rodata.display_options_get_banner.str1.1
                0x000000004165159e       0x1f lib/built-in.o
 .rodata.display_options_get_banner_priv.str1.1
                0x00000000416515bd        0xc lib/built-in.o
                                         0x15 (size before relaxing)
 .rodata.dm_dump_all.str1.1
                0x00000000416515c9       0x1c drivers/built-in.o
                                         0x46 (size before relaxing)
 .rodata.dm_dump_uclass.str1.1
                0x00000000416515e5       0x32 drivers/built-in.o
                                         0x34 (size before relaxing)
 .rodata.dm_fdt_pre_reloc.str1.1
                0x0000000041651617       0x30 drivers/built-in.o
 .rodata.dm_init.str1.1
                0x0000000041651647       0x25 drivers/built-in.o
 .rodata.dm_root.str1.1
                0x000000004165166c       0x25 drivers/built-in.o
 .rodata.dm_scan_fdt_node.str1.1
                0x0000000041651691       0x1d drivers/built-in.o
 .rodata.dm_scan_platdata.str1.1
                0x00000000416516ae       0x1d drivers/built-in.o
 .rodata.dns_handler.str1.1
                0x00000000416516cb       0x61 net/built-in.o
                                         0x65 (size before relaxing)
 .rodata.dns_timeout_handler.str1.1
                0x000000004165172c        0x9 net/built-in.o
 .rodata.do_bdinfo.str1.1
                0x0000000041651735       0xa4 cmd/built-in.o
 .rodata.do_bootelf.str1.1
                0x00000000416517d9       0x52 cmd/built-in.o
                                         0x5c (size before relaxing)
 .rodata.do_bootm.str1.1
                0x000000004165182b       0x32 cmd/built-in.o
 .rodata.do_bootm_netbsd.str1.1
                0x000000004165185d       0x49 common/built-in.o
                                         0x4a (size before relaxing)
 .rodata.do_bootm_plan9.str1.1
                0x00000000416518a6       0x43 common/built-in.o
                                         0x4c (size before relaxing)
 .rodata.do_bootm_qnxelf.str1.1
                0x00000000416518e9        0x4 common/built-in.o
 .rodata.do_bootm_rtems.str1.1
                0x00000000416518e9       0x39 common/built-in.o
 .rodata.do_bootm_standalone.str1.1
                0x0000000041651922       0x16 common/built-in.o
 .rodata.do_bootm_states.str1.1
                0x0000000041651922      0x207 common/built-in.o
                                        0x25e (size before relaxing)
 .rodata.do_bootvx.str1.1
                0x0000000041651b29      0x1ac cmd/built-in.o
                                        0x1d0 (size before relaxing)
 .rodata.do_bootvx_fdt.str1.1
                0x0000000041651cd5       0x57 common/built-in.o
                                         0x75 (size before relaxing)
 .rodata.do_bootx.str1.1
                0x0000000041651d2c       0x5a cmd/built-in.o
                                         0x62 (size before relaxing)
 .rodata.do_bootz.str1.1
                0x0000000041651d86        0x8 cmd/built-in.o
 .rodata.do_cdp.str1.1
                0x0000000041651d86       0x6a cmd/built-in.o
                                         0x6f (size before relaxing)
 .rodata.do_data_abort.str1.1
                0x0000000041651df0        0xc arch/arm/lib/built-in.o
 .rodata.do_date.str1.1
                0x0000000041651dfc       0xcf cmd/built-in.o
                                         0xd5 (size before relaxing)
 .rodata.do_dcache.str1.1
                0x0000000041651ecb       0x21 cmd/built-in.o
 .rodata.do_dns.str1.1
                0x0000000041651eec       0x44 cmd/built-in.o
 .rodata.do_dpll_scan.str1.1
                0x0000000041651f30       0x3d drivers/net/built-in.o
                                         0x65 (size before relaxing)
 .rodata.do_echo.str1.1
                0x0000000041651f6d        0x3 cmd/built-in.o
 .rodata.do_env_default.str1.1
                0x0000000041651f70       0x25 cmd/built-in.o
 .rodata.do_env_export.str1.1
                0x0000000041651f95       0x41 cmd/built-in.o
                                         0x4a (size before relaxing)
 .rodata.do_env_import.str1.1
                0x0000000041651fd6      0x152 cmd/built-in.o
 .rodata.do_env_print.str1.1
                0x0000000041652128       0x3d cmd/built-in.o
 .rodata.do_env_save.str1.1
                0x0000000041652165       0x1d cmd/built-in.o
 .rodata.do_ethsw.str1.1
                0x0000000041652182       0x1f cmd/built-in.o
 .rodata.do_fat_fsinfo.str1.1
                0x00000000416521a1       0x56 cmd/built-in.o
 .rodata.do_fat_fswrite.str1.1
                0x00000000416521f7       0x6b cmd/built-in.o
 .rodata.do_fat_read_at.str1.1
                0x0000000041652262       0x82 fs/built-in.o
                                         0x83 (size before relaxing)
 .rodata.do_fat_write.str1.1
                0x00000000416522e4       0xc3 fs/built-in.o
 .rodata.do_fdt.str1.1
                0x00000000416523a7      0x48d cmd/built-in.o
                                        0x4b7 (size before relaxing)
 .rodata.do_fiq.str1.1
                0x0000000041652834       0x18 arch/arm/lib/built-in.o
 .rodata.do_fixup_by_path.str1.1
                0x000000004165284c       0x29 common/built-in.o
 .rodata.do_get_fat.str1.1
                0x0000000041652875        0x8 cmd/built-in.o
 .rodata.do_get_tftp.str1.1
                0x0000000041652875        0x5 cmd/built-in.o
 .rodata.do_go.str1.1
                0x0000000041652875       0x4f cmd/built-in.o
 .rodata.do_gpio_test.str1.1
                0x00000000416528c4       0xf4 cmd/built-in.o
 .rodata.do_icache.str1.1
                0x00000000416529b8       0x1d cmd/built-in.o
                                         0x20 (size before relaxing)
 .rodata.do_irq.str1.1
                0x00000000416529d5       0x18 arch/arm/lib/built-in.o
                                         0x13 (size before relaxing)
 .rodata.do_link_local.str1.1
                0x00000000416529d5        0x9 cmd/built-in.o
 .rodata.do_load.str1.1
                0x00000000416529de       0x42 fs/built-in.o
                                         0x5b (size before relaxing)
 .rodata.do_ls.str1.1
                0x0000000041652a20        0x2 fs/built-in.o
 .rodata.do_mdio.str1.1
                0x0000000041652a20       0x65 cmd/built-in.o
 .rodata.do_mem_base.str1.1
                0x0000000041652a85       0x17 cmd/built-in.o
 .rodata.do_mem_cmp.str1.1
                0x0000000041652a9c       0x6e cmd/built-in.o
                                         0x73 (size before relaxing)
 .rodata.do_mem_cp.str1.1
                0x0000000041652b0a       0x11 cmd/built-in.o
 .rodata.do_mem_crc.str1.1
                0x0000000041652b1b        0x9 cmd/built-in.o
 .rodata.do_mii.str1.1
                0x0000000041652b24      0x294 cmd/built-in.o
                                        0x2b0 (size before relaxing)
 .rodata.do_mmc_dev.str1.1
                0x0000000041652db8       0x80 cmd/built-in.o
                                         0x83 (size before relaxing)
 .rodata.do_mmc_erase.str1.1
                0x0000000041652e38       0x67 cmd/built-in.o
 .rodata.do_mmc_hwpartition.str1.1
                0x0000000041652e9f      0x126 cmd/built-in.o
                                        0x142 (size before relaxing)
 .rodata.do_mmc_part.str1.1
                0x0000000041652fc5       0x15 cmd/built-in.o
 .rodata.do_mmc_read.str1.1
                0x0000000041652fda       0x43 cmd/built-in.o
 .rodata.do_mmc_setdsr.str1.1
                0x000000004165301d       0x37 cmd/built-in.o
                                         0x3d (size before relaxing)
 .rodata.do_mmc_write.str1.1
                0x0000000041653054       0x47 cmd/built-in.o
 .rodata.do_mmcinfo.str1.1
                0x000000004165309b      0x107 cmd/built-in.o
                                        0x159 (size before relaxing)
 .rodata.do_mmcops.str1.1
                0x00000000416531a2       0x19 cmd/built-in.o
 .rodata.do_not_used.str1.1
                0x00000000416531bb        0xa arch/arm/lib/built-in.o
 .rodata.do_ping.str1.1
                0x00000000416531c5       0x35 cmd/built-in.o
 .rodata.do_prefetch_abort.str1.1
                0x00000000416531fa       0x10 arch/arm/lib/built-in.o
 .rodata.do_print_ddr_cali_info.str1.1
                0x000000004165320a       0x64 board/molchip/built-in.o
                                         0x76 (size before relaxing)
 .rodata.do_pxe_boot.str1.1
                0x000000004165326e       0x38 cmd/built-in.o
 .rodata.do_pxe_get.str1.1
                0x00000000416532a6       0x41 cmd/built-in.o
                                         0x46 (size before relaxing)
 .rodata.do_reset.str1.1
                0x00000000416532e7       0x14 arch/arm/lib/built-in.o
 .rodata.do_run.str1.1
                0x00000000416532fb       0x1c common/built-in.o
 .rodata.do_size.str1.1
                0x00000000416532fb        0x9 fs/built-in.o
 .rodata.do_sntp.str1.1
                0x00000000416532fb       0x6e cmd/built-in.o
 .rodata.do_software_interrupt.str1.1
                0x0000000041653369       0x14 arch/arm/lib/built-in.o
 .rodata.do_source.str1.1
                0x000000004165337d       0x1e cmd/built-in.o
 .rodata.do_spi_flash.str1.1
                0x000000004165339b      0x1a9 cmd/built-in.o
                                        0x1c8 (size before relaxing)
 .rodata.do_sysboot.str1.1
                0x0000000041653544       0x43 cmd/built-in.o
 .rodata.do_undefined_instruction.str1.1
                0x0000000041653587       0x17 arch/arm/lib/built-in.o
 .rodata.do_usb.str1.1
                0x000000004165359e      0x272 cmd/built-in.o
                                        0x293 (size before relaxing)
 .rodata.do_usbboot.str1.1
                0x0000000041653810        0x4 cmd/built-in.o
 .rodata.do_version.str1.1
                0x0000000041653814       0x64 cmd/built-in.o
 .rodata.drv_nc_init.str1.1
                0x0000000041653878        0x3 drivers/net/built-in.o
 .rodata.dsi_dcs_rd_cmd.str1.1
                0x000000004165387b      0x171 common/built-in.o
 .rodata.dsi_dcs_wr_cmd.str1.1
                0x00000000416539ec       0x20 common/built-in.o
 .rodata.dsi_deinit.str1.1
                0x0000000041653a0c       0x62 common/built-in.o
                                         0x92 (size before relaxing)
 .rodata.dsi_gen_wr_cmd.str1.1
                0x0000000041653a6e       0x20 common/built-in.o
                                         0x37 (size before relaxing)
 .rodata.dsi_generic_write.str1.1
                0x0000000041653a8e       0x1a common/built-in.o
 .rodata.dsi_host_hs_mode.str1.1
                0x0000000041653aa8       0x3e common/built-in.o
 .rodata.dsi_host_lp_mode.str1.1
                0x0000000041653ae6       0x22 common/built-in.o
 .rodata.dsi_host_power_off.str1.1
                0x0000000041653b08      0x14b common/built-in.o
 .rodata.dsi_host_power_on.str1.1
                0x0000000041653c53       0x6a common/built-in.o
 .rodata.dsi_host_v0_deinit.str1.1
                0x0000000041653cbd       0x6f common/built-in.o
 .rodata.dsi_host_v0_init.str1.1
                0x0000000041653d2c      0xa48 common/built-in.o
 .rodata.dsi_hs_mode.str1.1
                0x0000000041654774       0x17 common/built-in.o
 .rodata.dsi_init.str1.1
                0x000000004165478b       0xb6 common/built-in.o
                                        0x10b (size before relaxing)
 .rodata.dsi_lp_mode.str1.1
                0x0000000041654841       0x17 common/built-in.o
 .rodata.dsi_phy_pll_cfg_get.str1.1
                0x0000000041654858       0xa8 common/built-in.o
                                         0xbf (size before relaxing)
 .rodata.dsi_phy_pll_v1_on.str1.1
                0x0000000041654900       0x1c common/built-in.o
 .rodata.dsi_phy_power_off.str1.1
                0x000000004165491c      0x148 common/built-in.o
 .rodata.dsi_phy_power_on.str1.1
                0x0000000041654a64       0x22 common/built-in.o
                                         0x69 (size before relaxing)
 .rodata.dsi_phy_v0_deinit.str1.1
                0x0000000041654a86       0x23 common/built-in.o
 .rodata.dsi_phy_v0_init.str1.1
                0x0000000041654aa9      0x1a5 common/built-in.o
                                        0x205 (size before relaxing)
 .rodata.dump_efuses.str1.1
                0x0000000041654c4e       0x38 drivers/built-in.o
 .rodata.dwc3_core_init.str1.1
                0x0000000041654c86       0x28 drivers/usb/host/built-in.o
 .rodata.efuse_init.str1.1
                0x0000000041654cae       0x2a drivers/built-in.o
 .rodata.env_callback_init.str1.1
                0x0000000041654cd8        0xb env/built-in.o
 .rodata.env_complete.str1.1
                0x0000000041654ce3        0x4 env/built-in.o
 .rodata.env_export.str1.1
                0x0000000041654ce3       0x3d env/built-in.o
 .rodata.env_flags_init.str1.1
                0x0000000041654ce3        0x7 env/built-in.o
 .rodata.env_flags_parse_varaccess.str1.1
                0x0000000041654cea       0x3d env/built-in.o
 .rodata.env_flags_parse_vartype.str1.1
                0x0000000041654d27       0x34 env/built-in.o
 .rodata.env_flags_validate.str1.1
                0x0000000041654d5b       0xb2 env/built-in.o
                                         0xb3 (size before relaxing)
 .rodata.env_flags_varaccess_rep
                0x0000000041654e0d        0x5 env/built-in.o
 .rodata.env_flags_vartype_rep
                0x0000000041654e12        0x7 env/built-in.o
 .rodata.env_get_bootm_low.str1.1
                0x0000000041654e19        0xa common/built-in.o
 .rodata.env_get_bootm_mapsize.str1.1
                0x0000000041654e23        0xe common/built-in.o
 .rodata.env_get_bootm_size.str1.1
                0x0000000041654e31        0xb common/built-in.o
 .rodata.env_get_f.str1.1
                0x0000000041654e3c       0x30 cmd/built-in.o
 .rodata.env_import.str1.1
                0x0000000041654e6c       0x55 env/built-in.o
 .rodata.env_print.str1.1
                0x0000000041654ec1       0x2c cmd/built-in.o
 .rodata.env_set.str1.1
                0x0000000041654eed        0x7 cmd/built-in.o
 .rodata.env_set_hex.str1.1
                0x0000000041654ef4        0x4 cmd/built-in.o
 .rodata.env_sf_load.str1.1
                0x0000000041654ef4       0x2a env/built-in.o
 .rodata.env_sf_save.part.0.str1.1
                0x0000000041654f1e       0x2d env/built-in.o
                                         0x33 (size before relaxing)
 .rodata.erase_seq
                0x0000000041654f4b        0x4 common/built-in.o
 .rodata.eth_current_changed.str1.1
                0x0000000041654f4f       0x14 net/built-in.o
 .rodata.eth_env_get_enetaddr_by_index.str1.1
                0x0000000041654f4f       0x10 net/built-in.o
 .rodata.eth_env_set_enetaddr.str1.1
                0x0000000041654f5f        0x4 net/built-in.o
 .rodata.eth_get_name.str1.1
                0x0000000041654f63        0x8 net/built-in.o
 .rodata.eth_init.str1.1
                0x0000000041654f6b       0x4e net/built-in.o
                                         0x28 (size before relaxing)
 .rodata.eth_initialize.str1.1
                0x0000000041654f6b       0x12 net/built-in.o
                                         0x15 (size before relaxing)
 .rodata.eth_mac_skip.str1.1
                0x0000000041654f7d       0x18 net/built-in.o
 .rodata.eth_post_bind.str1.1
                0x0000000041654f95       0x2b net/built-in.o
 .rodata.eth_post_probe.str1.1
                0x0000000041654fc0       0x92 net/built-in.o
                                         0x96 (size before relaxing)
 .rodata.eth_set_current.str1.1
                0x0000000041655052        0x9 net/built-in.o
 .rodata.eth_write_hwaddr.isra.0.str1.1
                0x0000000041655052       0x4e net/built-in.o
 .rodata.ethsw_egr_tag_help_key_func.str1.1
                0x00000000416550a0       0xb6 cmd/built-in.o
 .rodata.ethsw_fdb_help_key_func.str1.1
                0x0000000041655156       0xc4 cmd/built-in.o
 .rodata.ethsw_ingr_fltr_help_key_func.str1.1
                0x000000004165521a       0x7f cmd/built-in.o
 .rodata.ethsw_learn_help_key_func.str1.1
                0x0000000041655299       0x7b cmd/built-in.o
 .rodata.ethsw_port_aggr_help_key_func.str1.1
                0x0000000041655314       0x8f cmd/built-in.o
                                         0x5f (size before relaxing)
 .rodata.ethsw_port_stats_help_key_func.str1.1
                0x0000000041655314       0x5e cmd/built-in.o
 .rodata.ethsw_port_untag_help_key_func.str1.1
                0x0000000041655372       0x6d cmd/built-in.o
 .rodata.ethsw_pvid_help_key_func.str1.1
                0x00000000416553df       0x75 cmd/built-in.o
 .rodata.ethsw_vlan_help_key_func.str1.1
                0x0000000041655454       0x6d cmd/built-in.o
 .rodata.ethsw_vlan_learn_help_key_func.str1.1
                0x00000000416554c1       0x5c cmd/built-in.o
 .rodata.fat_read_file.str1.1
                0x000000004165551d       0x1e fs/built-in.o
 .rodata.fat_set_blk_dev.str1.1
                0x000000004165553b        0x3 fs/built-in.o
                                          0xd (size before relaxing)
 .rodata.fdt_address_cells.str1.1
                0x000000004165553e        0xf lib/built-in.o
 .rodata.fdt_chosen.str1.1
                0x000000004165554d       0x52 common/built-in.o
                                         0x5b (size before relaxing)
 .rodata.fdt_error.str1.1
                0x000000004165559f       0x2d common/built-in.o
 .rodata.fdt_find_or_add_subnode.str1.1
                0x00000000416555cc        0xc common/built-in.o
 .rodata.fdt_fixup_ethernet.str1.1
                0x00000000416555d8       0x2e common/built-in.o
                                         0x42 (size before relaxing)
 .rodata.fdt_fixup_memory_banks.str1.1
                0x0000000041655606       0x85 common/built-in.o
                                         0x94 (size before relaxing)
 .rodata.fdt_get_alias_namelen.str1.1
                0x000000004165568b        0x9 lib/built-in.o
 .rodata.fdt_initrd.str1.1
                0x000000004165568b       0x90 common/built-in.o
                                         0x97 (size before relaxing)
 .rodata.fdt_root.str1.1
                0x000000004165571b       0x4e common/built-in.o
 .rodata.fdt_size_cells.str1.1
                0x0000000041655769        0xc lib/built-in.o
 .rodata.fdt_strerror.str1.1
                0x0000000041655769       0x31 lib/built-in.o
 .rodata.fdt_support_default_count_cells.str1.1
                0x000000004165579a        0xc common/built-in.o
 .rodata.fdt_translate_address.str1.1
                0x00000000416557a6       0x22 common/built-in.o
 .rodata.fdt_valid.str1.1
                0x00000000416557c8       0x79 cmd/built-in.o
                                         0x7b (size before relaxing)
 .rodata.fdtdec_add_aliases_for_id.str1.1
                0x0000000041655841        0x9 lib/built-in.o
 .rodata.fdtdec_get_chosen_prop.str1.1
                0x0000000041655841        0x8 lib/built-in.o
 .rodata.fdtdec_get_config_int.str1.1
                0x0000000041655841        0x8 lib/built-in.o
 .rodata.fdtdec_get_is_enabled.str1.1
                0x0000000041655849        0x5 lib/built-in.o
                                          0xc (size before relaxing)
 .rodata.fdtdec_prepare_fdt.str1.1
                0x000000004165584e       0x96 lib/built-in.o
 .rodata.fdtdec_setup.str1.1
                0x00000000416558e4        0xf lib/built-in.o
 .rodata.file_fat_detectfs.str1.1
                0x00000000416558e4       0x64 fs/built-in.o
                                         0x84 (size before relaxing)
 .rodata.file_fat_read_at.str1.1
                0x0000000041655948        0xc fs/built-in.o
 .rodata.file_fat_write.str1.1
                0x0000000041655954       0x40 fs/built-in.o
 .rodata.find_mmc_device.str1.1
                0x0000000041655994       0x19 drivers/built-in.o
 .rodata.flush_dir_table.constprop.0.str1.1
                0x00000000416559ad       0x21 fs/built-in.o
 .rodata.format_mac_pxe.constprop.0.str1.1
                0x00000000416559ce       0x21 cmd/built-in.o
                                         0x25 (size before relaxing)
 .rodata.from_env.str1.1
                0x00000000416559ef       0x22 cmd/built-in.o
 .rodata.fs_probe_unsupported.str1.1
                0x0000000041655a11       0x24 fs/built-in.o
 .rodata.fs_read.str1.1
                0x0000000041655a35       0x24 fs/built-in.o
 .rodata.genimg_get_arch_name.str1.1
                0x0000000041655a59       0x15 common/built-in.o
 .rodata.genimg_get_comp_name.str1.1
                0x0000000041655a6e       0x14 common/built-in.o
 .rodata.genimg_get_os_name.str1.1
                0x0000000041655a82        0xb common/built-in.o
 .rodata.genimg_get_type_name.str1.1
                0x0000000041655a8d        0xe common/built-in.o
 .rodata.genimg_print_size.str1.1
                0x0000000041655a9b        0xc common/built-in.o
                                          0xe (size before relaxing)
 .rodata.genimg_print_time.str1.1
                0x0000000041655aa7       0x22 common/built-in.o
 .rodata.genphy_update_link.str1.1
                0x0000000041655ac9       0x54 drivers/net/phy/built-in.o
                                         0x56 (size before relaxing)
 .rodata.getRegPtr.str1.1
                0x0000000041655b1d       0x37 common/built-in.o
 .rodata.getRegValuePtr.str1.1
                0x0000000041655b54       0x24 common/built-in.o
 .rodata.get_cluster.str1.1
                0x0000000041655b78       0x25 fs/built-in.o
 .rodata.get_descriptor_len.str1.1
                0x0000000041655b9d       0x64 common/built-in.o
 .rodata.get_ecc_sts_with_check_ecc_chunk.str1.1
                0x0000000041655c01       0x51 board/molchip/built-in.o
 .rodata.get_fatent.str1.1
                0x0000000041655c52       0x22 fs/built-in.o
 .rodata.get_lcm_handle.str1.1
                0x0000000041655c74       0x12 common/built-in.o
 .rodata.get_lcm_work_mode.str1.1
                0x0000000041655c86       0x57 common/built-in.o
 .rodata.get_phy_device_by_mask.str1.1
                0x0000000041655cdd       0x29 drivers/net/phy/built-in.o
 .rodata.get_pxe_file.str1.1
                0x0000000041655d06        0x9 cmd/built-in.o
 .rodata.get_pxelinux_path.str1.1
                0x0000000041655d0f       0x3e cmd/built-in.o
 .rodata.get_relfile.str1.1
                0x0000000041655d4d       0x5a cmd/built-in.o
                                         0x63 (size before relaxing)
 .rodata.get_vfatname.constprop.0.isra.0.str1.1
                0x0000000041655da7       0x13 fs/built-in.o
 .rodata.gmac_loopback_autoscan.str1.1
                0x0000000041655dba       0x46 drivers/net/built-in.o
                                         0x4a (size before relaxing)
 .rodata.gpio_request.str1.1
                0x0000000041655e00       0x18 drivers/gpio/built-in.o
 .rodata.gunzip.str1.1
                0x0000000041655e18       0x3e lib/built-in.o
 .rodata.handle_include.str1.1
                0x0000000041655e56       0x33 cmd/built-in.o
 .rodata.handle_pxe_menu.str1.1
                0x0000000041655e89       0x15 cmd/built-in.o
                                         0x18 (size before relaxing)
 .rodata.hang.str1.1
                0x0000000041655e9e       0x2a lib/built-in.o
 .rodata.hash_command.str1.1
                0x0000000041655ec8       0x9d common/built-in.o
                                         0x9f (size before relaxing)
 .rodata.hash_show.str1.1
                0x0000000041655f65       0x1c common/built-in.o
                                         0x21 (size before relaxing)
 .rodata.hex_asc
                0x0000000041655f81       0x11 lib/built-in.o
 .rodata.hexport_r.str1.1
                0x0000000041655f92       0x30 lib/built-in.o
 .rodata.himport_r.str1.1
                0x0000000041655fc2       0x99 lib/built-in.o
 .rodata.icmp_handler.str1.1
                0x000000004165605b       0x26 net/built-in.o
 .rodata.image_info.str1.1
                0x0000000041656081       0xac cmd/built-in.o
 .rodata.image_print_contents.str1.1
                0x000000004165612d       0xe1 common/built-in.o
                                         0xe5 (size before relaxing)
 .rodata.image_setup_libfdt.str1.1
                0x000000004165620e       0x8f common/built-in.o
 .rodata.inflate.str1.1
                0x000000004165629d      0x158 lib/built-in.o
 .rodata.inflate_fast.str1.1
                0x00000000416563f5       0x50 lib/built-in.o
 .rodata.init_baud_rate.str1.1
                0x0000000041656445        0x9 common/built-in.o
 .rodata.init_gmac.str1.1
                0x000000004165644e        0xc drivers/net/built-in.o
 .rodata.initcall_run_list.str1.1
                0x000000004165645a       0x31 lib/built-in.o
 .rodata.initr_aes.str1.1
                0x000000004165648b       0x1a common/built-in.o
 .rodata.initr_env.str1.1
                0x00000000416564a5       0x20 common/built-in.o
                                         0x29 (size before relaxing)
 .rodata.initr_ethaddr.str1.1
                0x00000000416564c5        0x8 common/built-in.o
 .rodata.ip_to_string.str1.1
                0x00000000416564cd        0xc net/built-in.o
 .rodata.is_broadcast.str1.1
                0x00000000416564d9        0xf drivers/net/built-in.o
 .rodata.keyword_match_mac_addr.str1.1
                0x00000000416564d9       0x19 cmd/built-in.o
 .rodata.label_boot.str1.1
                0x00000000416564f2      0x15a cmd/built-in.o
                                        0x19c (size before relaxing)
 .rodata.label_print.str1.1
                0x000000004165664c        0x8 cmd/built-in.o
 .rodata.lcmClearCmdStatus.str1.1
                0x0000000041656654       0x13 common/built-in.o
 .rodata.lcmGetCmdStatus.str1.1
                0x0000000041656667       0x13 common/built-in.o
 .rodata.lcmMcuApiDeInit.str1.1
                0x000000004165667a       0x54 common/built-in.o
 .rodata.lcmMcuApiInit.str1.1
                0x00000000416566ce       0xdf common/built-in.o
 .rodata.lcmMcuApiPushTable.str1.1
                0x00000000416567ad       0x45 common/built-in.o
 .rodata.lcmMcuApiReadData.str1.1
                0x00000000416567f2       0x79 common/built-in.o
 .rodata.lcmMcuApiReadRegData.str1.1
                0x000000004165686b       0x2d common/built-in.o
 .rodata.lcmMcuApiWriteCmd.str1.1
                0x0000000041656898       0x51 common/built-in.o
 .rodata.lcmMcuApiWriteData.str1.1
                0x00000000416568e9       0x53 common/built-in.o
 .rodata.lcmSetBitMap.str1.1
                0x000000004165693c       0x4e common/built-in.o
 .rodata.lcmSetCmdRun.str1.1
                0x000000004165698a        0xd common/built-in.o
 .rodata.lcmSetMcuBitDepth.str1.1
                0x0000000041656997       0x11 common/built-in.o
 .rodata.lcmSetMcuIfType.str1.1
                0x00000000416569a8        0x9 common/built-in.o
 .rodata.lcmSetStatusSwitchTrigger.str1.1
                0x00000000416569b1        0xb common/built-in.o
 .rodata.lcmSetTimingWrSetup.str1.1
                0x00000000416569bc        0xf common/built-in.o
 .rodata.lcm_bus_pin_cfg.str1.1
                0x00000000416569cb       0x1a common/built-in.o
 .rodata.lcm_func_init.str1.1
                0x00000000416569e5       0x4c common/built-in.o
 .rodata.lcm_func_probe.str1.1
                0x0000000041656a31       0x87 common/built-in.o
                                         0xa0 (size before relaxing)
 .rodata.lcm_mcu16_st7796s_clear.str1.1
                0x0000000041656ab8       0x11 common/built-in.o
 .rodata.lcm_mcu_st7796s_clear.str1.1
                0x0000000041656ab8       0x11 common/built-in.o
 .rodata.link_local_start.str1.1
                0x0000000041656ac9       0x15 net/built-in.o
                                         0x1e (size before relaxing)
 .rodata.link_local_timeout.str1.1
                0x0000000041656ade       0x1c net/built-in.o
 .rodata.lists_bind_drivers.str1.1
                0x0000000041656afa       0x1a drivers/built-in.o
 .rodata.lists_bind_fdt.str1.1
                0x0000000041656b14       0x4a drivers/built-in.o
 .rodata.lmb_alloc_base.str1.1
                0x0000000041656b5e       0x34 lib/built-in.o
 .rodata.main_loop.str1.1
                0x0000000041656b92       0x11 common/built-in.o
 .rodata.match_string.constprop.0.str1.1
                0x0000000041656ba3       0x2c lib/built-in.o
 .rodata.mc_aes_call.str1.1
                0x0000000041656bcf       0x6d drivers/built-in.o
 .rodata.mc_dwmmc_probe.str1.1
                0x0000000041656c3c        0xa drivers/built-in.o
                                          0xd (size before relaxing)
 .rodata.mc_efuse_read.str1.1
                0x0000000041656c46       0x42 drivers/built-in.o
 .rodata.mc_efuse_write.str1.1
                0x0000000041656c88       0x51 drivers/built-in.o
 .rodata.mc_lcm_probe.str1.1
                0x0000000041656cd9       0x44 common/built-in.o
 .rodata.mc_printf.str1.1
                0x0000000041656d1d       0x1d board/molchip/built-in.o
 .rodata.mc_rtc_core_write.str1.1
                0x0000000041656d3a       0x23 drivers/built-in.o
 .rodata.mdio_list_devices.str1.1
                0x0000000041656d5d       0x17 common/built-in.o
                                         0x19 (size before relaxing)
 .rodata.mdio_phydev_for_ethname.str1.1
                0x0000000041656d74       0x1c common/built-in.o
 .rodata.mdio_register.str1.1
                0x0000000041656d90       0x2c common/built-in.o
 .rodata.menu_get_choice.str1.1
                0x0000000041656dbc       0x2a common/built-in.o
 .rodata.miiphy_duplex.str1.1
                0x0000000041656de6       0x4f common/built-in.o
 .rodata.miiphy_get_dev_by_name.str1.1
                0x0000000041656e35       0x13 common/built-in.o
 .rodata.miiphy_listdev.str1.1
                0x0000000041656e48       0x2a common/built-in.o
 .rodata.miiphy_set_current_dev.str1.1
                0x0000000041656e72       0x14 common/built-in.o
 .rodata.miiphy_speed.str1.1
                0x0000000041656e86       0x49 common/built-in.o
 .rodata.mmc_berase.str1.1
                0x0000000041656ecf       0x6f drivers/built-in.o
 .rodata.mmc_bind.str1.1
                0x0000000041656f3e        0x8 drivers/built-in.o
                                          0xc (size before relaxing)
 .rodata.mmc_bread.str1.1
                0x0000000041656f46       0x47 drivers/built-in.o
 .rodata.mmc_bwrite.str1.1
                0x0000000041656f8d       0x12 drivers/built-in.o
                                         0x59 (size before relaxing)
 .rodata.mmc_hwpart_config.str1.1
                0x0000000041656f9f      0x19f drivers/built-in.o
 .rodata.mmc_init.str1.1
                0x000000004165713e       0x12 drivers/built-in.o
 .rodata.mmc_initialize.str1.1
                0x0000000041657150       0x17 drivers/built-in.o
 .rodata.mmc_send_status.str1.1
                0x0000000041657167       0x32 drivers/built-in.o
 .rodata.mmc_start_init.str1.1
                0x0000000041657199       0x3f drivers/built-in.o
 .rodata.mmc_startup.str1.1
                0x00000000416571d8       0xd4 drivers/built-in.o
                                         0xda (size before relaxing)
 .rodata.mochip7c01_config.str1.1
                0x00000000416572ac       0x20 drivers/net/phy/built-in.o
 .rodata.mod_mem.part.0.str1.1
                0x00000000416572cc       0x1d cmd/built-in.o
 .rodata.mol_lcm_init.str1.1
                0x00000000416572e9       0xb7 common/built-in.o
 .rodata.mol_lcm_probe.str1.1
                0x00000000416573a0       0x12 common/built-in.o
 .rodata.mol_lcm_scan.str1.1
                0x00000000416573b2      0x2b6 common/built-in.o
                                        0x2cc (size before relaxing)
 .rodata.molchip_probe.str1.1
                0x0000000041657668       0x78 drivers/built-in.o
 .rodata.molchip_pwm_open.str1.1
                0x00000000416576e0       0x40 drivers/built-in.o
 .rodata.molchip_pwm_probe.str1.1
                0x0000000041657720       0x37 drivers/built-in.o
 .rodata.molchip_pwm_set_config.str1.1
                0x0000000041657757       0xed drivers/built-in.o
 .rodata.molchip_rtc_get.str1.1
                0x0000000041657844       0x22 drivers/built-in.o
 .rodata.molchip_rtc_set.str1.1
                0x0000000041657866       0x68 drivers/built-in.o
 .rodata.mtd_arg_off.str1.1
                0x00000000416578ce       0x38 drivers/mtd/built-in.o
 .rodata.mtd_arg_off_size.str1.1
                0x0000000041657906       0x4a drivers/mtd/built-in.o
 .rodata.multipliers
                0x0000000041657950       0x10 drivers/built-in.o
 .rodata.names.0
                0x0000000041657960        0x6 lib/built-in.o
 .rodata.net_auto_load.str1.1
                0x0000000041657966        0xd net/built-in.o
 .rodata.net_bcast_ethaddr
                0x0000000041657973        0x6 net/built-in.o
                0x0000000041657973                net_bcast_ethaddr
 .rodata.net_cdp_ethaddr
                0x0000000041657979        0x6 net/built-in.o
                0x0000000041657979                net_cdp_ethaddr
 .rodata.net_loop.str1.1
                0x000000004165797f      0x12f net/built-in.o
                                        0x149 (size before relaxing)
 .rodata.net_null_ethaddr
                0x0000000041657aae        0x6 net/built-in.o
                0x0000000041657aae                net_null_ethaddr
 .rodata.net_process_received_packet.str1.1
                0x0000000041657ab4       0x1d net/built-in.o
 .rodata.net_start_again.str1.1
                0x0000000041657ad1        0xe net/built-in.o
                                         0x15 (size before relaxing)
 .rodata.netboot_common.str1.1
                0x0000000041657adf       0x35 cmd/built-in.o
                                         0x60 (size before relaxing)
 .rodata.nfs_handler.str1.1
                0x0000000041657b14       0x56 net/built-in.o
 .rodata.nfs_lookup_reply.str1.1
                0x0000000041657b6a       0x25 net/built-in.o
                                         0x27 (size before relaxing)
 .rodata.nfs_read_reply.constprop.0.str1.1
                0x0000000041657b8f        0x4 net/built-in.o
 .rodata.nfs_readlink_reply.str1.1
                0x0000000041657b93        0x2 net/built-in.o
 .rodata.nfs_start.str1.1
                0x0000000041657b93       0x1e net/built-in.o
                                         0x1f (size before relaxing)
 .rodata.nfs_timeout_handler.str1.1
                0x0000000041657bb1       0x2a net/built-in.o
 .rodata.on_baudrate.str1.1
                0x0000000041657bdb       0x74 drivers/serial/built-in.o
 .rodata.on_callbacks.str1.1
                0x0000000041657c4f      0x10c env/built-in.o
 .rodata.on_console.str1.1
                0x0000000041657d5b        0x7 common/built-in.o
                                         0x27 (size before relaxing)
 .rodata.on_flags.str1.1
                0x0000000041657d5b       0x58 env/built-in.o
 .rodata.parse_argv.str1.1
                0x0000000041657db3        0xd cmd/built-in.o
 .rodata.parse_integer.str1.1
                0x0000000041657db3       0x17 cmd/built-in.o
 .rodata.parse_pxefile_top.str1.1
                0x0000000041657dca       0x89 cmd/built-in.o
 .rodata.parse_sliteral.str1.1
                0x0000000041657e53       0x1f cmd/built-in.o
 .rodata.part_get_info_extended.constprop.0.str1.1
                0x0000000041657e72        0x7 disk/built-in.o
 .rodata.part_print.str1.1
                0x0000000041657e72       0x87 disk/built-in.o
                                         0x90 (size before relaxing)
 .rodata.part_print_dos.str1.1
                0x0000000041657ef9       0x2a disk/built-in.o
 .rodata.part_set_generic_name.str1.1
                0x0000000041657f23        0xa disk/built-in.o
 .rodata.phy_connect.str1.1
                0x0000000041657f2d       0x23 drivers/net/phy/built-in.o
 .rodata.phy_connect_dev.str1.1
                0x0000000041657f50       0x2f drivers/net/phy/built-in.o
 .rodata.phy_reset.str1.1
                0x0000000041657f7f       0x15 drivers/net/phy/built-in.o
 .rodata.ping_start.str1.1
                0x0000000041657f94       0x11 net/built-in.o
 .rodata.prepare_ring.str1.1
                0x0000000041657f94       0xa0 drivers/usb/host/built-in.o
 .rodata.print_buffer.str1.1
                0x0000000041658034        0xe lib/built-in.o
                                         0x17 (size before relaxing)
 .rodata.print_data.part.0.str1.1
                0x0000000041658042       0x29 cmd/built-in.o
                                         0x32 (size before relaxing)
 .rodata.print_freq.str1.1
                0x000000004165806b       0x1b lib/built-in.o
 .rodata.print_mmc_devices.str1.1
                0x0000000041658086       0x12 drivers/built-in.o
                                         0x1c (size before relaxing)
 .rodata.print_num.str1.1
                0x0000000041658098       0x10 cmd/built-in.o
 .rodata.print_partition_extended.str1.1
                0x00000000416580a8       0x83 disk/built-in.o
                                         0x84 (size before relaxing)
 .rodata.print_size.str1.1
                0x000000004165812b       0x15 lib/built-in.o
 .rodata.pwm_test.str1.1
                0x0000000041658140       0xff drivers/built-in.o
 .rodata.qos_mdio_read.str1.1
                0x000000004165823f       0x7f drivers/net/built-in.o
 .rodata.qos_mdio_wait_idle.isra.0.str1.1
                0x00000000416582be       0x10 drivers/net/built-in.o
                                          0x7 (size before relaxing)
 .rodata.qos_probe.str1.1
                0x00000000416582be      0x2e9 drivers/net/built-in.o
                                        0x321 (size before relaxing)
 .rodata.qos_probe_resources_core.str1.1
                0x00000000416585a7       0x10 drivers/net/built-in.o
 .rodata.qos_start.str1.1
                0x00000000416585b7      0x1b7 drivers/net/built-in.o
 .rodata.rarp_receive.str1.1
                0x000000004165876e       0x15 net/built-in.o
                                         0x29 (size before relaxing)
 .rodata.rarp_request.str1.1
                0x0000000041658783       0x13 net/built-in.o
 .rodata.rarp_timeout_handler.str1.1
                0x0000000041658796       0x27 net/built-in.o
 .rodata.read_bootsectandvi.str1.1
                0x0000000041658796       0x1b fs/built-in.o
 .rodata.read_tab_index.str1.1
                0x00000000416587b1       0x27 common/built-in.o
 .rodata.record_transfer_result.str1.1
                0x00000000416587d8       0x1d drivers/usb/host/built-in.o
                                         0x3f (size before relaxing)
 .rodata.refresh_settings_from_env.str1.1
                0x00000000416587f5       0x18 drivers/net/built-in.o
 .rodata.regDefaultChecker.str1.1
                0x000000004165880d       0x39 common/built-in.o
                                         0x50 (size before relaxing)
 .rodata.regRead32.str1.1
                0x0000000041658846       0x18 common/built-in.o
 .rodata.regWrite32.str1.1
                0x000000004165885e       0x18 common/built-in.o
 .rodata.rgb_deinit.str1.1
                0x0000000041658876       0x3b common/built-in.o
                                         0x6b (size before relaxing)
 .rodata.rgb_init.str1.1
                0x00000000416588b1       0x7e common/built-in.o
                                        0x118 (size before relaxing)
 .rodata.rtl8211x_startup.str1.1
                0x000000004165892f       0x1e drivers/net/phy/built-in.o
                                         0x31 (size before relaxing)
 .rodata.scan_function.isra.0.str1.1
                0x000000004165894d      0x1c9 drivers/net/built-in.o
                                        0x223 (size before relaxing)
 .rodata.serial_init.str1.1
                0x0000000041658b16       0x23 drivers/serial/built-in.o
                                         0x2b (size before relaxing)
 .rodata.set_default_env.str1.1
                0x0000000041658b39        0xd env/built-in.o
                                         0x4a (size before relaxing)
 .rodata.set_working_fdt_addr.str1.1
                0x0000000041658b46        0x8 cmd/built-in.o
 .rodata.setup_flash_device.part.0.str1.1
                0x0000000041658b4e       0x1a env/built-in.o
 .rodata.show_devices.str1.1
                0x0000000041658b68       0x21 drivers/built-in.o
                                         0x2a (size before relaxing)
 .rodata.show_regs.str1.1
                0x0000000041658b89      0x143 arch/arm/lib/built-in.o
                                        0x174 (size before relaxing)
 .rodata.simple_bus_post_bind.str1.1
                0x0000000041658ccc        0x7 drivers/built-in.o
 .rodata.sntp_timeout_handler.str1.1
                0x0000000041658ccc        0x9 net/built-in.o
 .rodata.source.str1.1
                0x0000000041658ccc       0x7e cmd/built-in.o
 .rodata.spi_dma_linklist_read_start.str1.1
                0x0000000041658d4a       0x21 drivers/mtd/spi/built-in.o
 .rodata.spi_dma_linklist_read_stop.str1.1
                0x0000000041658d6b       0x1e drivers/mtd/spi/built-in.o
 .rodata.spi_mx_quad_enable.str1.1
                0x0000000041658d89       0x1c drivers/mtd/spi/built-in.o
 .rodata.spi_nand_flash.str1.1
                0x0000000041658da5        0xf drivers/mtd/spi/built-in.o
 .rodata.spi_nand_program.str1.1
                0x0000000041658db4        0x2 board/molchip/built-in.o
                                          0x5 (size before relaxing)
 .rodata.spi_nand_read_from_cache.constprop.0.str1.1
                0x0000000041658db6       0x2a board/molchip/built-in.o
 .rodata.spi_nand_scan_id_table.str1.1
                0x0000000041658de0       0x36 board/molchip/built-in.o
 .rodata.spi_nor_3to4_erase.0
                0x0000000041658e16        0x6 drivers/mtd/spi/built-in.o
 .rodata.spi_nor_3to4_program.1
                0x0000000041658e1c        0x4 drivers/mtd/spi/built-in.o
 .rodata.spi_nor_3to4_read.2
                0x0000000041658e20        0x8 drivers/mtd/spi/built-in.o
 .rodata.spi_nor_cont_read_done.str1.1
                0x0000000041658e28       0x1b drivers/mtd/spi/built-in.o
 .rodata.spi_nor_erase.str1.1
                0x0000000041658e43        0x8 drivers/mtd/spi/built-in.o
 .rodata.spi_nor_init.str1.1
                0x0000000041658e4b       0x19 drivers/mtd/spi/built-in.o
 .rodata.spi_nor_program.str1.1
                0x0000000041658e64        0xb drivers/mtd/spi/built-in.o
                                          0xf (size before relaxing)
 .rodata.spi_nor_read_id.str1.1
                0x0000000041658e6f       0x33 drivers/mtd/spi/built-in.o
 .rodata.spi_nor_read_mode.str1.1
                0x0000000041658ea2        0xf drivers/mtd/spi/built-in.o
 .rodata.spi_nor_scan.str1.1
                0x0000000041658eb1       0x20 drivers/mtd/spi/built-in.o
 .rodata.spi_nor_setup.str1.1
                0x0000000041658ed1      0x115 drivers/mtd/spi/built-in.o
 .rodata.spi_quad_enable.str1.1
                0x0000000041658fe6       0x42 drivers/mtd/spi/built-in.o
 .rodata.stdio_add_devices.str1.1
                0x0000000041659028        0x7 common/built-in.o
 .rodata.store_tab_index.str1.1
                0x0000000041659028       0x3d common/built-in.o
 .rodata.str1.1
                0x0000000041659065       0xeb arch/arm/lib/built-in.o
 .rodata.str1.1
                0x0000000041659150      0x11f board/molchip/built-in.o
 .rodata.str1.1
                0x000000004165926f     0x2dff cmd/built-in.o
                                       0x2eb3 (size before relaxing)
 .rodata.str1.1
                0x000000004165c06e      0x690 common/built-in.o
                                        0x6fc (size before relaxing)
 .rodata.str1.1
                0x000000004165c6fe       0x17 disk/built-in.o
                                         0x1a (size before relaxing)
 .rodata.str1.1
                0x000000004165c715      0x1ad drivers/built-in.o
                                        0x1de (size before relaxing)
 .rodata.str1.1
                0x000000004165c8c2        0x4 drivers/mtd/built-in.o
 .rodata.str1.1
                0x000000004165c8c6      0x224 drivers/mtd/spi/built-in.o
 .rodata.str1.1
                0x000000004165caea       0xf7 drivers/net/built-in.o
 .rodata.str1.1
                0x000000004165cbe1       0xcb drivers/net/phy/built-in.o
                                         0xe4 (size before relaxing)
 .rodata.str1.1
                0x000000004165ccac       0x1b drivers/serial/built-in.o
                                         0x2b (size before relaxing)
 .rodata.str1.1
                0x000000004165ccc7        0xf drivers/usb/common/built-in.o
                                         0x15 (size before relaxing)
 .rodata.str1.1
                0x000000004165ccd6        0x9 drivers/usb/eth/built-in.o
 .rodata.str1.1
                0x000000004165ccdf       0x29 drivers/usb/host/built-in.o
                                         0x2d (size before relaxing)
 .rodata.str1.1
                0x000000004165cd08        0xa env/built-in.o
                                         0x1a (size before relaxing)
 .rodata.str1.1
                0x000000004165cd12        0xc fs/built-in.o
                                         0x10 (size before relaxing)
 .rodata.str1.1
                0x000000004165cd1e      0x4d4 lib/built-in.o
                                        0x4e9 (size before relaxing)
 .rodata.str1.1
                0x000000004165d1f2       0x44 net/built-in.o
 .rodata.str1.1
                0x000000004165d1f2       0xdc test/dm/built-in.o
                                         0xe2 (size before relaxing)
 .rodata.string.str1.1
                0x000000004165d2ce        0x7 lib/built-in.o
 .rodata.tab_seq
                0x000000004165d2d5        0x9 common/built-in.o
 .rodata.test_block_type.str1.1
                0x000000004165d2de        0xa disk/built-in.o
 .rodata.tftp_complete.str1.1
                0x000000004165d2e8        0xe net/built-in.o
 .rodata.tftp_handler.str1.1
                0x000000004165d2e8       0x72 net/built-in.o
 .rodata.tftp_send.str1.1
                0x000000004165d35a       0x36 net/built-in.o
                                         0x42 (size before relaxing)
 .rodata.tftp_start.str1.1
                0x000000004165d390      0x18b net/built-in.o
                                        0x1b5 (size before relaxing)
 .rodata.tftp_start_server.str1.1
                0x000000004165d51b       0x25 net/built-in.o
 .rodata.tftp_timeout_handler.str1.1
                0x000000004165d540       0x15 net/built-in.o
                                         0x18 (size before relaxing)
 .rodata.ts01_serial_ofdata_to_platdata.str1.1
                0x000000004165d555        0x3 drivers/serial/built-in.o
 .rodata.uclass_resolve_seq.str1.1
                0x000000004165d555       0x27 drivers/built-in.o
 .rodata.udelay.str1.1
                0x000000004165d57c       0x1e lib/built-in.o
 .rodata.us_direction
                0x000000004165d59a       0x20 common/built-in.o
 .rodata.usb_child_post_bind.str1.1
                0x000000004165d5ba       0x25 drivers/usb/host/built-in.o
 .rodata.usb_display_class_sub.str1.1
                0x000000004165d5df       0xb6 cmd/built-in.o
                                         0xbc (size before relaxing)
 .rodata.usb_display_config.str1.1
                0x000000004165d695      0x10d cmd/built-in.o
                                        0x118 (size before relaxing)
 .rodata.usb_display_desc.str1.1
                0x000000004165d7a2       0xac cmd/built-in.o
                                         0xae (size before relaxing)
 .rodata.usb_display_string.str1.1
                0x000000004165d84e        0xd cmd/built-in.o
 .rodata.usb_ether_receive.str1.1
                0x000000004165d85b       0x1b drivers/usb/eth/built-in.o
 .rodata.usb_get_class_desc.str1.1
                0x000000004165d876       0x64 cmd/built-in.o
                                         0x65 (size before relaxing)
 .rodata.usb_get_configuration_len.str1.1
                0x000000004165d8da       0x58 common/built-in.o
 .rodata.usb_get_dr_mode.str1.1
                0x000000004165d932       0x51 drivers/usb/common/built-in.o
 .rodata.usb_hub_configure.str1.1
                0x000000004165d983       0x5f common/built-in.o
 .rodata.usb_hub_port_connect_change.str1.1
                0x000000004165d9e2       0x18 common/built-in.o
 .rodata.usb_init.str1.1
                0x000000004165d9fa       0x7e drivers/usb/host/built-in.o
 .rodata.usb_mass_storage_probe.str1.1
                0x000000004165da78       0x16 common/built-in.o
 .rodata.usb_scan_bus.constprop.0.str1.1
                0x000000004165da8e       0x4d drivers/usb/host/built-in.o
                                         0x5f (size before relaxing)
 .rodata.usb_scan_device.str1.1
                0x000000004165dadb       0x2a drivers/usb/host/built-in.o
 .rodata.usb_select_config.str1.1
                0x000000004165db05      0x220 common/built-in.o
 .rodata.usb_set_interface.str1.1
                0x000000004165dd25       0x1f common/built-in.o
 .rodata.usb_setup_device.str1.1
                0x000000004165dd44       0x91 common/built-in.o
 .rodata.usb_show_tree_graph.str1.1
                0x000000004165ddd5       0x2f cmd/built-in.o
                                         0x3a (size before relaxing)
 .rodata.usb_stor_CBI_get_status.str1.1
                0x000000004165de04       0x1f common/built-in.o
 .rodata.usb_stor_CB_transport.str1.1
                0x000000004165de23       0x6e common/built-in.o
 .rodata.usb_stor_get_info.str1.1
                0x000000004165de91       0x5d common/built-in.o
 .rodata.usb_stor_info.str1.1
                0x000000004165deee       0x32 common/built-in.o
                                         0x40 (size before relaxing)
 .rodata.usb_stor_scan.str1.1
                0x000000004165df20       0x48 common/built-in.o
 .rodata.usb_storage_probe.str1.1
                0x000000004165df68       0x5c common/built-in.o
 .rodata.valid_elf_image.str1.1
                0x000000004165dfc4       0x52 cmd/built-in.o
 .rodata.var_complete.str1.1
                0x000000004165e016        0x1 common/built-in.o
 .rodata.version_string
                0x000000004165e016       0x34 cmd/built-in.o
                0x000000004165e016                version_string
 .rodata.vlan_to_string.str1.1
                0x000000004165e04a        0x8 net/built-in.o
 .rodata.write_efuse.str1.1
                0x000000004165e04a       0x25 drivers/built-in.o
 .rodata.xhci_alloc_device.str1.1
                0x000000004165e06f       0x34 drivers/usb/host/built-in.o
 .rodata.xhci_alloc_virt_device.str1.1
                0x000000004165e0a3       0xa5 drivers/usb/host/built-in.o
 .rodata.xhci_configure_endpoints.str1.1
                0x000000004165e148       0x8e drivers/usb/host/built-in.o
 .rodata.xhci_mem_init.str1.1
                0x000000004165e1d6       0x19 drivers/usb/host/built-in.o
 .rodata.xhci_register.str1.1
                0x000000004165e1ef       0x44 drivers/usb/host/built-in.o
 .rodata.xhci_reset.str1.1
                0x000000004165e233       0x28 drivers/usb/host/built-in.o
 .rodata.xhci_ring_free.str1.1
                0x000000004165e25b       0x1c drivers/usb/host/built-in.o
                                         0x3e (size before relaxing)
 .rodata.xhci_submit_bulk_msg.str1.1
                0x000000004165e277       0x19 drivers/usb/host/built-in.o
 .rodata.xhci_submit_control_msg.str1.1
                0x000000004165e290      0x185 drivers/usb/host/built-in.o
 .rodata.xhci_wait_for_event.str1.1
                0x000000004165e415       0x70 drivers/usb/host/built-in.o
 .rodata.zunzip.str1.1
                0x000000004165e485       0x47 lib/built-in.o

.hash           0x000000004165e4cc       0x18
 .hash          0x000000004165e4cc       0x18 arch/arm/cpu/armv7/start.o
                0x000000004165e4e4                . = ALIGN (0x4)

.data           0x000000004165e500    0x17c24
 *(.data*)
 .data.rel.ro   0x000000004165e500        0x0 arch/arm/cpu/armv7/start.o
 .data          0x000000004165e500     0xfecf board/molchip/built-in.o
                0x000000004165e500                _binary_logo_jpg_start
                0x000000004166e3cf                _binary_logo_jpg_end
 *fill*         0x000000004166e3cf        0x1 
 .data.cfg_reg  0x000000004166e3d0       0x80 board/molchip/built-in.o
                0x000000004166e3d0                cfg_reg
 .data.cfg_reg_len
                0x000000004166e450        0x4 board/molchip/built-in.o
                0x000000004166e450                cfg_reg_len
 .data.iram_mach_code
                0x000000004166e454      0x400 board/molchip/built-in.o
                0x000000004166e454                iram_mach_code
 .data.spi_nand_table
                0x000000004166e854      0x2ac board/molchip/built-in.o
                0x000000004166e854                spi_nand_table
 .data.bootm_help_text
                0x000000004166eb00      0x38b cmd/built-in.o
 *fill*         0x000000004166ee8b        0x1 
 .data.cmd_bootm_sub
                0x000000004166ee8c       0xfc cmd/built-in.o
 .data.source_help_text
                0x000000004166ef88       0x4e cmd/built-in.o
 .data.bootz_help_text
                0x000000004166efd6      0x208 cmd/built-in.o
 .data.bootx_help_text
                0x000000004166f1de       0xe6 cmd/built-in.o
 .data.default_tm
                0x000000004166f2c4       0x24 cmd/built-in.o
 .data.fdt_help_text
                0x000000004166f2e8      0x60a cmd/built-in.o
 .data.root.1   0x000000004166f8f2        0x2 cmd/built-in.o
 .data.tabs.0   0x000000004166f8f4       0x21 cmd/built-in.o
 *fill*         0x000000004166f915        0x3 
 .data.dp_last_length
                0x000000004166f918        0x4 cmd/built-in.o
 .data.cmd_mmc  0x000000004166f91c      0x118 cmd/built-in.o
 .data.curr_device
                0x000000004166fa34        0x4 cmd/built-in.o
 .data.cmd_pxe_sub
                0x000000004166fa38       0x38 cmd/built-in.o
 .data.pxe_default_paths
                0x000000004166fa70       0x10 cmd/built-in.o
                0x000000004166fa70                pxe_default_paths
 .data.usb_stor_curr_dev
                0x000000004166fa80        0x4 cmd/built-in.o
 .data.cmd_opt_def
                0x000000004166fa84       0xf0 cmd/built-in.o
                0x000000004166fa84                cmd_opt_def
 .data.ethsw_cmd_def
                0x000000004166fb74     0x1188 cmd/built-in.o
 .data.keyword  0x0000000041670cfc       0xd0 cmd/built-in.o
                0x0000000041670cfc                keyword
 .data.arcgo_help_text
                0x0000000041670dcc       0x88 cmd/built-in.o
 .data.cmd_env_sub
                0x0000000041670e54       0xe0 cmd/built-in.o
 .data.env_help_text
                0x0000000041670f34      0x1f3 cmd/built-in.o
 *fill*         0x0000000041671127        0x1 
 .data.env_id   0x0000000041671128        0x4 cmd/built-in.o
 .data.hash_algo
                0x000000004167112c       0x1c common/built-in.o
 .data.init_sequence_r
                0x0000000041671148       0x70 common/built-in.o
 .data.of_busses
                0x00000000416711b8       0x18 common/built-in.o
 .data.usb_scan_list
                0x00000000416711d0        0x8 common/built-in.o
 .data.av_      0x00000000416711d8      0x408 common/built-in.o
 .data.sbrk_base
                0x00000000416715e0        0x4 common/built-in.o
 .data.trim_threshold
                0x00000000416715e4        0x4 common/built-in.o
 .data.load_addr
                0x00000000416715e8        0x4 common/built-in.o
                0x00000000416715e8                load_addr
 .data.stdio_names
                0x00000000416715ec        0xc common/built-in.o
                0x00000000416715ec                stdio_names
 .data.chn_base
                0x00000000416715f8        0x8 common/built-in.o
                0x00000000416715f8                chn_base
 .data.lcm_main_tab
                0x0000000041671600       0x1c common/built-in.o
                0x0000000041671600                lcm_main_tab
 .data.lcm_sub_tab
                0x000000004167161c       0x18 common/built-in.o
                0x000000004167161c                lcm_sub_tab
 .data.s_lcm_tab
                0x0000000041671634        0xc common/built-in.o
                0x0000000041671634                s_lcm_tab
 .data._s_lcm_mcu_st7796s_bus_timing
                0x0000000041671640       0x1c common/built-in.o
                0x0000000041671640                _s_lcm_mcu_st7796s_bus_timing
 .data._s_lcm_mcu_st7796s_clk
                0x000000004167165c       0x34 common/built-in.o
                0x000000004167165c                _s_lcm_mcu_st7796s_clk
 .data._s_lcm_mcu_st7796s_ctrl
                0x0000000041671690       0x1c common/built-in.o
                0x0000000041671690                _s_lcm_mcu_st7796s_ctrl
 .data._s_lcm_mcu_st7796s_dp_info
                0x00000000416716ac       0x20 common/built-in.o
 .data._s_lcm_mcu_st7796s_info
                0x00000000416716cc       0x30 common/built-in.o
 .data.s_lcm_mcu_st7796s_setting
                0x00000000416716fc      0x300 common/built-in.o
                0x00000000416716fc                s_lcm_mcu_st7796s_setting
 .data._s_lcm_mcu16_st7796s_bus_timing
                0x00000000416719fc       0x1c common/built-in.o
                0x00000000416719fc                _s_lcm_mcu16_st7796s_bus_timing
 .data._s_lcm_mcu16_st7796s_clk
                0x0000000041671a18       0x34 common/built-in.o
                0x0000000041671a18                _s_lcm_mcu16_st7796s_clk
 .data._s_lcm_mcu16_st7796s_ctrl
                0x0000000041671a4c       0x1c common/built-in.o
                0x0000000041671a4c                _s_lcm_mcu16_st7796s_ctrl
 .data._s_lcm_mcu16_st7796s_dp_info
                0x0000000041671a68       0x20 common/built-in.o
 .data._s_lcm_mcu16_st7796s_info
                0x0000000041671a88       0x30 common/built-in.o
 .data.s_lcm_mcu16_st7796s_setting
                0x0000000041671ab8      0x300 common/built-in.o
                0x0000000041671ab8                s_lcm_mcu16_st7796s_setting
 .data.s_lcm_rgb_at070tn94_clk
                0x0000000041671db8       0x34 common/built-in.o
 .data.s_lcm_rgb_at070tn94_ctrl
                0x0000000041671dec       0x1c common/built-in.o
                0x0000000041671dec                s_lcm_rgb_at070tn94_ctrl
 .data.s_lcm_rgb_at070tn94_dp_info
                0x0000000041671e08       0x20 common/built-in.o
 .data.s_lcm_rgb_at070tn94_info
                0x0000000041671e28      0x220 common/built-in.o
                0x0000000041671e28                s_lcm_rgb_at070tn94_info
 .data.s_lcm_rgb_at070tn94_rgb_info
                0x0000000041672048       0x28 common/built-in.o
 .data.s_lcm_rgb18_at070tn94_clk
                0x0000000041672070       0x34 common/built-in.o
 .data.s_lcm_rgb18_at070tn94_ctrl
                0x00000000416720a4       0x1c common/built-in.o
                0x00000000416720a4                s_lcm_rgb18_at070tn94_ctrl
 .data.s_lcm_rgb18_at070tn94_dp_info
                0x00000000416720c0       0x20 common/built-in.o
 .data.s_lcm_rgb18_at070tn94_info
                0x00000000416720e0      0x220 common/built-in.o
                0x00000000416720e0                s_lcm_rgb18_at070tn94_info
 .data.s_lcm_rgb18_at070tn94_rgb_info
                0x0000000041672300       0x28 common/built-in.o
 .data._s_lcm_mipi_ek79007_ctrl
                0x0000000041672328       0x1c common/built-in.o
                0x0000000041672328                _s_lcm_mipi_ek79007_ctrl
 .data._s_lcm_mipi_ek79007_dp_info
                0x0000000041672344       0x20 common/built-in.o
 .data._s_lcm_mipi_ek79007_mipi_info
                0x0000000041672364       0x14 common/built-in.o
 .data._s_lcm_mipi_ek79007_timing
                0x0000000041672378       0x8c common/built-in.o
 .data.lcm_sleep_out_setting
                0x0000000041672404      0x1b0 common/built-in.o
                0x0000000041672404                lcm_sleep_out_setting
 .data.s_lcm_mipi_ek79007_init_setting
                0x00000000416725b4      0x240 common/built-in.o
                0x00000000416725b4                s_lcm_mipi_ek79007_init_setting
 .data.s_lcm_mipi_st7701s_ctrl
                0x00000000416727f4       0x1c common/built-in.o
                0x00000000416727f4                s_lcm_mipi_st7701s_ctrl
 .data.s_lcm_mipi_st7701s_dp_info
                0x0000000041672810       0x20 common/built-in.o
 .data.s_lcm_mipi_st7701s_init_code
                0x0000000041672830      0xcf0 common/built-in.o
 .data.s_lcm_mipi_st7701s_mipi_info
                0x0000000041673520       0x14 common/built-in.o
 .data.s_lcm_mipi_st7701s_reset_code
                0x0000000041673534       0xd8 common/built-in.o
 .data.s_lcm_mipi_st7701s_timing
                0x000000004167360c       0x8c common/built-in.o
 .data.s_lcm_mipi_st7701s_work_code
                0x0000000041673698      0x120 common/built-in.o
 .data.s_lcm_pin_table
                0x00000000416737b8       0x20 common/built-in.o
                0x00000000416737b8                s_lcm_pin_table
 .data.s_mcu_18_pin_table
                0x00000000416737d8      0x180 common/built-in.o
                0x00000000416737d8                s_mcu_18_pin_table
 .data.s_mipi0_1c2d_pin_table
                0x0000000041673958       0x70 common/built-in.o
                0x0000000041673958                s_mipi0_1c2d_pin_table
 .data.s_mipi1_1c2d_pin_table
                0x00000000416739c8       0x70 common/built-in.o
                0x00000000416739c8                s_mipi1_1c2d_pin_table
 .data.s_mipi_1c4d_pin_table
                0x0000000041673a38       0xd0 common/built-in.o
                0x0000000041673a38                s_mipi_1c4d_pin_table
 .data.s_rgb_16_pin_table
                0x0000000041673b08      0x150 common/built-in.o
                0x0000000041673b08                s_rgb_16_pin_table
 .data.s_rgb_18_pin_table
                0x0000000041673c58      0x170 common/built-in.o
                0x0000000041673c58                s_rgb_18_pin_table
 .data.s_rgb_24_pin_table
                0x0000000041673dc8      0x1d0 common/built-in.o
                0x0000000041673dc8                s_rgb_24_pin_table
 .data.s_rgb_6_pin_table
                0x0000000041673f98       0xb0 common/built-in.o
                0x0000000041673f98                s_rgb_6_pin_table
 .data.s_lcm_mcu_reg
                0x0000000041674048      0xab0 common/built-in.o
                0x0000000041674048                s_lcm_mcu_reg
 .data.s_dsi_host_reg_default
                0x0000000041674af8      0x248 common/built-in.o
                0x0000000041674af8                s_dsi_host_reg_default
 .data.s_dsi_phy_reg_default
                0x0000000041674d40      0x420 common/built-in.o
                0x0000000041674d40                s_dsi_phy_reg_default
 .data.lcm_sfc_rw
                0x0000000041675160        0xc common/built-in.o
                0x0000000041675160                lcm_sfc_rw
 .data.s_lcm_status_note
                0x000000004167516c      0x198 common/built-in.o
                0x000000004167516c                s_lcm_status_note
 .data.s_lcm_work_mode_description
                0x0000000041675304      0x4c8 common/built-in.o
                0x0000000041675304                s_lcm_work_mode_description
 .data.des_iv   0x00000000416757cc        0x8 drivers/built-in.o
                0x00000000416757cc                des_iv
 .data.des_key  0x00000000416757d4        0x8 drivers/built-in.o
                0x00000000416757d4                des_key
 .data.iv       0x00000000416757dc       0x10 drivers/built-in.o
                0x00000000416757dc                iv
 .data.key_128  0x00000000416757ec       0x10 drivers/built-in.o
                0x00000000416757ec                key_128
 .data.key_192  0x00000000416757fc       0x18 drivers/built-in.o
                0x00000000416757fc                key_192
 .data.key_256  0x0000000041675814       0x20 drivers/built-in.o
                0x0000000041675814                key_256
 *fill*         0x0000000041675834        0xc 
 .data.src_text
                0x0000000041675840       0xc0 drivers/built-in.o
                0x0000000041675840                src_text
 .data.triple_des_iv
                0x0000000041675900        0x8 drivers/built-in.o
                0x0000000041675900                triple_des_iv
 .data.triple_des_key
                0x0000000041675908       0x18 drivers/built-in.o
                0x0000000041675908                triple_des_key
 .data.month_days
                0x0000000041675920       0x30 drivers/built-in.o
 .data.pin_func_arr
                0x0000000041675950       0x30 drivers/built-in.o
 .data.continue_read_wait
                0x0000000041675980        0x4 drivers/mtd/spi/built-in.o
 .data.spi_nor_ids
                0x0000000041675984      0x440 drivers/mtd/spi/built-in.o
                0x0000000041675984                spi_nor_ids
 .data.supported
                0x0000000041675dc4       0x38 drivers/net/built-in.o
 .data.prbs7    0x0000000041675dfc       0x14 drivers/net/built-in.o
 .data.scan_step
                0x0000000041675e10        0x4 drivers/net/built-in.o
 .data.scanrx_end_val
                0x0000000041675e14        0x4 drivers/net/built-in.o
 .data.scantx_end_val
                0x0000000041675e18        0x4 drivers/net/built-in.o
 .data.genphy_driver
                0x0000000041675e1c       0x38 drivers/net/phy/built-in.o
 .data.phy_drivers
                0x0000000041675e54        0x8 drivers/net/phy/built-in.o
 .data.RTL8201F_driver
                0x0000000041675e5c       0x38 drivers/net/phy/built-in.o
 .data.RTL8211B_driver
                0x0000000041675e94       0x38 drivers/net/phy/built-in.o
 .data.RTL8211DN_driver
                0x0000000041675ecc       0x38 drivers/net/phy/built-in.o
 .data.RTL8211E_driver
                0x0000000041675f04       0x38 drivers/net/phy/built-in.o
 .data.RTL8211F_driver
                0x0000000041675f3c       0x38 drivers/net/phy/built-in.o
 .data.MOL7c01_driver
                0x0000000041675f74       0x38 drivers/net/phy/built-in.o
 .data.ts01_serial_ops
                0x0000000041675fac       0x14 drivers/serial/built-in.o
 .data.descriptor
                0x0000000041675fc0       0x3f drivers/usb/host/built-in.o
 *fill*         0x0000000041675fff        0x1 
 .data.xhci_usb_ops
                0x0000000041676000       0x24 drivers/usb/host/built-in.o
                0x0000000041676000                xhci_usb_ops
 .data.mphy     0x0000000041676024       0x14 drivers/usb/phy/built-in.o
                0x0000000041676024                mphy
 .data.env_htab
                0x0000000041676038       0x10 env/built-in.o
                0x0000000041676038                env_htab
 .data.first_call
                0x0000000041676048        0x8 env/built-in.o
 .data.fstypes  0x0000000041676050       0x58 fs/built-in.o
 .data.state    0x00000000416760a8        0x4 net/built-in.o
 .data.timeout_ms
                0x00000000416760ac        0x8 net/built-in.o
 .data.first_call.0
                0x00000000416760b4        0x4 net/built-in.o
 .data.net_native_vlan
                0x00000000416760b8        0x2 net/built-in.o
                0x00000000416760b8                net_native_vlan
 .data.net_our_vlan
                0x00000000416760ba        0x2 net/built-in.o
                0x00000000416760ba                net_our_vlan
 .data.nfs_offset
                0x00000000416760bc        0x4 net/built-in.o
 .data.supported_nfs_versions
                0x00000000416760c0        0x1 net/built-in.o
 *fill*         0x00000000416760c1        0x1 
 .data.tftp_block_size
                0x00000000416760c2        0x2 net/built-in.o
 .data.tftp_block_size_option
                0x00000000416760c4        0x2 net/built-in.o
 *fill*         0x00000000416760c6        0x2 
 .data.tftp_timeout_count_max
                0x00000000416760c8        0x4 net/built-in.o
                0x00000000416760c8                tftp_timeout_count_max
 .data.timeout_count_max
                0x00000000416760cc        0x4 net/built-in.o
 .data.test_commands
                0x00000000416760d0       0x54 test/dm/built-in.o

.got            0x0000000041676124        0x0
 .got           0x0000000041676124        0x0 arch/arm/cpu/armv7/start.o

.got.plt        0x0000000041676124        0xc
 .got.plt       0x0000000041676124        0xc arch/arm/cpu/armv7/start.o
                0x0000000041676124                _GLOBAL_OFFSET_TABLE_

.igot.plt       0x0000000041676130        0x0
 .igot.plt      0x0000000041676130        0x0 arch/arm/cpu/armv7/start.o
                0x0000000041676130                . = ALIGN (0x4)
                0x0000000041676130                . = .
                0x0000000041676130                . = ALIGN (0x4)

.u_boot_list    0x0000000041676130     0x1158
 *(SORT_BY_NAME(.u_boot_list*))
 .u_boot_list_2_cmd_1
                0x0000000041676130        0x0 cmd/built-in.o
 .u_boot_list_2_cmd_1
                0x0000000041676130        0x0 common/built-in.o
 .u_boot_list_2_cmd_2_arcgo
                0x0000000041676130       0x1c cmd/built-in.o
                0x0000000041676130                _u_boot_list_2_cmd_2_arcgo
 .u_boot_list_2_cmd_2_base
                0x000000004167614c       0x1c cmd/built-in.o
                0x000000004167614c                _u_boot_list_2_cmd_2_base
 .u_boot_list_2_cmd_2_bdinfo
                0x0000000041676168       0x1c cmd/built-in.o
                0x0000000041676168                _u_boot_list_2_cmd_2_bdinfo
 .u_boot_list_2_cmd_2_bootelf
                0x0000000041676184       0x1c cmd/built-in.o
                0x0000000041676184                _u_boot_list_2_cmd_2_bootelf
 .u_boot_list_2_cmd_2_bootm
                0x00000000416761a0       0x1c cmd/built-in.o
                0x00000000416761a0                _u_boot_list_2_cmd_2_bootm
 .u_boot_list_2_cmd_2_bootp
                0x00000000416761bc       0x1c cmd/built-in.o
                0x00000000416761bc                _u_boot_list_2_cmd_2_bootp
 .u_boot_list_2_cmd_2_bootvx
                0x00000000416761d8       0x1c cmd/built-in.o
                0x00000000416761d8                _u_boot_list_2_cmd_2_bootvx
 .u_boot_list_2_cmd_2_bootx
                0x00000000416761f4       0x1c cmd/built-in.o
                0x00000000416761f4                _u_boot_list_2_cmd_2_bootx
 .u_boot_list_2_cmd_2_bootz
                0x0000000041676210       0x1c cmd/built-in.o
                0x0000000041676210                _u_boot_list_2_cmd_2_bootz
 .u_boot_list_2_cmd_2_cdp
                0x000000004167622c       0x1c cmd/built-in.o
                0x000000004167622c                _u_boot_list_2_cmd_2_cdp
 .u_boot_list_2_cmd_2_cmp
                0x0000000041676248       0x1c cmd/built-in.o
                0x0000000041676248                _u_boot_list_2_cmd_2_cmp
 .u_boot_list_2_cmd_2_cp
                0x0000000041676264       0x1c cmd/built-in.o
                0x0000000041676264                _u_boot_list_2_cmd_2_cp
 .u_boot_list_2_cmd_2_crc32
                0x0000000041676280       0x1c cmd/built-in.o
                0x0000000041676280                _u_boot_list_2_cmd_2_crc32
 .u_boot_list_2_cmd_2_date
                0x000000004167629c       0x1c cmd/built-in.o
                0x000000004167629c                _u_boot_list_2_cmd_2_date
 .u_boot_list_2_cmd_2_dcache
                0x00000000416762b8       0x1c cmd/built-in.o
                0x00000000416762b8                _u_boot_list_2_cmd_2_dcache
 .u_boot_list_2_cmd_2_ddr_info
                0x00000000416762d4       0x1c board/molchip/built-in.o
                0x00000000416762d4                _u_boot_list_2_cmd_2_ddr_info
 .u_boot_list_2_cmd_2_dhcp
                0x00000000416762f0       0x1c cmd/built-in.o
                0x00000000416762f0                _u_boot_list_2_cmd_2_dhcp
 .u_boot_list_2_cmd_2_dm
                0x000000004167630c       0x1c test/dm/built-in.o
                0x000000004167630c                _u_boot_list_2_cmd_2_dm
 .u_boot_list_2_cmd_2_dns
                0x0000000041676328       0x1c cmd/built-in.o
                0x0000000041676328                _u_boot_list_2_cmd_2_dns
 .u_boot_list_2_cmd_2_dump_efuse
                0x0000000041676344       0x1c drivers/built-in.o
                0x0000000041676344                _u_boot_list_2_cmd_2_dump_efuse
 .u_boot_list_2_cmd_2_echo
                0x0000000041676360       0x1c cmd/built-in.o
                0x0000000041676360                _u_boot_list_2_cmd_2_echo
 .u_boot_list_2_cmd_2_efuse_write
                0x000000004167637c       0x1c drivers/built-in.o
                0x000000004167637c                _u_boot_list_2_cmd_2_efuse_write
 .u_boot_list_2_cmd_2_env
                0x0000000041676398       0x1c cmd/built-in.o
                0x0000000041676398                _u_boot_list_2_cmd_2_env
 .u_boot_list_2_cmd_2_ethsw
                0x00000000416763b4       0x1c cmd/built-in.o
                0x00000000416763b4                _u_boot_list_2_cmd_2_ethsw
 .u_boot_list_2_cmd_2_fatinfo
                0x00000000416763d0       0x1c cmd/built-in.o
                0x00000000416763d0                _u_boot_list_2_cmd_2_fatinfo
 .u_boot_list_2_cmd_2_fatload
                0x00000000416763ec       0x1c cmd/built-in.o
                0x00000000416763ec                _u_boot_list_2_cmd_2_fatload
 .u_boot_list_2_cmd_2_fatls
                0x0000000041676408       0x1c cmd/built-in.o
                0x0000000041676408                _u_boot_list_2_cmd_2_fatls
 .u_boot_list_2_cmd_2_fatsize
                0x0000000041676424       0x1c cmd/built-in.o
                0x0000000041676424                _u_boot_list_2_cmd_2_fatsize
 .u_boot_list_2_cmd_2_fatwrite
                0x0000000041676440       0x1c cmd/built-in.o
                0x0000000041676440                _u_boot_list_2_cmd_2_fatwrite
 .u_boot_list_2_cmd_2_fdt
                0x000000004167645c       0x1c cmd/built-in.o
                0x000000004167645c                _u_boot_list_2_cmd_2_fdt
 .u_boot_list_2_cmd_2_gmac_dpll_scan
                0x0000000041676478       0x1c drivers/net/built-in.o
                0x0000000041676478                _u_boot_list_2_cmd_2_gmac_dpll_scan
 .u_boot_list_2_cmd_2_go
                0x0000000041676494       0x1c cmd/built-in.o
                0x0000000041676494                _u_boot_list_2_cmd_2_go
 .u_boot_list_2_cmd_2_gpio
                0x00000000416764b0       0x1c cmd/built-in.o
                0x00000000416764b0                _u_boot_list_2_cmd_2_gpio
 .u_boot_list_2_cmd_2_help
                0x00000000416764cc       0x1c cmd/built-in.o
                0x00000000416764cc                _u_boot_list_2_cmd_2_help
 .u_boot_list_2_cmd_2_icache
                0x00000000416764e8       0x1c cmd/built-in.o
                0x00000000416764e8                _u_boot_list_2_cmd_2_icache
 .u_boot_list_2_cmd_2_iminfo
                0x0000000041676504       0x1c cmd/built-in.o
                0x0000000041676504                _u_boot_list_2_cmd_2_iminfo
 .u_boot_list_2_cmd_2_linklocal
                0x0000000041676520       0x1c cmd/built-in.o
                0x0000000041676520                _u_boot_list_2_cmd_2_linklocal
 .u_boot_list_2_cmd_2_logo
                0x000000004167653c       0x1c common/built-in.o
                0x000000004167653c                _u_boot_list_2_cmd_2_logo
 .u_boot_list_2_cmd_2_loop
                0x0000000041676558       0x1c cmd/built-in.o
                0x0000000041676558                _u_boot_list_2_cmd_2_loop
 .u_boot_list_2_cmd_2_md
                0x0000000041676574       0x1c cmd/built-in.o
                0x0000000041676574                _u_boot_list_2_cmd_2_md
 .u_boot_list_2_cmd_2_mdio
                0x0000000041676590       0x1c cmd/built-in.o
                0x0000000041676590                _u_boot_list_2_cmd_2_mdio
 .u_boot_list_2_cmd_2_mii
                0x00000000416765ac       0x1c cmd/built-in.o
                0x00000000416765ac                _u_boot_list_2_cmd_2_mii
 .u_boot_list_2_cmd_2_mm
                0x00000000416765c8       0x1c cmd/built-in.o
                0x00000000416765c8                _u_boot_list_2_cmd_2_mm
 .u_boot_list_2_cmd_2_mmc
                0x00000000416765e4       0x1c cmd/built-in.o
                0x00000000416765e4                _u_boot_list_2_cmd_2_mmc
 .u_boot_list_2_cmd_2_mmcinfo
                0x0000000041676600       0x1c cmd/built-in.o
                0x0000000041676600                _u_boot_list_2_cmd_2_mmcinfo
 .u_boot_list_2_cmd_2_mw
                0x000000004167661c       0x1c cmd/built-in.o
                0x000000004167661c                _u_boot_list_2_cmd_2_mw
 .u_boot_list_2_cmd_2_nfs
                0x0000000041676638       0x1c cmd/built-in.o
                0x0000000041676638                _u_boot_list_2_cmd_2_nfs
 .u_boot_list_2_cmd_2_nm
                0x0000000041676654       0x1c cmd/built-in.o
                0x0000000041676654                _u_boot_list_2_cmd_2_nm
 .u_boot_list_2_cmd_2_ping
                0x0000000041676670       0x1c cmd/built-in.o
                0x0000000041676670                _u_boot_list_2_cmd_2_ping
 .u_boot_list_2_cmd_2_printenv
                0x000000004167668c       0x1c cmd/built-in.o
                0x000000004167668c                _u_boot_list_2_cmd_2_printenv
 .u_boot_list_2_cmd_2_pxe
                0x00000000416766a8       0x1c cmd/built-in.o
                0x00000000416766a8                _u_boot_list_2_cmd_2_pxe
 .u_boot_list_2_cmd_2_question_mark
                0x00000000416766c4       0x1c cmd/built-in.o
                0x00000000416766c4                _u_boot_list_2_cmd_2_question_mark
 .u_boot_list_2_cmd_2_rarpboot
                0x00000000416766e0       0x1c cmd/built-in.o
                0x00000000416766e0                _u_boot_list_2_cmd_2_rarpboot
 .u_boot_list_2_cmd_2_reboot
                0x00000000416766fc       0x1c board/molchip/built-in.o
                0x00000000416766fc                _u_boot_list_2_cmd_2_reboot
 .u_boot_list_2_cmd_2_reset
                0x0000000041676718       0x1c cmd/built-in.o
                0x0000000041676718                _u_boot_list_2_cmd_2_reset
 .u_boot_list_2_cmd_2_run
                0x0000000041676734       0x1c cmd/built-in.o
                0x0000000041676734                _u_boot_list_2_cmd_2_run
 .u_boot_list_2_cmd_2_saveenv
                0x0000000041676750       0x1c cmd/built-in.o
                0x0000000041676750                _u_boot_list_2_cmd_2_saveenv
 .u_boot_list_2_cmd_2_setenv
                0x000000004167676c       0x1c cmd/built-in.o
                0x000000004167676c                _u_boot_list_2_cmd_2_setenv
 .u_boot_list_2_cmd_2_sf
                0x0000000041676788       0x1c cmd/built-in.o
                0x0000000041676788                _u_boot_list_2_cmd_2_sf
 .u_boot_list_2_cmd_2_sfrd
                0x00000000416767a4       0x1c drivers/mtd/spi/built-in.o
                0x00000000416767a4                _u_boot_list_2_cmd_2_sfrd
 .u_boot_list_2_cmd_2_sfrm
                0x00000000416767c0       0x1c drivers/mtd/spi/built-in.o
                0x00000000416767c0                _u_boot_list_2_cmd_2_sfrm
 .u_boot_list_2_cmd_2_sntp
                0x00000000416767dc       0x1c cmd/built-in.o
                0x00000000416767dc                _u_boot_list_2_cmd_2_sntp
 .u_boot_list_2_cmd_2_source
                0x00000000416767f8       0x1c cmd/built-in.o
                0x00000000416767f8                _u_boot_list_2_cmd_2_source
 .u_boot_list_2_cmd_2_sysboot
                0x0000000041676814       0x1c cmd/built-in.o
                0x0000000041676814                _u_boot_list_2_cmd_2_sysboot
 .u_boot_list_2_cmd_2_test_aes
                0x0000000041676830       0x1c drivers/built-in.o
                0x0000000041676830                _u_boot_list_2_cmd_2_test_aes
 .u_boot_list_2_cmd_2_test_pwm
                0x000000004167684c       0x1c drivers/built-in.o
                0x000000004167684c                _u_boot_list_2_cmd_2_test_pwm
 .u_boot_list_2_cmd_2_tftpboot
                0x0000000041676868       0x1c cmd/built-in.o
                0x0000000041676868                _u_boot_list_2_cmd_2_tftpboot
 .u_boot_list_2_cmd_2_tftpput
                0x0000000041676884       0x1c cmd/built-in.o
                0x0000000041676884                _u_boot_list_2_cmd_2_tftpput
 .u_boot_list_2_cmd_2_tftpsrv
                0x00000000416768a0       0x1c cmd/built-in.o
                0x00000000416768a0                _u_boot_list_2_cmd_2_tftpsrv
 .u_boot_list_2_cmd_2_usb
                0x00000000416768bc       0x1c cmd/built-in.o
                0x00000000416768bc                _u_boot_list_2_cmd_2_usb
 .u_boot_list_2_cmd_2_usbboot
                0x00000000416768d8       0x1c cmd/built-in.o
                0x00000000416768d8                _u_boot_list_2_cmd_2_usbboot
 .u_boot_list_2_cmd_2_version
                0x00000000416768f4       0x1c cmd/built-in.o
                0x00000000416768f4                _u_boot_list_2_cmd_2_version
 .u_boot_list_2_cmd_3
                0x0000000041676910        0x0 cmd/built-in.o
 .u_boot_list_2_cmd_3
                0x0000000041676910        0x0 common/built-in.o
 .u_boot_list_2_driver_1
                0x0000000041676910        0x0 drivers/built-in.o
 .u_boot_list_2_driver_2_asix_eth
                0x0000000041676910       0x44 drivers/usb/eth/built-in.o
                0x0000000041676910                _u_boot_list_2_driver_2_asix_eth
 .u_boot_list_2_driver_2_eth_designware
                0x0000000041676954       0x44 drivers/net/built-in.o
                0x0000000041676954                _u_boot_list_2_driver_2_eth_designware
 .u_boot_list_2_driver_2_eth_molchip_eqos
                0x0000000041676998       0x44 drivers/net/built-in.o
                0x0000000041676998                _u_boot_list_2_driver_2_eth_molchip_eqos
 .u_boot_list_2_driver_2_mc_aes
                0x00000000416769dc       0x44 drivers/built-in.o
                0x00000000416769dc                _u_boot_list_2_driver_2_mc_aes
 .u_boot_list_2_driver_2_mc_efuse
                0x0000000041676a20       0x44 drivers/built-in.o
                0x0000000041676a20                _u_boot_list_2_driver_2_mc_efuse
 .u_boot_list_2_driver_2_mc_sdmmc_dev
                0x0000000041676a64       0x44 drivers/built-in.o
                0x0000000041676a64                _u_boot_list_2_driver_2_mc_sdmmc_dev
 .u_boot_list_2_driver_2_mmc
                0x0000000041676aa8       0x44 drivers/built-in.o
                0x0000000041676aa8                _u_boot_list_2_driver_2_mmc
 .u_boot_list_2_driver_2_mmc_blk
                0x0000000041676aec       0x44 drivers/built-in.o
                0x0000000041676aec                _u_boot_list_2_driver_2_mmc_blk
 .u_boot_list_2_driver_2_molchip_pwm
                0x0000000041676b30       0x44 drivers/built-in.o
                0x0000000041676b30                _u_boot_list_2_driver_2_molchip_pwm
 .u_boot_list_2_driver_2_root_driver
                0x0000000041676b74       0x44 drivers/built-in.o
                0x0000000041676b74                _u_boot_list_2_driver_2_root_driver
 .u_boot_list_2_driver_2_rtc_molchip
                0x0000000041676bb8       0x44 drivers/built-in.o
                0x0000000041676bb8                _u_boot_list_2_driver_2_rtc_molchip
 .u_boot_list_2_driver_2_serial_ts01
                0x0000000041676bfc       0x44 drivers/serial/built-in.o
                0x0000000041676bfc                _u_boot_list_2_driver_2_serial_ts01
 .u_boot_list_2_driver_2_simple_bus_drv
                0x0000000041676c40       0x44 drivers/built-in.o
                0x0000000041676c40                _u_boot_list_2_driver_2_simple_bus_drv
 .u_boot_list_2_driver_2_usb_dev_generic_drv
                0x0000000041676c84       0x44 drivers/usb/host/built-in.o
                0x0000000041676c84                _u_boot_list_2_driver_2_usb_dev_generic_drv
 .u_boot_list_2_driver_2_usb_generic_hub
                0x0000000041676cc8       0x44 common/built-in.o
                0x0000000041676cc8                _u_boot_list_2_driver_2_usb_generic_hub
 .u_boot_list_2_driver_2_usb_mass_storage
                0x0000000041676d0c       0x44 common/built-in.o
                0x0000000041676d0c                _u_boot_list_2_driver_2_usb_mass_storage
 .u_boot_list_2_driver_2_usb_storage_blk
                0x0000000041676d50       0x44 common/built-in.o
                0x0000000041676d50                _u_boot_list_2_driver_2_usb_storage_blk
 .u_boot_list_2_driver_2_xhci_dwc3
                0x0000000041676d94       0x44 drivers/usb/host/built-in.o
                0x0000000041676d94                _u_boot_list_2_driver_2_xhci_dwc3
 .u_boot_list_2_driver_3
                0x0000000041676dd8        0x0 drivers/built-in.o
 .u_boot_list_2_driver_info_1
                0x0000000041676dd8        0x0 drivers/built-in.o
 .u_boot_list_2_driver_info_3
                0x0000000041676dd8        0x0 drivers/built-in.o
 .u_boot_list_2_env_clbk_1
                0x0000000041676dd8        0x0 env/built-in.o
 .u_boot_list_2_env_clbk_2_baudrate
                0x0000000041676dd8        0x8 drivers/serial/built-in.o
                0x0000000041676dd8                _u_boot_list_2_env_clbk_2_baudrate
 .u_boot_list_2_env_clbk_2_bootfile
                0x0000000041676de0        0x8 net/built-in.o
                0x0000000041676de0                _u_boot_list_2_env_clbk_2_bootfile
 .u_boot_list_2_env_clbk_2_callbacks
                0x0000000041676de8        0x8 env/built-in.o
                0x0000000041676de8                _u_boot_list_2_env_clbk_2_callbacks
 .u_boot_list_2_env_clbk_2_console
                0x0000000041676df0        0x8 common/built-in.o
                0x0000000041676df0                _u_boot_list_2_env_clbk_2_console
 .u_boot_list_2_env_clbk_2_dnsip
                0x0000000041676df8        0x8 net/built-in.o
                0x0000000041676df8                _u_boot_list_2_env_clbk_2_dnsip
 .u_boot_list_2_env_clbk_2_ethaddr
                0x0000000041676e00        0x8 net/built-in.o
                0x0000000041676e00                _u_boot_list_2_env_clbk_2_ethaddr
 .u_boot_list_2_env_clbk_2_flags
                0x0000000041676e08        0x8 env/built-in.o
                0x0000000041676e08                _u_boot_list_2_env_clbk_2_flags
 .u_boot_list_2_env_clbk_2_gatewayip
                0x0000000041676e10        0x8 net/built-in.o
                0x0000000041676e10                _u_boot_list_2_env_clbk_2_gatewayip
 .u_boot_list_2_env_clbk_2_ipaddr
                0x0000000041676e18        0x8 net/built-in.o
                0x0000000041676e18                _u_boot_list_2_env_clbk_2_ipaddr
 .u_boot_list_2_env_clbk_2_loadaddr
                0x0000000041676e20        0x8 common/built-in.o
                0x0000000041676e20                _u_boot_list_2_env_clbk_2_loadaddr
 .u_boot_list_2_env_clbk_2_netmask
                0x0000000041676e28        0x8 net/built-in.o
                0x0000000041676e28                _u_boot_list_2_env_clbk_2_netmask
 .u_boot_list_2_env_clbk_2_nvlan
                0x0000000041676e30        0x8 net/built-in.o
                0x0000000041676e30                _u_boot_list_2_env_clbk_2_nvlan
 .u_boot_list_2_env_clbk_2_serverip
                0x0000000041676e38        0x8 net/built-in.o
                0x0000000041676e38                _u_boot_list_2_env_clbk_2_serverip
 .u_boot_list_2_env_clbk_2_vlan
                0x0000000041676e40        0x8 net/built-in.o
                0x0000000041676e40                _u_boot_list_2_env_clbk_2_vlan
 .u_boot_list_2_env_clbk_3
                0x0000000041676e48        0x0 env/built-in.o
 .u_boot_list_2_env_driver_1
                0x0000000041676e48        0x0 env/built-in.o
 .u_boot_list_2_env_driver_2_sf
                0x0000000041676e48       0x18 env/built-in.o
                0x0000000041676e48                _u_boot_list_2_env_driver_2_sf
 .u_boot_list_2_env_driver_3
                0x0000000041676e60        0x0 env/built-in.o
 .u_boot_list_2_part_driver_1
                0x0000000041676e60        0x0 disk/built-in.o
 .u_boot_list_2_part_driver_2_dos
                0x0000000041676e60       0x18 disk/built-in.o
                0x0000000041676e60                _u_boot_list_2_part_driver_2_dos
 .u_boot_list_2_part_driver_3
                0x0000000041676e78        0x0 disk/built-in.o
 .u_boot_list_2_pci_driver_entry_2_eth_designware
                0x0000000041676e78        0x8 drivers/net/built-in.o
                0x0000000041676e78                _u_boot_list_2_pci_driver_entry_2_eth_designware
 .u_boot_list_2_uclass_1
                0x0000000041676e80        0x0 drivers/built-in.o
 .u_boot_list_2_uclass_2_blk
                0x0000000041676e80       0x48 drivers/built-in.o
                0x0000000041676e80                _u_boot_list_2_uclass_2_blk
 .u_boot_list_2_uclass_2_eth
                0x0000000041676ec8       0x48 net/built-in.o
                0x0000000041676ec8                _u_boot_list_2_uclass_2_eth
 .u_boot_list_2_uclass_2_misc
                0x0000000041676f10       0x48 drivers/built-in.o
                0x0000000041676f10                _u_boot_list_2_uclass_2_misc
 .u_boot_list_2_uclass_2_mmc
                0x0000000041676f58       0x48 drivers/built-in.o
                0x0000000041676f58                _u_boot_list_2_uclass_2_mmc
 .u_boot_list_2_uclass_2_mtd
                0x0000000041676fa0       0x48 drivers/mtd/built-in.o
                0x0000000041676fa0                _u_boot_list_2_uclass_2_mtd
 .u_boot_list_2_uclass_2_pwm
                0x0000000041676fe8       0x48 drivers/built-in.o
                0x0000000041676fe8                _u_boot_list_2_uclass_2_pwm
 .u_boot_list_2_uclass_2_root
                0x0000000041677030       0x48 drivers/built-in.o
                0x0000000041677030                _u_boot_list_2_uclass_2_root
 .u_boot_list_2_uclass_2_rtc
                0x0000000041677078       0x48 drivers/built-in.o
                0x0000000041677078                _u_boot_list_2_uclass_2_rtc
 .u_boot_list_2_uclass_2_serial
                0x00000000416770c0       0x48 drivers/serial/built-in.o
                0x00000000416770c0                _u_boot_list_2_uclass_2_serial
 .u_boot_list_2_uclass_2_simple_bus
                0x0000000041677108       0x48 drivers/built-in.o
                0x0000000041677108                _u_boot_list_2_uclass_2_simple_bus
 .u_boot_list_2_uclass_2_usb
                0x0000000041677150       0x48 drivers/usb/host/built-in.o
                0x0000000041677150                _u_boot_list_2_uclass_2_usb
 .u_boot_list_2_uclass_2_usb_dev_generic
                0x0000000041677198       0x48 drivers/usb/host/built-in.o
                0x0000000041677198                _u_boot_list_2_uclass_2_usb_dev_generic
 .u_boot_list_2_uclass_2_usb_hub
                0x00000000416771e0       0x48 common/built-in.o
                0x00000000416771e0                _u_boot_list_2_uclass_2_usb_hub
 .u_boot_list_2_uclass_2_usb_mass_storage
                0x0000000041677228       0x48 common/built-in.o
                0x0000000041677228                _u_boot_list_2_uclass_2_usb_mass_storage
 .u_boot_list_2_uclass_3
                0x0000000041677270        0x0 drivers/built-in.o
 .u_boot_list_2_usb_driver_entry_1
                0x0000000041677270        0x0 drivers/usb/host/built-in.o
 .u_boot_list_2_usb_driver_entry_2_asix_eth
                0x0000000041677270        0x8 drivers/usb/eth/built-in.o
                0x0000000041677270                _u_boot_list_2_usb_driver_entry_2_asix_eth
 .u_boot_list_2_usb_driver_entry_2_usb_generic_hub
                0x0000000041677278        0x8 common/built-in.o
                0x0000000041677278                _u_boot_list_2_usb_driver_entry_2_usb_generic_hub
 .u_boot_list_2_usb_driver_entry_2_usb_mass_storage
                0x0000000041677280        0x8 common/built-in.o
                0x0000000041677280                _u_boot_list_2_usb_driver_entry_2_usb_mass_storage
 .u_boot_list_2_usb_driver_entry_3
                0x0000000041677288        0x0 drivers/usb/host/built-in.o
                0x0000000041677288                . = ALIGN (0x4)

.__efi_runtime_start
 *(.__efi_runtime_start)

.efi_runtime
 *(efi_runtime_text)
 *(efi_runtime_data)

.__efi_runtime_stop
 *(.__efi_runtime_stop)

.efi_runtime_rel_start
 *(.__efi_runtime_rel_start)

.efi_runtime_rel
 *(.relefi_runtime_text)
 *(.relefi_runtime_data)

.efi_runtime_rel_stop
 *(.__efi_runtime_rel_stop)
                0x0000000041677288                . = ALIGN (0x4)

.image_copy_end
                0x0000000041677288        0x0
 *(.__image_copy_end)
 .__image_copy_end
                0x0000000041677288        0x0 arch/arm/lib/built-in.o

.rel_dyn_start  0x0000000041677288        0x0
 *(.__rel_dyn_start)
 .__rel_dyn_start
                0x0000000041677288        0x0 arch/arm/lib/built-in.o

.rel.dyn        0x0000000041677288     0xb238
 *(.rel*)
 .rel.got       0x0000000041677288        0x0 arch/arm/cpu/armv7/start.o
 .rel.plt       0x0000000041677288        0x0 arch/arm/cpu/armv7/start.o
 .rel.bss       0x0000000041677288        0x0 arch/arm/cpu/armv7/start.o
 .rel.data.rel.ro
                0x0000000041677288        0x0 arch/arm/cpu/armv7/start.o
 .rel.iplt      0x0000000041677288        0x0 arch/arm/cpu/armv7/start.o
 .rel.text      0x0000000041677288       0x20 arch/arm/cpu/armv7/start.o
 .rel.vectors   0x00000000416772a8       0x38 arch/arm/cpu/armv7/start.o
 .rel.text.relocate_vectors
                0x00000000416772e0       0x20 arch/arm/cpu/armv7/start.o
 .rel.text.boot_prep_linux
                0x0000000041677300       0x18 arch/arm/cpu/armv7/start.o
 .rel.text.boot_jump_linux
                0x0000000041677318       0x10 arch/arm/cpu/armv7/start.o
 .rel.text.boot_prep_vxworks
                0x0000000041677328       0x10 arch/arm/cpu/armv7/start.o
 .rel.text.bootz_setup
                0x0000000041677338        0x8 arch/arm/cpu/armv7/start.o
 .rel.text.interrupt_init
                0x0000000041677340        0x8 arch/arm/cpu/armv7/start.o
 .rel.text.bad_mode
                0x0000000041677348        0x8 arch/arm/cpu/armv7/start.o
 .rel.text.show_regs
                0x0000000041677350       0x98 arch/arm/cpu/armv7/start.o
 .rel.text.do_undefined_instruction
                0x00000000416773e8        0x8 arch/arm/cpu/armv7/start.o
 .rel.text.do_software_interrupt
                0x00000000416773f0        0x8 arch/arm/cpu/armv7/start.o
 .rel.text.do_prefetch_abort
                0x00000000416773f8        0x8 arch/arm/cpu/armv7/start.o
 .rel.text.do_data_abort
                0x0000000041677400        0x8 arch/arm/cpu/armv7/start.o
 .rel.text.do_not_used
                0x0000000041677408        0x8 arch/arm/cpu/armv7/start.o
 .rel.text.do_fiq
                0x0000000041677410        0x8 arch/arm/cpu/armv7/start.o
 .rel.text.do_irq
                0x0000000041677418        0x8 arch/arm/cpu/armv7/start.o
 .rel.text.do_reset
                0x0000000041677420        0x8 arch/arm/cpu/armv7/start.o
 .rel.text.check_cache_range
                0x0000000041677428        0x8 arch/arm/cpu/armv7/start.o
 .rel.text.noncached_init
                0x0000000041677430       0x18 arch/arm/cpu/armv7/start.o
 .rel.text.noncached_alloc
                0x0000000041677448       0x10 arch/arm/cpu/armv7/start.o
 .rel.rodata    0x0000000041677458      0x100 arch/arm/cpu/armv7/start.o
 .rel.text.init_iram_reboot
                0x0000000041677558       0x18 arch/arm/cpu/armv7/start.o
 .rel.text.do_print_ddr_cali_info
                0x0000000041677570       0xd8 arch/arm/cpu/armv7/start.o
 .rel.text.uart_put_int
                0x0000000041677648        0x8 arch/arm/cpu/armv7/start.o
 .rel.text.mc_printf
                0x0000000041677650        0x8 arch/arm/cpu/armv7/start.o
 .rel.text.spi_nand_send_cmd
                0x0000000041677658       0xa0 arch/arm/cpu/armv7/start.o
 .rel.text.spi_nand_scan_id_table
                0x00000000416776f8       0x20 arch/arm/cpu/armv7/start.o
 .rel.text.get_ecc_sts_with_check_ecc_chunk
                0x0000000041677718       0x20 arch/arm/cpu/armv7/start.o
 .rel.text.spi_nand_read_from_cache.constprop.0
                0x0000000041677738       0x10 arch/arm/cpu/armv7/start.o
 .rel.text.spi_nand_do_read_page.constprop.0
                0x0000000041677748       0x10 arch/arm/cpu/armv7/start.o
 .rel.text.spi_nand_scan
                0x0000000041677758       0x10 arch/arm/cpu/armv7/start.o
 .rel.text.spi_nand_read
                0x0000000041677768       0x10 arch/arm/cpu/armv7/start.o
 .rel.text.spi_nand_program
                0x0000000041677778       0x20 arch/arm/cpu/armv7/start.o
 .rel.text.spi_nand_erase
                0x0000000041677798        0x8 arch/arm/cpu/armv7/start.o
 .rel.text.mc_get_cpu_clk
                0x00000000416777a0        0x8 arch/arm/cpu/armv7/start.o
 .rel.u_boot_list_2_cmd_2_reboot
                0x00000000416777a8       0x20 arch/arm/cpu/armv7/start.o
 .rel.u_boot_list_2_cmd_2_ddr_info
                0x00000000416777c8       0x20 arch/arm/cpu/armv7/start.o
 .rel.data.spi_nand_table
                0x00000000416777e8       0x98 arch/arm/cpu/armv7/start.o
 .rel.text.do_go
                0x0000000041677880       0x10 arch/arm/cpu/armv7/start.o
 .rel.text.do_bootm
                0x0000000041677890       0x30 arch/arm/cpu/armv7/start.o
 .rel.text.image_info
                0x00000000416778c0       0x40 arch/arm/cpu/armv7/start.o
 .rel.text.do_iminfo
                0x0000000041677900        0x8 arch/arm/cpu/armv7/start.o
 .rel.text.bootm_maybe_autostart
                0x0000000041677908       0x20 arch/arm/cpu/armv7/start.o
 .rel.text.do_help
                0x0000000041677928       0x10 arch/arm/cpu/armv7/start.o
 .rel.text.do_version
                0x0000000041677938       0x10 arch/arm/cpu/armv7/start.o
 .rel.text.blk_common_cmd
                0x0000000041677948       0x70 arch/arm/cpu/armv7/start.o
 .rel.text.source
                0x00000000416779b8       0x38 arch/arm/cpu/armv7/start.o
 .rel.text.do_source
                0x00000000416779f0        0x8 arch/arm/cpu/armv7/start.o
 .rel.text.print_num
                0x00000000416779f8        0x8 arch/arm/cpu/armv7/start.o
 .rel.text.do_bdinfo
                0x0000000041677a00       0x68 arch/arm/cpu/armv7/start.o
 .rel.text.do_bootz
                0x0000000041677a68       0x20 arch/arm/cpu/armv7/start.o
 .rel.text.do_bootx
                0x0000000041677a88       0x28 arch/arm/cpu/armv7/start.o
 .rel.text.parse_argv
                0x0000000041677ab0       0x18 arch/arm/cpu/armv7/start.o
 .rel.text.do_icache
                0x0000000041677ac8       0x18 arch/arm/cpu/armv7/start.o
 .rel.text.do_dcache
                0x0000000041677ae0       0x18 arch/arm/cpu/armv7/start.o
 .rel.text.do_date
                0x0000000041677af8       0x58 arch/arm/cpu/armv7/start.o
 .rel.text.do_echo
                0x0000000041677b50        0x8 arch/arm/cpu/armv7/start.o
 .rel.text.valid_elf_image
                0x0000000041677b58       0x10 arch/arm/cpu/armv7/start.o
 .rel.text.do_bootelf
                0x0000000041677b68       0x28 arch/arm/cpu/armv7/start.o
 .rel.text.do_bootvx
                0x0000000041677b90       0xe0 arch/arm/cpu/armv7/start.o
 .rel.text.do_fat_fsinfo
                0x0000000041677c70       0x10 arch/arm/cpu/armv7/start.o
 .rel.text.do_fat_fswrite
                0x0000000041677c80       0x18 arch/arm/cpu/armv7/start.o
 .rel.text.fdt_valid
                0x0000000041677c98       0x28 arch/arm/cpu/armv7/start.o
 .rel.text.is_printable_string
                0x0000000041677cc0        0x8 arch/arm/cpu/armv7/start.o
 .rel.text.print_data.part.0
                0x0000000041677cc8       0x58 arch/arm/cpu/armv7/start.o
 .rel.text.set_working_fdt_addr
                0x0000000041677d20       0x10 arch/arm/cpu/armv7/start.o
 .rel.text.do_fdt
                0x0000000041677d30      0x258 arch/arm/cpu/armv7/start.o
 .rel.text.do_gpio_test
                0x0000000041677f88       0x48 arch/arm/cpu/armv7/start.o
 .rel.text.do_mem_md
                0x0000000041677fd0       0x20 arch/arm/cpu/armv7/start.o
 .rel.text.do_mem_base
                0x0000000041677ff0       0x10 arch/arm/cpu/armv7/start.o
 .rel.text.do_mem_crc
                0x0000000041678000       0x10 arch/arm/cpu/armv7/start.o
 .rel.text.do_mem_mw
                0x0000000041678010        0x8 arch/arm/cpu/armv7/start.o
 .rel.text.do_mem_cmp
                0x0000000041678018       0x38 arch/arm/cpu/armv7/start.o
 .rel.text.mod_mem.part.0
                0x0000000041678050       0x48 arch/arm/cpu/armv7/start.o
 .rel.text.do_mem_cp
                0x0000000041678098       0x10 arch/arm/cpu/armv7/start.o
 .rel.text.do_mii
                0x00000000416780a8      0x160 arch/arm/cpu/armv7/start.o
 .rel.text.do_mdio
                0x0000000041678208       0x70 arch/arm/cpu/armv7/start.o
 .rel.text.do_mmcops
                0x0000000041678278       0x18 arch/arm/cpu/armv7/start.o
 .rel.text.do_mmc_setdsr
                0x0000000041678290       0x28 arch/arm/cpu/armv7/start.o
 .rel.text.init_mmc_device
                0x00000000416782b8        0x8 arch/arm/cpu/armv7/start.o
 .rel.text.do_mmc_rescan
                0x00000000416782c0        0x8 arch/arm/cpu/armv7/start.o
 .rel.text.do_mmc_hwpartition
                0x00000000416782c8       0xb0 arch/arm/cpu/armv7/start.o
 .rel.text.do_mmc_dev
                0x0000000041678378       0x38 arch/arm/cpu/armv7/start.o
 .rel.text.do_mmcinfo
                0x00000000416783b0       0xf8 arch/arm/cpu/armv7/start.o
 .rel.text.do_mmc_part
                0x00000000416784a8       0x10 arch/arm/cpu/armv7/start.o
 .rel.text.do_mmc_erase
                0x00000000416784b8       0x30 arch/arm/cpu/armv7/start.o
 .rel.text.do_mmc_write
                0x00000000416784e8       0x30 arch/arm/cpu/armv7/start.o
 .rel.text.do_mmc_read
                0x0000000041678518       0x28 arch/arm/cpu/armv7/start.o
 .rel.text.netboot_common
                0x0000000041678540       0xd0 arch/arm/cpu/armv7/start.o
 .rel.text.do_cdp
                0x0000000041678610       0x48 arch/arm/cpu/armv7/start.o
 .rel.text.do_sntp
                0x0000000041678658       0x38 arch/arm/cpu/armv7/start.o
 .rel.text.do_dns
                0x0000000041678690       0x20 arch/arm/cpu/armv7/start.o
 .rel.text.do_link_local
                0x00000000416786b0       0x38 arch/arm/cpu/armv7/start.o
 .rel.text.do_ping
                0x00000000416786e8       0x18 arch/arm/cpu/armv7/start.o
 .rel.text.do_pxe
                0x0000000041678700       0x10 arch/arm/cpu/armv7/start.o
 .rel.text.label_print
                0x0000000041678710        0x8 arch/arm/cpu/armv7/start.o
 .rel.text.do_get_tftp
                0x0000000041678718        0x8 arch/arm/cpu/armv7/start.o
 .rel.text.from_env
                0x0000000041678720        0x8 arch/arm/cpu/armv7/start.o
 .rel.text.do_get_fat
                0x0000000041678728       0x10 arch/arm/cpu/armv7/start.o
 .rel.text.format_mac_pxe.constprop.0
                0x0000000041678738       0x10 arch/arm/cpu/armv7/start.o
 .rel.text.get_relfile
                0x0000000041678748       0x38 arch/arm/cpu/armv7/start.o
 .rel.text.get_pxe_file
                0x0000000041678780        0x8 arch/arm/cpu/armv7/start.o
 .rel.text.get_pxelinux_path
                0x0000000041678788       0x18 arch/arm/cpu/armv7/start.o
 .rel.text.do_pxe_get
                0x00000000416787a0       0x48 arch/arm/cpu/armv7/start.o
 .rel.text.get_string.isra.0
                0x00000000416787e8        0x8 arch/arm/cpu/armv7/start.o
 .rel.text.get_token
                0x00000000416787f0        0x8 arch/arm/cpu/armv7/start.o
 .rel.text.parse_sliteral
                0x00000000416787f8        0x8 arch/arm/cpu/armv7/start.o
 .rel.text.parse_integer
                0x0000000041678800        0x8 arch/arm/cpu/armv7/start.o
 .rel.text.parse_pxefile_top
                0x0000000041678808      0x150 arch/arm/cpu/armv7/start.o
 .rel.text.handle_include
                0x0000000041678958       0x10 arch/arm/cpu/armv7/start.o
 .rel.text.label_boot
                0x0000000041678968       0xf8 arch/arm/cpu/armv7/start.o
 .rel.text.handle_pxe_menu
                0x0000000041678a60       0x18 arch/arm/cpu/armv7/start.o
 .rel.text.do_pxe_boot
                0x0000000041678a78       0x38 arch/arm/cpu/armv7/start.o
 .rel.text.do_sysboot
                0x0000000041678ab0       0x80 arch/arm/cpu/armv7/start.o
 .rel.text.do_spi_flash
                0x0000000041678b30       0xc0 arch/arm/cpu/armv7/start.o
 .rel.text.usb_get_class_desc
                0x0000000041678bf0       0xa8 arch/arm/cpu/armv7/start.o
 .rel.text.usb_display_class_sub
                0x0000000041678c98       0xc8 arch/arm/cpu/armv7/start.o
 .rel.text.usb_display_desc
                0x0000000041678d60       0x38 arch/arm/cpu/armv7/start.o
 .rel.text.usb_show_tree_graph
                0x0000000041678d98       0x48 arch/arm/cpu/armv7/start.o
 .rel.text.usb_display_string
                0x0000000041678de0        0x8 arch/arm/cpu/armv7/start.o
 .rel.text.usb_display_config
                0x0000000041678de8       0xa8 arch/arm/cpu/armv7/start.o
 .rel.text.do_usbboot
                0x0000000041678e90        0x8 arch/arm/cpu/armv7/start.o
 .rel.text.do_usb_start
                0x0000000041678e98        0x8 arch/arm/cpu/armv7/start.o
 .rel.text.usb_show_tree
                0x0000000041678ea0        0x8 arch/arm/cpu/armv7/start.o
 .rel.text.do_usb
                0x0000000041678ea8      0x160 arch/arm/cpu/armv7/start.o
 .rel.text.common_diskboot
                0x0000000041679008       0x28 arch/arm/cpu/armv7/start.o
 .rel.text.ethsw_port_aggr_help_key_func
                0x0000000041679030        0x8 arch/arm/cpu/armv7/start.o
 .rel.text.ethsw_ingr_fltr_help_key_func
                0x0000000041679038        0x8 arch/arm/cpu/armv7/start.o
 .rel.text.ethsw_vlan_learn_help_key_func
                0x0000000041679040        0x8 arch/arm/cpu/armv7/start.o
 .rel.text.ethsw_egr_tag_help_key_func
                0x0000000041679048        0x8 arch/arm/cpu/armv7/start.o
 .rel.text.ethsw_port_untag_help_key_func
                0x0000000041679050        0x8 arch/arm/cpu/armv7/start.o
 .rel.text.ethsw_vlan_help_key_func
                0x0000000041679058        0x8 arch/arm/cpu/armv7/start.o
 .rel.text.ethsw_pvid_help_key_func
                0x0000000041679060        0x8 arch/arm/cpu/armv7/start.o
 .rel.text.ethsw_fdb_help_key_func
                0x0000000041679068        0x8 arch/arm/cpu/armv7/start.o
 .rel.text.ethsw_learn_help_key_func
                0x0000000041679070        0x8 arch/arm/cpu/armv7/start.o
 .rel.text.ethsw_port_stats_help_key_func
                0x0000000041679078        0x8 arch/arm/cpu/armv7/start.o
 .rel.text.keyword_match_gen
                0x0000000041679080        0x8 arch/arm/cpu/armv7/start.o
 .rel.text.keyword_match_mac_addr
                0x0000000041679088        0x8 arch/arm/cpu/armv7/start.o
 .rel.text.do_ethsw
                0x0000000041679090       0x28 arch/arm/cpu/armv7/start.o
 .rel.text.do_env_delete
                0x00000000416790b8       0x10 arch/arm/cpu/armv7/start.o
 .rel.text.do_env_save
                0x00000000416790c8        0x8 arch/arm/cpu/armv7/start.o
 .rel.text.do_env
                0x00000000416790d0        0x8 arch/arm/cpu/armv7/start.o
 .rel.text.env_print
                0x00000000416790d8       0x18 arch/arm/cpu/armv7/start.o
 .rel.text.do_env_print
                0x00000000416790f0       0x10 arch/arm/cpu/armv7/start.o
 .rel.text.do_env_import
                0x0000000041679100       0x58 arch/arm/cpu/armv7/start.o
 .rel.text.do_env_default
                0x0000000041679158        0x8 arch/arm/cpu/armv7/start.o
 .rel.text._do_env_set.constprop.0
                0x0000000041679160       0x30 arch/arm/cpu/armv7/start.o
 .rel.text.get_env_id
                0x0000000041679190        0x8 arch/arm/cpu/armv7/start.o
 .rel.text.env_set
                0x0000000041679198        0x8 arch/arm/cpu/armv7/start.o
 .rel.text.env_set_hex
                0x00000000416791a0        0x8 arch/arm/cpu/armv7/start.o
 .rel.text.do_env_export
                0x00000000416791a8       0x40 arch/arm/cpu/armv7/start.o
 .rel.text.env_get_f
                0x00000000416791e8        0x8 arch/arm/cpu/armv7/start.o
 .rel.text.env_get
                0x00000000416791f0        0x8 arch/arm/cpu/armv7/start.o
 .rel.rodata.weekdays
                0x00000000416791f8       0x38 arch/arm/cpu/armv7/start.o
 .rel.rodata.desc_and_len_tbl
                0x0000000041679230       0x30 arch/arm/cpu/armv7/start.o
 .rel.rodata.reg_0_5_desc_tbl
                0x0000000041679260       0x30 arch/arm/cpu/armv7/start.o
 .rel.rodata.reg_0_desc_tbl
                0x0000000041679290       0x50 arch/arm/cpu/armv7/start.o
 .rel.rodata.reg_1_desc_tbl
                0x00000000416792e0       0x80 arch/arm/cpu/armv7/start.o
 .rel.rodata.reg_2_desc_tbl
                0x0000000041679360        0x8 arch/arm/cpu/armv7/start.o
 .rel.rodata.reg_3_desc_tbl
                0x0000000041679368       0x18 arch/arm/cpu/armv7/start.o
 .rel.rodata.reg_4_desc_tbl
                0x0000000041679380       0x60 arch/arm/cpu/armv7/start.o
 .rel.rodata.reg_5_desc_tbl
                0x00000000416793e0       0x60 arch/arm/cpu/armv7/start.o
 .rel.rodata.keywords
                0x0000000041679440       0x90 arch/arm/cpu/armv7/start.o
 .rel.rodata.CSWTCH.40
                0x00000000416794d0       0x28 arch/arm/cpu/armv7/start.o
 .rel.u_boot_list_2_cmd_2_go
                0x00000000416794f8       0x20 arch/arm/cpu/armv7/start.o
 .rel.u_boot_list_2_cmd_2_reset
                0x0000000041679518       0x20 arch/arm/cpu/armv7/start.o
 .rel.data.cmd_bootm_sub
                0x0000000041679538       0xd8 arch/arm/cpu/armv7/start.o
 .rel.u_boot_list_2_cmd_2_bootm
                0x0000000041679610       0x20 arch/arm/cpu/armv7/start.o
 .rel.u_boot_list_2_cmd_2_iminfo
                0x0000000041679630       0x20 arch/arm/cpu/armv7/start.o
 .rel.u_boot_list_2_cmd_2_help
                0x0000000041679650       0x20 arch/arm/cpu/armv7/start.o
 .rel.u_boot_list_2_cmd_2_question_mark
                0x0000000041679670       0x20 arch/arm/cpu/armv7/start.o
 .rel.u_boot_list_2_cmd_2_version
                0x0000000041679690       0x20 arch/arm/cpu/armv7/start.o
 .rel.u_boot_list_2_cmd_2_source
                0x00000000416796b0       0x20 arch/arm/cpu/armv7/start.o
 .rel.u_boot_list_2_cmd_2_bdinfo
                0x00000000416796d0       0x20 arch/arm/cpu/armv7/start.o
 .rel.u_boot_list_2_cmd_2_bootz
                0x00000000416796f0       0x20 arch/arm/cpu/armv7/start.o
 .rel.u_boot_list_2_cmd_2_bootx
                0x0000000041679710       0x20 arch/arm/cpu/armv7/start.o
 .rel.u_boot_list_2_cmd_2_dcache
                0x0000000041679730       0x20 arch/arm/cpu/armv7/start.o
 .rel.u_boot_list_2_cmd_2_icache
                0x0000000041679750       0x20 arch/arm/cpu/armv7/start.o
 .rel.u_boot_list_2_cmd_2_date
                0x0000000041679770       0x20 arch/arm/cpu/armv7/start.o
 .rel.u_boot_list_2_cmd_2_echo
                0x0000000041679790       0x20 arch/arm/cpu/armv7/start.o
 .rel.u_boot_list_2_cmd_2_bootelf
                0x00000000416797b0       0x20 arch/arm/cpu/armv7/start.o
 .rel.u_boot_list_2_cmd_2_bootvx
                0x00000000416797d0       0x20 arch/arm/cpu/armv7/start.o
 .rel.u_boot_list_2_cmd_2_fatinfo
                0x00000000416797f0       0x20 arch/arm/cpu/armv7/start.o
 .rel.u_boot_list_2_cmd_2_fatload
                0x0000000041679810       0x20 arch/arm/cpu/armv7/start.o
 .rel.u_boot_list_2_cmd_2_fatls
                0x0000000041679830       0x20 arch/arm/cpu/armv7/start.o
 .rel.u_boot_list_2_cmd_2_fatsize
                0x0000000041679850       0x20 arch/arm/cpu/armv7/start.o
 .rel.u_boot_list_2_cmd_2_fatwrite
                0x0000000041679870       0x20 arch/arm/cpu/armv7/start.o
 .rel.u_boot_list_2_cmd_2_fdt
                0x0000000041679890       0x20 arch/arm/cpu/armv7/start.o
 .rel.u_boot_list_2_cmd_2_gpio
                0x00000000416798b0       0x20 arch/arm/cpu/armv7/start.o
 .rel.u_boot_list_2_cmd_2_base
                0x00000000416798d0       0x20 arch/arm/cpu/armv7/start.o
 .rel.u_boot_list_2_cmd_2_cmp
                0x00000000416798f0       0x20 arch/arm/cpu/armv7/start.o
 .rel.u_boot_list_2_cmd_2_cp
                0x0000000041679910       0x20 arch/arm/cpu/armv7/start.o
 .rel.u_boot_list_2_cmd_2_crc32
                0x0000000041679930       0x20 arch/arm/cpu/armv7/start.o
 .rel.u_boot_list_2_cmd_2_loop
                0x0000000041679950       0x20 arch/arm/cpu/armv7/start.o
 .rel.u_boot_list_2_cmd_2_md
                0x0000000041679970       0x20 arch/arm/cpu/armv7/start.o
 .rel.u_boot_list_2_cmd_2_mm
                0x0000000041679990       0x20 arch/arm/cpu/armv7/start.o
 .rel.u_boot_list_2_cmd_2_mw
                0x00000000416799b0       0x20 arch/arm/cpu/armv7/start.o
 .rel.u_boot_list_2_cmd_2_nm
                0x00000000416799d0       0x20 arch/arm/cpu/armv7/start.o
 .rel.u_boot_list_2_cmd_2_mii
                0x00000000416799f0       0x20 arch/arm/cpu/armv7/start.o
 .rel.u_boot_list_2_cmd_2_mdio
                0x0000000041679a10       0x20 arch/arm/cpu/armv7/start.o
 .rel.data.cmd_mmc
                0x0000000041679a30      0x140 arch/arm/cpu/armv7/start.o
 .rel.u_boot_list_2_cmd_2_mmc
                0x0000000041679b70       0x20 arch/arm/cpu/armv7/start.o
 .rel.u_boot_list_2_cmd_2_mmcinfo
                0x0000000041679b90       0x20 arch/arm/cpu/armv7/start.o
 .rel.u_boot_list_2_cmd_2_bootp
                0x0000000041679bb0       0x20 arch/arm/cpu/armv7/start.o
 .rel.u_boot_list_2_cmd_2_cdp
                0x0000000041679bd0       0x20 arch/arm/cpu/armv7/start.o
 .rel.u_boot_list_2_cmd_2_dhcp
                0x0000000041679bf0       0x20 arch/arm/cpu/armv7/start.o
 .rel.u_boot_list_2_cmd_2_dns
                0x0000000041679c10       0x20 arch/arm/cpu/armv7/start.o
 .rel.u_boot_list_2_cmd_2_linklocal
                0x0000000041679c30       0x20 arch/arm/cpu/armv7/start.o
 .rel.u_boot_list_2_cmd_2_nfs
                0x0000000041679c50       0x20 arch/arm/cpu/armv7/start.o
 .rel.u_boot_list_2_cmd_2_ping
                0x0000000041679c70       0x20 arch/arm/cpu/armv7/start.o
 .rel.u_boot_list_2_cmd_2_rarpboot
                0x0000000041679c90       0x20 arch/arm/cpu/armv7/start.o
 .rel.u_boot_list_2_cmd_2_sntp
                0x0000000041679cb0       0x20 arch/arm/cpu/armv7/start.o
 .rel.u_boot_list_2_cmd_2_tftpboot
                0x0000000041679cd0       0x20 arch/arm/cpu/armv7/start.o
 .rel.u_boot_list_2_cmd_2_tftpput
                0x0000000041679cf0       0x20 arch/arm/cpu/armv7/start.o
 .rel.u_boot_list_2_cmd_2_tftpsrv
                0x0000000041679d10       0x20 arch/arm/cpu/armv7/start.o
 .rel.data.cmd_pxe_sub
                0x0000000041679d30       0x40 arch/arm/cpu/armv7/start.o
 .rel.data.pxe_default_paths
                0x0000000041679d70       0x18 arch/arm/cpu/armv7/start.o
 .rel.u_boot_list_2_cmd_2_pxe
                0x0000000041679d88       0x20 arch/arm/cpu/armv7/start.o
 .rel.u_boot_list_2_cmd_2_sysboot
                0x0000000041679da8       0x20 arch/arm/cpu/armv7/start.o
 .rel.u_boot_list_2_cmd_2_sf
                0x0000000041679dc8       0x20 arch/arm/cpu/armv7/start.o
 .rel.u_boot_list_2_cmd_2_usb
                0x0000000041679de8       0x20 arch/arm/cpu/armv7/start.o
 .rel.u_boot_list_2_cmd_2_usbboot
                0x0000000041679e08       0x20 arch/arm/cpu/armv7/start.o
 .rel.data.ethsw_cmd_def
                0x0000000041679e28       0x98 arch/arm/cpu/armv7/start.o
 .rel.data.keyword
                0x0000000041679ec0      0x1a0 arch/arm/cpu/armv7/start.o
 .rel.u_boot_list_2_cmd_2_ethsw
                0x000000004167a060       0x20 arch/arm/cpu/armv7/start.o
 .rel.u_boot_list_2_cmd_2_arcgo
                0x000000004167a080       0x20 arch/arm/cpu/armv7/start.o
 .rel.data.cmd_env_sub
                0x000000004167a0a0      0x100 arch/arm/cpu/armv7/start.o
 .rel.u_boot_list_2_cmd_2_env
                0x000000004167a1a0       0x20 arch/arm/cpu/armv7/start.o
 .rel.u_boot_list_2_cmd_2_printenv
                0x000000004167a1c0       0x28 arch/arm/cpu/armv7/start.o
 .rel.u_boot_list_2_cmd_2_run
                0x000000004167a1e8       0x28 arch/arm/cpu/armv7/start.o
 .rel.u_boot_list_2_cmd_2_saveenv
                0x000000004167a210       0x20 arch/arm/cpu/armv7/start.o
 .rel.u_boot_list_2_cmd_2_setenv
                0x000000004167a230       0x28 arch/arm/cpu/armv7/start.o
 .rel.text.main_loop
                0x000000004167a258        0x8 arch/arm/cpu/armv7/start.o
 .rel.text.jumptable_init
                0x000000004167a260       0xc0 arch/arm/cpu/armv7/start.o
 .rel.text.hash_show
                0x000000004167a320       0x10 arch/arm/cpu/armv7/start.o
 .rel.text.hash_lookup_algo
                0x000000004167a330        0x8 arch/arm/cpu/armv7/start.o
 .rel.text.hash_command
                0x000000004167a338       0x40 arch/arm/cpu/armv7/start.o
 .rel.text.bootdelay_process
                0x000000004167a378       0x38 arch/arm/cpu/armv7/start.o
 .rel.text.autoboot_command
                0x000000004167a3b0       0x18 arch/arm/cpu/armv7/start.o
 .rel.text.setup_mon_len
                0x000000004167a3c8       0x10 arch/arm/cpu/armv7/start.o
 .rel.text.init_baud_rate
                0x000000004167a3d8        0x8 arch/arm/cpu/armv7/start.o
 .rel.text.board_init_f
                0x000000004167a3e0        0x8 arch/arm/cpu/armv7/start.o
 .rel.text.initr_reloc_global_data
                0x000000004167a3e8       0x18 arch/arm/cpu/armv7/start.o
 .rel.text.initr_ethaddr
                0x000000004167a400        0x8 arch/arm/cpu/armv7/start.o
 .rel.text.initr_env
                0x000000004167a408       0x20 arch/arm/cpu/armv7/start.o
 .rel.text.initr_aes
                0x000000004167a428       0x20 arch/arm/cpu/armv7/start.o
 .rel.text.uclass_get_efuse_dev_by_driver_in_turn
                0x000000004167a448       0x18 arch/arm/cpu/armv7/start.o
 .rel.text.initr_efuse
                0x000000004167a460        0x8 arch/arm/cpu/armv7/start.o
 .rel.text.board_init_r
                0x000000004167a468        0x8 arch/arm/cpu/armv7/start.o
 .rel.text.bootm_find_images
                0x000000004167a470       0x18 arch/arm/cpu/armv7/start.o
 .rel.text.bootm_decomp_image
                0x000000004167a488       0x48 arch/arm/cpu/armv7/start.o
 .rel.text.bootm_disable_interrupts
                0x000000004167a4d0        0x8 arch/arm/cpu/armv7/start.o
 .rel.text.do_bootm_states
                0x000000004167a4d8       0xc0 arch/arm/cpu/armv7/start.o
 .rel.text.do_bootm_plan9
                0x000000004167a598       0x18 arch/arm/cpu/armv7/start.o
 .rel.text.do_bootm_netbsd
                0x000000004167a5b0       0x18 arch/arm/cpu/armv7/start.o
 .rel.text.do_bootm_qnxelf
                0x000000004167a5c8        0x8 arch/arm/cpu/armv7/start.o
 .rel.text.do_bootm_standalone
                0x000000004167a5d0       0x18 arch/arm/cpu/armv7/start.o
 .rel.text.do_bootm_rtems
                0x000000004167a5e8        0x8 arch/arm/cpu/armv7/start.o
 .rel.text.do_bootvx_fdt
                0x000000004167a5f0       0x38 arch/arm/cpu/armv7/start.o
 .rel.text.bootm_os_get_boot_func
                0x000000004167a628        0x8 arch/arm/cpu/armv7/start.o
 .rel.text.fdt_support_default_count_cells
                0x000000004167a630        0x8 arch/arm/cpu/armv7/start.o
 .rel.text.fdt_find_or_add_subnode
                0x000000004167a638       0x10 arch/arm/cpu/armv7/start.o
 .rel.text.fdt_root
                0x000000004167a648       0x20 arch/arm/cpu/armv7/start.o
 .rel.text.fdt_initrd
                0x000000004167a668       0x30 arch/arm/cpu/armv7/start.o
 .rel.text.fdt_chosen
                0x000000004167a698       0x28 arch/arm/cpu/armv7/start.o
 .rel.text.do_fixup_by_path
                0x000000004167a6c0        0x8 arch/arm/cpu/armv7/start.o
 .rel.text.fdt_fixup_memory_banks
                0x000000004167a6c8       0x38 arch/arm/cpu/armv7/start.o
 .rel.text.fdt_fixup_ethernet
                0x000000004167a700       0x30 arch/arm/cpu/armv7/start.o
 .rel.text.fdt_translate_address
                0x000000004167a730       0x20 arch/arm/cpu/armv7/start.o
 .rel.text.miiphy_get_dev_by_name
                0x000000004167a750       0x10 arch/arm/cpu/armv7/start.o
 .rel.text.miiphy_init
                0x000000004167a760       0x10 arch/arm/cpu/armv7/start.o
 .rel.text.mdio_register
                0x000000004167a770       0x18 arch/arm/cpu/armv7/start.o
 .rel.text.mdio_unregister
                0x000000004167a788        0x8 arch/arm/cpu/armv7/start.o
 .rel.text.mdio_list_devices
                0x000000004167a790       0x28 arch/arm/cpu/armv7/start.o
 .rel.text.miiphy_set_current_dev
                0x000000004167a7b8       0x10 arch/arm/cpu/armv7/start.o
 .rel.text.miiphy_get_active_dev
                0x000000004167a7c8        0x8 arch/arm/cpu/armv7/start.o
 .rel.text.mdio_get_current_dev
                0x000000004167a7d0        0x8 arch/arm/cpu/armv7/start.o
 .rel.text.mdio_phydev_for_ethname
                0x000000004167a7d8       0x10 arch/arm/cpu/armv7/start.o
 .rel.text.miiphy_get_current_dev
                0x000000004167a7e8        0x8 arch/arm/cpu/armv7/start.o
 .rel.text.miiphy_listdev
                0x000000004167a7f0       0x30 arch/arm/cpu/armv7/start.o
 .rel.text.miiphy_speed
                0x000000004167a820       0x20 arch/arm/cpu/armv7/start.o
 .rel.text.miiphy_duplex
                0x000000004167a840       0x20 arch/arm/cpu/armv7/start.o
 .rel.text.get_descriptor_len
                0x000000004167a860       0x10 arch/arm/cpu/armv7/start.o
 .rel.text.usb_string_sub
                0x000000004167a870        0x8 arch/arm/cpu/armv7/start.o
 .rel.text.usb_get_configuration_len
                0x000000004167a878       0x10 arch/arm/cpu/armv7/start.o
 .rel.text.usb_set_interface
                0x000000004167a888        0x8 arch/arm/cpu/armv7/start.o
 .rel.text.usb_select_config
                0x000000004167a890       0x70 arch/arm/cpu/armv7/start.o
 .rel.text.usb_setup_device
                0x000000004167a900       0x18 arch/arm/cpu/armv7/start.o
 .rel.text.usb_hub_port_connect_change
                0x000000004167a918        0x8 arch/arm/cpu/armv7/start.o
 .rel.text.usb_hub_configure
                0x000000004167a920       0x28 arch/arm/cpu/armv7/start.o
 .rel.text.usb_stor_CB_comdat
                0x000000004167a948        0x8 arch/arm/cpu/armv7/start.o
 .rel.text.usb_stor_CBI_get_status
                0x000000004167a950        0x8 arch/arm/cpu/armv7/start.o
 .rel.text.usb_stor_CB_transport
                0x000000004167a958       0x10 arch/arm/cpu/armv7/start.o
 .rel.text.usb_request_sense.constprop.0.isra.0
                0x000000004167a968        0x8 arch/arm/cpu/armv7/start.o
 .rel.text.usb_stor_write
                0x000000004167a970        0x8 arch/arm/cpu/armv7/start.o
 .rel.text.usb_stor_read
                0x000000004167a978        0x8 arch/arm/cpu/armv7/start.o
 .rel.text.usb_stor_BBB_transport
                0x000000004167a980       0x10 arch/arm/cpu/armv7/start.o
 .rel.text.usb_stor_info
                0x000000004167a990       0x10 arch/arm/cpu/armv7/start.o
 .rel.text.usb_stor_reset
                0x000000004167a9a0        0x8 arch/arm/cpu/armv7/start.o
 .rel.text.usb_stor_scan
                0x000000004167a9a8       0x18 arch/arm/cpu/armv7/start.o
 .rel.text.usb_storage_probe
                0x000000004167a9c0       0x38 arch/arm/cpu/armv7/start.o
 .rel.text.usb_stor_get_info
                0x000000004167a9f8       0x20 arch/arm/cpu/armv7/start.o
 .rel.text.usb_mass_storage_probe
                0x000000004167aa18       0x18 arch/arm/cpu/armv7/start.o
 .rel.text.menu_get_choice
                0x000000004167aa30       0x18 arch/arm/cpu/armv7/start.o
 .rel.text.delete_char
                0x000000004167aa48       0x10 arch/arm/cpu/armv7/start.o
 .rel.text.cli_readline_into_buffer
                0x000000004167aa58       0x90 arch/arm/cpu/armv7/start.o
 .rel.text.cli_readline
                0x000000004167aae8        0x8 arch/arm/cpu/armv7/start.o
 .rel.text.cli_simple_parse_line
                0x000000004167aaf0        0x8 arch/arm/cpu/armv7/start.o
 .rel.text.cli_simple_run_command
                0x000000004167aaf8        0x8 arch/arm/cpu/armv7/start.o
 .rel.text.cli_simple_loop
                0x000000004167ab00       0x20 arch/arm/cpu/armv7/start.o
 .rel.text.console_setfile
                0x000000004167ab20       0x30 arch/arm/cpu/armv7/start.o
 .rel.text.putc
                0x000000004167ab50        0x8 arch/arm/cpu/armv7/start.o
 .rel.text.fgetc
                0x000000004167ab58        0x8 arch/arm/cpu/armv7/start.o
 .rel.text.ftstc
                0x000000004167ab60        0x8 arch/arm/cpu/armv7/start.o
 .rel.text.ctrlc
                0x000000004167ab68       0x10 arch/arm/cpu/armv7/start.o
 .rel.text.disable_ctrlc
                0x000000004167ab78        0x8 arch/arm/cpu/armv7/start.o
 .rel.text.had_ctrlc
                0x000000004167ab80        0x8 arch/arm/cpu/armv7/start.o
 .rel.text.clear_ctrlc
                0x000000004167ab88        0x8 arch/arm/cpu/armv7/start.o
 .rel.text.on_console
                0x000000004167ab90       0x20 arch/arm/cpu/armv7/start.o
 .rel.text.console_init_r
                0x000000004167abb0       0x10 arch/arm/cpu/armv7/start.o
 .rel.text.sbrk
                0x000000004167abc0       0x18 arch/arm/cpu/armv7/start.o
 .rel.text.mem_malloc_init
                0x000000004167abd8       0x18 arch/arm/cpu/armv7/start.o
 .rel.text.malloc_trim
                0x000000004167abf0       0x18 arch/arm/cpu/armv7/start.o
 .rel.text.free
                0x000000004167ac08       0x20 arch/arm/cpu/armv7/start.o
 .rel.text.malloc
                0x000000004167ac28       0x48 arch/arm/cpu/armv7/start.o
 .rel.text.calloc
                0x000000004167ac70        0x8 arch/arm/cpu/armv7/start.o
 .rel.text.on_loadaddr
                0x000000004167ac78        0x8 arch/arm/cpu/armv7/start.o
 .rel.text.env_get_bootm_low
                0x000000004167ac80        0x8 arch/arm/cpu/armv7/start.o
 .rel.text.env_get_bootm_size
                0x000000004167ac88       0x10 arch/arm/cpu/armv7/start.o
 .rel.text.env_get_bootm_mapsize
                0x000000004167ac98        0x8 arch/arm/cpu/armv7/start.o
 .rel.text.genimg_print_size
                0x000000004167aca0       0x10 arch/arm/cpu/armv7/start.o
 .rel.text.genimg_print_time
                0x000000004167acb0        0x8 arch/arm/cpu/armv7/start.o
 .rel.text.genimg_get_os_name
                0x000000004167acb8       0x10 arch/arm/cpu/armv7/start.o
 .rel.text.genimg_get_arch_name
                0x000000004167acc8       0x10 arch/arm/cpu/armv7/start.o
 .rel.text.genimg_get_type_name
                0x000000004167acd8       0x10 arch/arm/cpu/armv7/start.o
 .rel.text.genimg_get_comp_name
                0x000000004167ace8       0x10 arch/arm/cpu/armv7/start.o
 .rel.text.image_print_contents
                0x000000004167acf8       0x60 arch/arm/cpu/armv7/start.o
 .rel.text.genimg_get_kernel_addr_fit
                0x000000004167ad58        0x8 arch/arm/cpu/armv7/start.o
 .rel.text.boot_get_ramdisk
                0x000000004167ad60       0x50 arch/arm/cpu/armv7/start.o
 .rel.text.boot_ramdisk_high
                0x000000004167adb0       0x20 arch/arm/cpu/armv7/start.o
 .rel.text.fdt_error
                0x000000004167add0       0x10 arch/arm/cpu/armv7/start.o
 .rel.text.boot_fdt_add_mem_rsv_regions
                0x000000004167ade0        0x8 arch/arm/cpu/armv7/start.o
 .rel.text.boot_relocate_fdt
                0x000000004167ade8       0x30 arch/arm/cpu/armv7/start.o
 .rel.text.boot_get_fdt
                0x000000004167ae18       0x70 arch/arm/cpu/armv7/start.o
 .rel.text.image_setup_libfdt
                0x000000004167ae88       0x20 arch/arm/cpu/armv7/start.o
 .rel.text.stdio_get_list
                0x000000004167aea8        0x8 arch/arm/cpu/armv7/start.o
 .rel.text.stdio_get_by_name
                0x000000004167aeb0        0x8 arch/arm/cpu/armv7/start.o
 .rel.text.stdio_register_dev
                0x000000004167aeb8        0x8 arch/arm/cpu/armv7/start.o
 .rel.text.stdio_init_tables
                0x000000004167aec0        0x8 arch/arm/cpu/armv7/start.o
 .rel.text.stdio_add_devices
                0x000000004167aec8       0x28 arch/arm/cpu/armv7/start.o
 .rel.text.do_run
                0x000000004167aef0        0x8 arch/arm/cpu/armv7/start.o
 .rel.text.cli_process_fdt
                0x000000004167aef8       0x10 arch/arm/cpu/armv7/start.o
 .rel.text.cli_secure_boot_cmd
                0x000000004167af08       0x18 arch/arm/cpu/armv7/start.o
 .rel.text.find_cmd
                0x000000004167af20       0x10 arch/arm/cpu/armv7/start.o
 .rel.text.cmd_usage
                0x000000004167af30       0x18 arch/arm/cpu/armv7/start.o
 .rel.text._do_help
                0x000000004167af48       0x10 arch/arm/cpu/armv7/start.o
 .rel.text.var_complete
                0x000000004167af58       0x10 arch/arm/cpu/armv7/start.o
 .rel.text.cmd_auto_complete
                0x000000004167af68       0x48 arch/arm/cpu/armv7/start.o
 .rel.text.cmd_get_data_size
                0x000000004167afb0        0x8 arch/arm/cpu/armv7/start.o
 .rel.text.cmd_process
                0x000000004167afb8        0x8 arch/arm/cpu/armv7/start.o
 .rel.text.cmd_process_error
                0x000000004167afc0        0x8 arch/arm/cpu/armv7/start.o
 .rel.text.set_tve_sync_info
                0x000000004167afc8        0x8 arch/arm/cpu/armv7/start.o
 .rel.text.set_intf_common_para
                0x000000004167afd0        0x8 arch/arm/cpu/armv7/start.o
 .rel.text.set_display_info
                0x000000004167afd8        0x8 arch/arm/cpu/armv7/start.o
 .rel.text.set_chn_minor_cfg
                0x000000004167afe0        0x8 arch/arm/cpu/armv7/start.o
 .rel.text.set_active_info
                0x000000004167afe8        0x8 arch/arm/cpu/armv7/start.o
 .rel.text.set_blank_info
                0x000000004167aff0        0x8 arch/arm/cpu/armv7/start.o
 .rel.text.set_y2r_matrix
                0x000000004167aff8        0x8 arch/arm/cpu/armv7/start.o
 .rel.text.set_bg_info
                0x000000004167b000        0x8 arch/arm/cpu/armv7/start.o
 .rel.text.set_chn_cfg
                0x000000004167b008        0x8 arch/arm/cpu/armv7/start.o
 .rel.text.set_img_layer_cfg
                0x000000004167b010        0x8 arch/arm/cpu/armv7/start.o
 .rel.text.set_irq_mask
                0x000000004167b018        0x8 arch/arm/cpu/armv7/start.o
 .rel.text.set_work_ctrl
                0x000000004167b020        0x8 arch/arm/cpu/armv7/start.o
 .rel.text.set_image_block
                0x000000004167b028        0x8 arch/arm/cpu/armv7/start.o
 .rel.text.lcm_config
                0x000000004167b030        0x8 arch/arm/cpu/armv7/start.o
 .rel.text.vou_dev_kickoff
                0x000000004167b038        0x8 arch/arm/cpu/armv7/start.o
 .rel.text.fast_osd
                0x000000004167b040        0x8 arch/arm/cpu/armv7/start.o
 .rel.text.boot_logo
                0x000000004167b048       0x10 arch/arm/cpu/armv7/start.o
 .rel.text.get_lcm_cfg_tab
                0x000000004167b058        0x8 arch/arm/cpu/armv7/start.o
 .rel.text._lcm_mcu_st7796s_PowerOff
                0x000000004167b060       0x30 arch/arm/cpu/armv7/start.o
 .rel.text._lcm_mcu_st7796s_deinit
                0x000000004167b090       0x28 arch/arm/cpu/armv7/start.o
 .rel.text._lcm_mcu_st7796s_resume
                0x000000004167b0b8       0x20 arch/arm/cpu/armv7/start.o
 .rel.text._lcm_mcu_st7796s_suspend
                0x000000004167b0d8       0x20 arch/arm/cpu/armv7/start.o
 .rel.text._lcm_mcu_st7796s_identify
                0x000000004167b0f8       0x20 arch/arm/cpu/armv7/start.o
 .rel.text._lcm_mcu_st7796s_PowerOn
                0x000000004167b118       0x28 arch/arm/cpu/armv7/start.o
 .rel.text.lcm_mcu_st7796s_clear
                0x000000004167b140       0x18 arch/arm/cpu/armv7/start.o
 .rel.text._lcm_mcu_st7796s_init
                0x000000004167b158       0x38 arch/arm/cpu/armv7/start.o
 .rel.text._lcm_mcu16_st7796s_PowerOff
                0x000000004167b190       0x30 arch/arm/cpu/armv7/start.o
 .rel.text._lcm_mcu16_st7796s_deinit
                0x000000004167b1c0       0x28 arch/arm/cpu/armv7/start.o
 .rel.text._lcm_mcu16_st7796s_resume
                0x000000004167b1e8       0x20 arch/arm/cpu/armv7/start.o
 .rel.text._lcm_mcu16_st7796s_suspend
                0x000000004167b208       0x20 arch/arm/cpu/armv7/start.o
 .rel.text._lcm_mcu16_st7796s_identify
                0x000000004167b228       0x20 arch/arm/cpu/armv7/start.o
 .rel.text._lcm_mcu16_st7796s_PowerOn
                0x000000004167b248       0x28 arch/arm/cpu/armv7/start.o
 .rel.text.lcm_mcu16_st7796s_clear
                0x000000004167b270       0x18 arch/arm/cpu/armv7/start.o
 .rel.text._lcm_mcu16_st7796s_init
                0x000000004167b288       0x38 arch/arm/cpu/armv7/start.o
 .rel.text._lcm_rgb_at070tn94_power_off
                0x000000004167b2c0       0x30 arch/arm/cpu/armv7/start.o
 .rel.text._lcm_rgb_at070tn94_resume
                0x000000004167b2f0       0x20 arch/arm/cpu/armv7/start.o
 .rel.text._lcm_rgb_at070tn94_suspend
                0x000000004167b310       0x20 arch/arm/cpu/armv7/start.o
 .rel.text._lcm_rgb_at070tn94_init
                0x000000004167b330       0x20 arch/arm/cpu/armv7/start.o
 .rel.text._lcm_rgb_at070tn94_identify
                0x000000004167b350       0x20 arch/arm/cpu/armv7/start.o
 .rel.text._lcm_rgb_at070tn94_deinit
                0x000000004167b370       0x20 arch/arm/cpu/armv7/start.o
 .rel.text._lcm_rgb_at070tn94_power_on
                0x000000004167b390       0x28 arch/arm/cpu/armv7/start.o
 .rel.text._lcm_rgb18_at070tn94_power_off
                0x000000004167b3b8       0x30 arch/arm/cpu/armv7/start.o
 .rel.text._lcm_rgb18_at070tn94_resume
                0x000000004167b3e8       0x20 arch/arm/cpu/armv7/start.o
 .rel.text._lcm_rgb18_at070tn94_suspend
                0x000000004167b408       0x20 arch/arm/cpu/armv7/start.o
 .rel.text._lcm_rgb18_at070tn94_init
                0x000000004167b428       0x20 arch/arm/cpu/armv7/start.o
 .rel.text._lcm_rgb18_at070tn94_identify
                0x000000004167b448       0x20 arch/arm/cpu/armv7/start.o
 .rel.text._lcm_rgb18_at070tn94_deinit
                0x000000004167b468       0x20 arch/arm/cpu/armv7/start.o
 .rel.text._lcm_rgb18_at070tn94_power_on
                0x000000004167b488       0x28 arch/arm/cpu/armv7/start.o
 .rel.text._lcm_mipi_ek79007_PowerOff
                0x000000004167b4b0        0x8 arch/arm/cpu/armv7/start.o
 .rel.text._lcm_mipi_ek79007_PowerOn
                0x000000004167b4b8        0x8 arch/arm/cpu/armv7/start.o
 .rel.text._lcm_mipi_ek79007_init
                0x000000004167b4c0       0x10 arch/arm/cpu/armv7/start.o
 .rel.text._lcm_mipi_ek79007_identify
                0x000000004167b4d0       0x20 arch/arm/cpu/armv7/start.o
 .rel.text._lcm_mipi_st7701s_PowerOn
                0x000000004167b4f0        0x8 arch/arm/cpu/armv7/start.o
 .rel.text._lcm_mipi_st7701s_PowerOff
                0x000000004167b4f8        0x8 arch/arm/cpu/armv7/start.o
 .rel.text._lcm_mipi_st7701s_init
                0x000000004167b500       0x18 arch/arm/cpu/armv7/start.o
 .rel.text._lcm_mipi_st7701s_identify
                0x000000004167b518       0x20 arch/arm/cpu/armv7/start.o
 .rel.text.regRead32
                0x000000004167b538       0x10 arch/arm/cpu/armv7/start.o
 .rel.text.regWrite32
                0x000000004167b548       0x10 arch/arm/cpu/armv7/start.o
 .rel.text.regWriteBits32
                0x000000004167b558       0x10 arch/arm/cpu/armv7/start.o
 .rel.text.reg_log_enable
                0x000000004167b568        0x8 arch/arm/cpu/armv7/start.o
 .rel.text.getRegValuePtr
                0x000000004167b570       0x20 arch/arm/cpu/armv7/start.o
 .rel.text.getRegPtr
                0x000000004167b590       0x20 arch/arm/cpu/armv7/start.o
 .rel.text._get_lcm_pin_ptr
                0x000000004167b5b0       0x28 arch/arm/cpu/armv7/start.o
 .rel.text.lcm_bus_pin_cfg
                0x000000004167b5d8       0x20 arch/arm/cpu/armv7/start.o
 .rel.text.lcm_bus_pin_default_cfg
                0x000000004167b5f8       0x18 arch/arm/cpu/armv7/start.o
 .rel.text.vou_clk_calc
                0x000000004167b610        0x8 arch/arm/cpu/armv7/start.o
 .rel.text.lcm_clk_off
                0x000000004167b618        0x8 arch/arm/cpu/armv7/start.o
 .rel.text.lcm_clk_on
                0x000000004167b620        0x8 arch/arm/cpu/armv7/start.o
 .rel.text._lcmMcuApiCheckHandle
                0x000000004167b628       0x20 arch/arm/cpu/armv7/start.o
 .rel.text._lcmMcuApiGetValidHandle
                0x000000004167b648        0x8 arch/arm/cpu/armv7/start.o
 .rel.text._lcmMcuApiCheckStatus
                0x000000004167b650       0x18 arch/arm/cpu/armv7/start.o
 .rel.text._lcmMcuApiCheckCmdDone
                0x000000004167b668       0x18 arch/arm/cpu/armv7/start.o
 .rel.text._lcmMcuApiSetStatus
                0x000000004167b680       0x20 arch/arm/cpu/armv7/start.o
 .rel.text._lcmMcuApiSetTiming
                0x000000004167b6a0       0x18 arch/arm/cpu/armv7/start.o
 .rel.text._lcmMcuApiSetIf
                0x000000004167b6b8       0x18 arch/arm/cpu/armv7/start.o
 .rel.text._lcmMcuApiSetFormat
                0x000000004167b6d0       0x18 arch/arm/cpu/armv7/start.o
 .rel.text._lcmMcuApiSetTeType
                0x000000004167b6e8       0x18 arch/arm/cpu/armv7/start.o
 .rel.text._lcmMcuApiMapParamCfg
                0x000000004167b700       0x18 arch/arm/cpu/armv7/start.o
 .rel.text._lcmMcuApiHandleInit
                0x000000004167b718       0x50 arch/arm/cpu/armv7/start.o
 .rel.text.lcmMcuApiInit
                0x000000004167b768       0x58 arch/arm/cpu/armv7/start.o
 .rel.text.lcmMcuApiDeInit
                0x000000004167b7c0       0x28 arch/arm/cpu/armv7/start.o
 .rel.text.lcmMcuApiWriteCmd
                0x000000004167b7e8       0x28 arch/arm/cpu/armv7/start.o
 .rel.text.lcmMcuApiWriteData
                0x000000004167b810       0x28 arch/arm/cpu/armv7/start.o
 .rel.text.lcmMcuApiWriteBurstData
                0x000000004167b838       0x28 arch/arm/cpu/armv7/start.o
 .rel.text.lcmMcuApiReadRegData
                0x000000004167b860       0x30 arch/arm/cpu/armv7/start.o
 .rel.text.lcmMcuApiPushTable
                0x000000004167b890       0x30 arch/arm/cpu/armv7/start.o
 .rel.text.lcmMcuApiSwitchShow
                0x000000004167b8c0       0x20 arch/arm/cpu/armv7/start.o
 .rel.text._lcmMcuDrvGetRegList
                0x000000004167b8e0       0x10 arch/arm/cpu/armv7/start.o
 .rel.text.lcmSetMcuBitDepth
                0x000000004167b8f0        0x8 arch/arm/cpu/armv7/start.o
 .rel.text.lcmSetMcuRgbOrder
                0x000000004167b8f8        0x8 arch/arm/cpu/armv7/start.o
 .rel.text.lcmSetMcuMode
                0x000000004167b900        0x8 arch/arm/cpu/armv7/start.o
 .rel.text.lcmSetMcuTeEnable
                0x000000004167b908        0x8 arch/arm/cpu/armv7/start.o
 .rel.text.lcmSetMcuTeEdge
                0x000000004167b910        0x8 arch/arm/cpu/armv7/start.o
 .rel.text.lcmSetMcuIfType
                0x000000004167b918        0x8 arch/arm/cpu/armv7/start.o
 .rel.text.lcmSetRgbIfType
                0x000000004167b920        0x8 arch/arm/cpu/armv7/start.o
 .rel.text.lcmSetCsType
                0x000000004167b928        0x8 arch/arm/cpu/armv7/start.o
 .rel.text.lcmSetTeType
                0x000000004167b930        0x8 arch/arm/cpu/armv7/start.o
 .rel.text.lcmSetSendEndain
                0x000000004167b938        0x8 arch/arm/cpu/armv7/start.o
 .rel.text.lcmSetTrans3
                0x000000004167b940        0x8 arch/arm/cpu/armv7/start.o
 .rel.text.lcmSetBitMap
                0x000000004167b948       0x30 arch/arm/cpu/armv7/start.o
 .rel.text.lcmSetTimingWrSetup
                0x000000004167b978        0x8 arch/arm/cpu/armv7/start.o
 .rel.text.lcmSetTimingWrHold
                0x000000004167b980        0x8 arch/arm/cpu/armv7/start.o
 .rel.text.lcmSetTimingWrDestory
                0x000000004167b988        0x8 arch/arm/cpu/armv7/start.o
 .rel.text.lcmSetTimingRdSetup
                0x000000004167b990        0x8 arch/arm/cpu/armv7/start.o
 .rel.text.lcmSetTimingRdHold
                0x000000004167b998        0x8 arch/arm/cpu/armv7/start.o
 .rel.text.lcmSetTimingRdDestory
                0x000000004167b9a0        0x8 arch/arm/cpu/armv7/start.o
 .rel.text.lcmSetStatusSwitchTrigger
                0x000000004167b9a8        0x8 arch/arm/cpu/armv7/start.o
 .rel.text.lcmSetStageStatus
                0x000000004167b9b0        0x8 arch/arm/cpu/armv7/start.o
 .rel.text.lcmGetStageStatus
                0x000000004167b9b8        0x8 arch/arm/cpu/armv7/start.o
 .rel.text.lcmClearCmdStatus
                0x000000004167b9c0        0x8 arch/arm/cpu/armv7/start.o
 .rel.text.lcmGetCmdStatus
                0x000000004167b9c8        0x8 arch/arm/cpu/armv7/start.o
 .rel.text.lcmSetCmdRun
                0x000000004167b9d0        0x8 arch/arm/cpu/armv7/start.o
 .rel.text.lcmSetCmdRW
                0x000000004167b9d8        0x8 arch/arm/cpu/armv7/start.o
 .rel.text.lcmSetCmdDummyNum
                0x000000004167b9e0        0x8 arch/arm/cpu/armv7/start.o
 .rel.text.lcmSetCmdDataNum
                0x000000004167b9e8        0x8 arch/arm/cpu/armv7/start.o
 .rel.text.lcmSetCmdAddrNum
                0x000000004167b9f0        0x8 arch/arm/cpu/armv7/start.o
 .rel.text.rgb_init
                0x000000004167b9f8       0xb0 arch/arm/cpu/armv7/start.o
 .rel.text.rgb_deinit
                0x000000004167baa8       0x40 arch/arm/cpu/armv7/start.o
 .rel.text.dsi_generic_write
                0x000000004167bae8       0x10 arch/arm/cpu/armv7/start.o
 .rel.text.dsi_dcs_write
                0x000000004167baf8       0x10 arch/arm/cpu/armv7/start.o
 .rel.text.dsi_dcs_read
                0x000000004167bb08       0x10 arch/arm/cpu/armv7/start.o
 .rel.text.dsi_init
                0x000000004167bb18       0x88 arch/arm/cpu/armv7/start.o
 .rel.text.dsi_deinit
                0x000000004167bba0       0x68 arch/arm/cpu/armv7/start.o
 .rel.text.dsi_lp_mode
                0x000000004167bc08       0x18 arch/arm/cpu/armv7/start.o
 .rel.text.dsi_hs_mode
                0x000000004167bc20       0x18 arch/arm/cpu/armv7/start.o
 .rel.text._dsi_host_bus_mode_cfg
                0x000000004167bc38        0x8 arch/arm/cpu/armv7/start.o
 .rel.text._dsi_hal_gen_packet_header.part.0
                0x000000004167bc40        0x8 arch/arm/cpu/armv7/start.o
 .rel.text._dsi_hal_gen_rd_cmd_busy
                0x000000004167bc48        0x8 arch/arm/cpu/armv7/start.o
 .rel.text._dsi_hal_gen_read_fifo_empty
                0x000000004167bc50        0x8 arch/arm/cpu/armv7/start.o
 .rel.text._dsi_hal_gen_read_payload
                0x000000004167bc58        0x8 arch/arm/cpu/armv7/start.o
 .rel.text._dsi_gen_rd_packet
                0x000000004167bc60       0x30 arch/arm/cpu/armv7/start.o
 .rel.text._dsi_hal_gen_write_fifo_full
                0x000000004167bc90        0x8 arch/arm/cpu/armv7/start.o
 .rel.text._dsi_hal_gen_packet_payload
                0x000000004167bc98        0x8 arch/arm/cpu/armv7/start.o
 .rel.text._dsi_gen_wr_packet.constprop.0
                0x000000004167bca0       0x18 arch/arm/cpu/armv7/start.o
 .rel.text._dsi_dcs_rd_cmd
                0x000000004167bcb8        0x8 arch/arm/cpu/armv7/start.o
 .rel.text.dsi_gen_wr_cmd
                0x000000004167bcc0       0x20 arch/arm/cpu/armv7/start.o
 .rel.text.dsi_dcs_wr_cmd
                0x000000004167bce0       0x20 arch/arm/cpu/armv7/start.o
 .rel.text.dsi_dcs_rd_cmd
                0x000000004167bd00       0x68 arch/arm/cpu/armv7/start.o
 .rel.text.dsi_host_v0_init
                0x000000004167bd68      0x2b8 arch/arm/cpu/armv7/start.o
 .rel.text.dsi_host_v0_deinit
                0x000000004167c020       0x30 arch/arm/cpu/armv7/start.o
 .rel.text.dsi_host_hs_mode
                0x000000004167c050       0x28 arch/arm/cpu/armv7/start.o
 .rel.text.dsi_host_lp_mode
                0x000000004167c078       0x28 arch/arm/cpu/armv7/start.o
 .rel.text.dsi_host_power_on
                0x000000004167c0a0       0x30 arch/arm/cpu/armv7/start.o
 .rel.text.dsi_host_power_off
                0x000000004167c0d0       0x50 arch/arm/cpu/armv7/start.o
 .rel.text.dsi_host_get_reg_default_tab
                0x000000004167c120        0x8 arch/arm/cpu/armv7/start.o
 .rel.text._dsi_phy_v0_pll_lock_checker
                0x000000004167c128       0x10 arch/arm/cpu/armv7/start.o
 .rel.text.dsi_phy_v0_init
                0x000000004167c138      0x378 arch/arm/cpu/armv7/start.o
 .rel.text.dsi_phy_v0_deinit
                0x000000004167c4b0       0x30 arch/arm/cpu/armv7/start.o
 .rel.text.dsi_phy_power_on
                0x000000004167c4e0       0x30 arch/arm/cpu/armv7/start.o
 .rel.text.dsi_phy_power_off
                0x000000004167c510       0x50 arch/arm/cpu/armv7/start.o
 .rel.text._dsi_phy_pll_v1_cfg
                0x000000004167c560       0xb8 arch/arm/cpu/armv7/start.o
 .rel.text.dsi_phy_pll_v1_on
                0x000000004167c618       0x30 arch/arm/cpu/armv7/start.o
 .rel.text.dsi_phy_get_reg_default_tab
                0x000000004167c648        0x8 arch/arm/cpu/armv7/start.o
 .rel.text.dsi_bits_per_pixel_get
                0x000000004167c650        0x8 arch/arm/cpu/armv7/start.o
 .rel.text.dsi_phy_pll_cfg_get
                0x000000004167c658       0x48 arch/arm/cpu/armv7/start.o
 .rel.text.sfc_read
                0x000000004167c6a0        0x8 arch/arm/cpu/armv7/start.o
 .rel.text.sfc_write
                0x000000004167c6a8        0x8 arch/arm/cpu/armv7/start.o
 .rel.text.lcm_sfc_init
                0x000000004167c6b0        0x8 arch/arm/cpu/armv7/start.o
 .rel.text.lcm_func_probe
                0x000000004167c6b8       0x40 arch/arm/cpu/armv7/start.o
 .rel.text.lcm_func_init
                0x000000004167c6f8       0x30 arch/arm/cpu/armv7/start.o
 .rel.text._mol_lcm_bus_deinit
                0x000000004167c728       0x30 arch/arm/cpu/armv7/start.o
 .rel.text._mol_lcm_bus_init
                0x000000004167c758       0x28 arch/arm/cpu/armv7/start.o
 .rel.text._mol_lcm_ops_cfg
                0x000000004167c780       0xc8 arch/arm/cpu/armv7/start.o
 .rel.text._mipi_bus_lp_cfg
                0x000000004167c848       0x18 arch/arm/cpu/armv7/start.o
 .rel.text._mipi_push_table
                0x000000004167c860       0x18 arch/arm/cpu/armv7/start.o
 .rel.text._mipi_bus_hs_cfg
                0x000000004167c878       0x18 arch/arm/cpu/armv7/start.o
 .rel.text.mol_lcm_init
                0x000000004167c890       0x58 arch/arm/cpu/armv7/start.o
 .rel.text.read_tab_index
                0x000000004167c8e8       0x30 arch/arm/cpu/armv7/start.o
 .rel.text.store_tab_index
                0x000000004167c918       0x38 arch/arm/cpu/armv7/start.o
 .rel.text.mol_lcm_scan
                0x000000004167c950       0xd8 arch/arm/cpu/armv7/start.o
 .rel.text.mol_lcm_probe
                0x000000004167ca28       0x28 arch/arm/cpu/armv7/start.o
 .rel.text.get_lcm_work_mode
                0x000000004167ca50       0x18 arch/arm/cpu/armv7/start.o
 .rel.text.set_lcm_work_mode
                0x000000004167ca68        0x8 arch/arm/cpu/armv7/start.o
 .rel.text.check_lcm_work_mode
                0x000000004167ca70       0x58 arch/arm/cpu/armv7/start.o
 .rel.text.get_lcm_handle
                0x000000004167cac8       0x18 arch/arm/cpu/armv7/start.o
 .rel.text.mc_lcm_probe
                0x000000004167cae0       0x18 arch/arm/cpu/armv7/start.o
 .rel.text.debug_fun
                0x000000004167caf8       0x20 arch/arm/cpu/armv7/start.o
 .rel.rodata.init_sequence_f
                0x000000004167cb18      0x130 arch/arm/cpu/armv7/start.o
 .rel.rodata.boot_os
                0x000000004167cc48       0x38 arch/arm/cpu/armv7/start.o
 .rel.rodata.usb_hub_ids
                0x000000004167cc80        0x8 arch/arm/cpu/armv7/start.o
 .rel.rodata.usb_mass_storage_ids
                0x000000004167cc88        0x8 arch/arm/cpu/armv7/start.o
 .rel.rodata.usb_storage_ops
                0x000000004167cc90       0x10 arch/arm/cpu/armv7/start.o
 .rel.rodata.uimage_arch
                0x000000004167cca0      0x1a0 arch/arm/cpu/armv7/start.o
 .rel.rodata.uimage_comp
                0x000000004167ce40       0x70 arch/arm/cpu/armv7/start.o
 .rel.rodata.uimage_os
                0x000000004167ceb0       0xa0 arch/arm/cpu/armv7/start.o
 .rel.rodata.uimage_type
                0x000000004167cf50      0x200 arch/arm/cpu/armv7/start.o
 .rel.rodata.s_lcm_mcu_st7796s_info
                0x000000004167d150       0x18 arch/arm/cpu/armv7/start.o
 .rel.rodata.s_lcm_mcu16_st7796s_info
                0x000000004167d168       0x18 arch/arm/cpu/armv7/start.o
 .rel.rodata.s_lcm_mipi_ek79007_info
                0x000000004167d180       0x18 arch/arm/cpu/armv7/start.o
 .rel.rodata.s_lcm_mipi_st7701s_info
                0x000000004167d198       0x18 arch/arm/cpu/armv7/start.o
 .rel.data.hash_algo
                0x000000004167d1b0       0x28 arch/arm/cpu/armv7/start.o
 .rel.data.init_sequence_r
                0x000000004167d1d8       0xe0 arch/arm/cpu/armv7/start.o
 .rel.data.of_busses
                0x000000004167d2b8       0x28 arch/arm/cpu/armv7/start.o
 .rel.data.usb_scan_list
                0x000000004167d2e0       0x10 arch/arm/cpu/armv7/start.o
 .rel.u_boot_list_2_driver_2_usb_generic_hub
                0x000000004167d2f0       0x10 arch/arm/cpu/armv7/start.o
 .rel.u_boot_list_2_uclass_2_usb_hub
                0x000000004167d300       0x20 arch/arm/cpu/armv7/start.o
 .rel.u_boot_list_2_usb_driver_entry_2_usb_generic_hub
                0x000000004167d320       0x10 arch/arm/cpu/armv7/start.o
 .rel.u_boot_list_2_driver_2_usb_mass_storage
                0x000000004167d330       0x18 arch/arm/cpu/armv7/start.o
 .rel.u_boot_list_2_driver_2_usb_storage_blk
                0x000000004167d348       0x10 arch/arm/cpu/armv7/start.o
 .rel.u_boot_list_2_uclass_2_usb_mass_storage
                0x000000004167d358        0x8 arch/arm/cpu/armv7/start.o
 .rel.u_boot_list_2_usb_driver_entry_2_usb_mass_storage
                0x000000004167d360       0x10 arch/arm/cpu/armv7/start.o
 .rel.u_boot_list_2_env_clbk_2_console
                0x000000004167d370       0x10 arch/arm/cpu/armv7/start.o
 .rel.data.av_  0x000000004167d380      0x800 arch/arm/cpu/armv7/start.o
 .rel.u_boot_list_2_env_clbk_2_loadaddr
                0x000000004167db80       0x10 arch/arm/cpu/armv7/start.o
 .rel.data.stdio_names
                0x000000004167db90       0x18 arch/arm/cpu/armv7/start.o
 .rel.u_boot_list_2_cmd_2_logo
                0x000000004167dba8       0x20 arch/arm/cpu/armv7/start.o
 .rel.data.lcm_main_tab
                0x000000004167dbc8       0x30 arch/arm/cpu/armv7/start.o
 .rel.data.lcm_sub_tab
                0x000000004167dbf8       0x28 arch/arm/cpu/armv7/start.o
 .rel.data.s_lcm_tab
                0x000000004167dc20       0x10 arch/arm/cpu/armv7/start.o
 .rel.data._s_lcm_mcu_st7796s_ctrl
                0x000000004167dc30       0x38 arch/arm/cpu/armv7/start.o
 .rel.data._s_lcm_mcu_st7796s_info
                0x000000004167dc68       0x10 arch/arm/cpu/armv7/start.o
 .rel.data._s_lcm_mcu16_st7796s_ctrl
                0x000000004167dc78       0x38 arch/arm/cpu/armv7/start.o
 .rel.data._s_lcm_mcu16_st7796s_info
                0x000000004167dcb0       0x10 arch/arm/cpu/armv7/start.o
 .rel.data.s_lcm_rgb_at070tn94_ctrl
                0x000000004167dcc0       0x38 arch/arm/cpu/armv7/start.o
 .rel.data.s_lcm_rgb_at070tn94_info
                0x000000004167dcf8       0x18 arch/arm/cpu/armv7/start.o
 .rel.data.s_lcm_rgb_at070tn94_rgb_info
                0x000000004167dd10        0x8 arch/arm/cpu/armv7/start.o
 .rel.data.s_lcm_rgb18_at070tn94_ctrl
                0x000000004167dd18       0x38 arch/arm/cpu/armv7/start.o
 .rel.data.s_lcm_rgb18_at070tn94_info
                0x000000004167dd50       0x18 arch/arm/cpu/armv7/start.o
 .rel.data.s_lcm_rgb18_at070tn94_rgb_info
                0x000000004167dd68        0x8 arch/arm/cpu/armv7/start.o
 .rel.data._s_lcm_mipi_ek79007_ctrl
                0x000000004167dd70       0x38 arch/arm/cpu/armv7/start.o
 .rel.data._s_lcm_mipi_ek79007_mipi_info
                0x000000004167dda8        0x8 arch/arm/cpu/armv7/start.o
 .rel.data.s_lcm_mipi_st7701s_ctrl
                0x000000004167ddb0       0x38 arch/arm/cpu/armv7/start.o
 .rel.data.s_lcm_mipi_st7701s_mipi_info
                0x000000004167dde8        0x8 arch/arm/cpu/armv7/start.o
 .rel.data.s_lcm_pin_table
                0x000000004167ddf0       0x40 arch/arm/cpu/armv7/start.o
 .rel.data.lcm_sfc_rw
                0x000000004167de30       0x18 arch/arm/cpu/armv7/start.o
 .rel.text.dev_print
                0x000000004167de48      0x128 arch/arm/cpu/armv7/start.o
 .rel.text.part_init
                0x000000004167df70       0x10 arch/arm/cpu/armv7/start.o
 .rel.text.part_print
                0x000000004167df80       0xd0 arch/arm/cpu/armv7/start.o
 .rel.text.part_get_info
                0x000000004167e050       0x10 arch/arm/cpu/armv7/start.o
 .rel.text.blk_get_device_by_str
                0x000000004167e060       0x18 arch/arm/cpu/armv7/start.o
 .rel.text.blk_get_device_part_str
                0x000000004167e078       0x60 arch/arm/cpu/armv7/start.o
 .rel.text.part_set_generic_name
                0x000000004167e0d8       0x18 arch/arm/cpu/armv7/start.o
 .rel.text.test_block_type
                0x000000004167e0f0       0x10 arch/arm/cpu/armv7/start.o
 .rel.text.print_partition_extended
                0x000000004167e100       0x30 arch/arm/cpu/armv7/start.o
 .rel.text.part_print_dos
                0x000000004167e130        0x8 arch/arm/cpu/armv7/start.o
 .rel.text.part_get_info_extended.constprop.0
                0x000000004167e138       0x18 arch/arm/cpu/armv7/start.o
 .rel.rodata.CSWTCH.28
                0x000000004167e150       0x40 arch/arm/cpu/armv7/start.o
 .rel.u_boot_list_2_part_driver_2_dos
                0x000000004167e190       0x20 arch/arm/cpu/armv7/start.o
 .rel.text.device_bind_common.constprop.0
                0x000000004167e1b0       0x10 arch/arm/cpu/armv7/start.o
 .rel.text.device_probe
                0x000000004167e1c0       0x10 arch/arm/cpu/armv7/start.o
 .rel.text.dev_get_platdata
                0x000000004167e1d0       0x10 arch/arm/cpu/armv7/start.o
 .rel.text.dev_get_parent_platdata
                0x000000004167e1e0       0x10 arch/arm/cpu/armv7/start.o
 .rel.text.dev_get_uclass_platdata
                0x000000004167e1f0       0x10 arch/arm/cpu/armv7/start.o
 .rel.text.dev_get_priv
                0x000000004167e200       0x10 arch/arm/cpu/armv7/start.o
 .rel.text.dev_get_uclass_priv
                0x000000004167e210       0x10 arch/arm/cpu/armv7/start.o
 .rel.text.dev_get_parent_priv
                0x000000004167e220       0x10 arch/arm/cpu/armv7/start.o
 .rel.text.devfdt_get_addr_index
                0x000000004167e230        0x8 arch/arm/cpu/armv7/start.o
 .rel.text.lists_driver_lookup_name
                0x000000004167e238       0x10 arch/arm/cpu/armv7/start.o
 .rel.text.lists_uclass_lookup
                0x000000004167e248       0x10 arch/arm/cpu/armv7/start.o
 .rel.text.lists_bind_drivers
                0x000000004167e258       0x18 arch/arm/cpu/armv7/start.o
 .rel.text.lists_bind_fdt
                0x000000004167e270       0x28 arch/arm/cpu/armv7/start.o
 .rel.text.dm_scan_fdt_node
                0x000000004167e298        0x8 arch/arm/cpu/armv7/start.o
 .rel.text.dm_root
                0x000000004167e2a0        0x8 arch/arm/cpu/armv7/start.o
 .rel.text.dm_init
                0x000000004167e2a8       0x10 arch/arm/cpu/armv7/start.o
 .rel.text.dm_scan_platdata
                0x000000004167e2b8        0x8 arch/arm/cpu/armv7/start.o
 .rel.text.uclass_resolve_seq
                0x000000004167e2c0        0x8 arch/arm/cpu/armv7/start.o
 .rel.text.dm_fdt_pre_reloc
                0x000000004167e2c8       0x18 arch/arm/cpu/armv7/start.o
 .rel.text.device_remove
                0x000000004167e2e0       0x20 arch/arm/cpu/armv7/start.o
 .rel.text.simple_bus_post_bind
                0x000000004167e300        0x8 arch/arm/cpu/armv7/start.o
 .rel.text.show_devices
                0x000000004167e308       0x30 arch/arm/cpu/armv7/start.o
 .rel.text.dm_dump_all
                0x000000004167e338       0x10 arch/arm/cpu/armv7/start.o
 .rel.text.dm_dump_uclass
                0x000000004167e348       0x20 arch/arm/cpu/armv7/start.o
 .rel.text.blk_get_if_type_name
                0x000000004167e368        0x8 arch/arm/cpu/armv7/start.o
 .rel.text.blk_get_devnum_by_typename
                0x000000004167e370       0x10 arch/arm/cpu/armv7/start.o
 .rel.text.blk_list_devices
                0x000000004167e380        0x8 arch/arm/cpu/armv7/start.o
 .rel.text.blk_print_device_num
                0x000000004167e388        0x8 arch/arm/cpu/armv7/start.o
 .rel.text.blk_show_device
                0x000000004167e390       0x10 arch/arm/cpu/armv7/start.o
 .rel.text.blk_create_devicef
                0x000000004167e3a0        0x8 arch/arm/cpu/armv7/start.o
 .rel.text.dump_efuses
                0x000000004167e3a8       0x20 arch/arm/cpu/armv7/start.o
 .rel.text.write_efuse
                0x000000004167e3c8       0x18 arch/arm/cpu/armv7/start.o
 .rel.text.efuse_init
                0x000000004167e3e0        0x8 arch/arm/cpu/armv7/start.o
 .rel.text.mc_efuse_read
                0x000000004167e3e8       0x20 arch/arm/cpu/armv7/start.o
 .rel.text.mc_efuse_write
                0x000000004167e408       0x20 arch/arm/cpu/armv7/start.o
 .rel.text.mc_aes_call
                0x000000004167e428      0x190 arch/arm/cpu/armv7/start.o
 .rel.text.aes_test
                0x000000004167e5b8      0x198 arch/arm/cpu/armv7/start.o
 .rel.text.mmc_set_capacity
                0x000000004167e750       0x40 arch/arm/cpu/armv7/start.o
 .rel.text.mmc_send_status
                0x000000004167e790       0x10 arch/arm/cpu/armv7/start.o
 .rel.text.mmc_bread
                0x000000004167e7a0       0x10 arch/arm/cpu/armv7/start.o
 .rel.text.mmc_hwpart_config
                0x000000004167e7b0       0x48 arch/arm/cpu/armv7/start.o
 .rel.text.mmc_startup
                0x000000004167e7f8       0xe0 arch/arm/cpu/armv7/start.o
 .rel.text.mmc_start_init
                0x000000004167e8d8       0x10 arch/arm/cpu/armv7/start.o
 .rel.text.mmc_init
                0x000000004167e8e8       0x10 arch/arm/cpu/armv7/start.o
 .rel.text.mmc_initialize
                0x000000004167e8f8       0x10 arch/arm/cpu/armv7/start.o
 .rel.text.find_mmc_device
                0x000000004167e908        0x8 arch/arm/cpu/armv7/start.o
 .rel.text.print_mmc_devices
                0x000000004167e910       0x38 arch/arm/cpu/armv7/start.o
 .rel.text.mmc_bind
                0x000000004167e948       0x10 arch/arm/cpu/armv7/start.o
 .rel.text.mmc_berase
                0x000000004167e958       0x10 arch/arm/cpu/armv7/start.o
 .rel.text.mmc_bwrite
                0x000000004167e968       0x18 arch/arm/cpu/armv7/start.o
 .rel.text.mc_dwmmc_probe
                0x000000004167e980       0x10 arch/arm/cpu/armv7/start.o
 .rel.text.rtc_calc_weekday
                0x000000004167e990        0x8 arch/arm/cpu/armv7/start.o
 .rel.text.rtc_to_tm
                0x000000004167e998        0x8 arch/arm/cpu/armv7/start.o
 .rel.text.molchip_rtc_get
                0x000000004167e9a0        0x8 arch/arm/cpu/armv7/start.o
 .rel.text.mc_rtc_core_write
                0x000000004167e9a8        0x8 arch/arm/cpu/armv7/start.o
 .rel.text.molchip_rtc_set
                0x000000004167e9b0       0x10 arch/arm/cpu/armv7/start.o
 .rel.text.molchip_probe
                0x000000004167e9c0       0x20 arch/arm/cpu/armv7/start.o
 .rel.text.molchip_pwm_open
                0x000000004167e9e0       0x10 arch/arm/cpu/armv7/start.o
 .rel.text.molchip_pwm_set_config
                0x000000004167e9f0       0x40 arch/arm/cpu/armv7/start.o
 .rel.text.molchip_pwm_probe
                0x000000004167ea30       0x20 arch/arm/cpu/armv7/start.o
 .rel.text.pwm_test
                0x000000004167ea50       0x38 arch/arm/cpu/armv7/start.o
 .rel.rodata.root_info
                0x000000004167ea88        0x8 arch/arm/cpu/armv7/start.o
 .rel.rodata.generic_simple_bus_ids
                0x000000004167ea90       0x10 arch/arm/cpu/armv7/start.o
 .rel.rodata.if_typename_str
                0x000000004167eaa0       0x58 arch/arm/cpu/armv7/start.o
 .rel.rodata.mc_efuse_ids
                0x000000004167eaf8        0x8 arch/arm/cpu/armv7/start.o
 .rel.rodata.mc_efuse_ops
                0x000000004167eb00       0x10 arch/arm/cpu/armv7/start.o
 .rel.rodata.mc_aes_ids
                0x000000004167eb10        0x8 arch/arm/cpu/armv7/start.o
 .rel.rodata.mmc_blk_ops
                0x000000004167eb18       0x20 arch/arm/cpu/armv7/start.o
 .rel.rodata.dm_dwmci_ops
                0x000000004167eb38       0x10 arch/arm/cpu/armv7/start.o
 .rel.rodata.mc_dwmmc_ids
                0x000000004167eb48        0x8 arch/arm/cpu/armv7/start.o
 .rel.rodata.fy00_data
                0x000000004167eb50        0x8 arch/arm/cpu/armv7/start.o
 .rel.rodata.molchip_rtc_ids
                0x000000004167eb58       0x10 arch/arm/cpu/armv7/start.o
 .rel.rodata.molchip_rtc_ops
                0x000000004167eb68       0x18 arch/arm/cpu/armv7/start.o
 .rel.rodata.molchip_pwm_match
                0x000000004167eb80        0x8 arch/arm/cpu/armv7/start.o
 .rel.rodata.molchip_pwm_ops
                0x000000004167eb88       0x18 arch/arm/cpu/armv7/start.o
 .rel.u_boot_list_2_driver_2_root_driver
                0x000000004167eba0        0x8 arch/arm/cpu/armv7/start.o
 .rel.u_boot_list_2_uclass_2_root
                0x000000004167eba8        0x8 arch/arm/cpu/armv7/start.o
 .rel.u_boot_list_2_driver_2_simple_bus_drv
                0x000000004167ebb0       0x10 arch/arm/cpu/armv7/start.o
 .rel.u_boot_list_2_uclass_2_simple_bus
                0x000000004167ebc0       0x10 arch/arm/cpu/armv7/start.o
 .rel.u_boot_list_2_uclass_2_blk
                0x000000004167ebd0        0x8 arch/arm/cpu/armv7/start.o
 .rel.u_boot_list_2_uclass_2_misc
                0x000000004167ebd8        0x8 arch/arm/cpu/armv7/start.o
 .rel.u_boot_list_2_cmd_2_dump_efuse
                0x000000004167ebe0       0x20 arch/arm/cpu/armv7/start.o
 .rel.u_boot_list_2_cmd_2_efuse_write
                0x000000004167ec00       0x20 arch/arm/cpu/armv7/start.o
 .rel.u_boot_list_2_driver_2_mc_efuse
                0x000000004167ec20       0x28 arch/arm/cpu/armv7/start.o
 .rel.u_boot_list_2_cmd_2_test_aes
                0x000000004167ec48       0x20 arch/arm/cpu/armv7/start.o
 .rel.u_boot_list_2_driver_2_mc_aes
                0x000000004167ec68       0x18 arch/arm/cpu/armv7/start.o
 .rel.u_boot_list_2_driver_2_mmc
                0x000000004167ec80        0x8 arch/arm/cpu/armv7/start.o
 .rel.u_boot_list_2_driver_2_mmc_blk
                0x000000004167ec88       0x18 arch/arm/cpu/armv7/start.o
 .rel.u_boot_list_2_uclass_2_mmc
                0x000000004167eca0        0x8 arch/arm/cpu/armv7/start.o
 .rel.u_boot_list_2_driver_2_mc_sdmmc_dev
                0x000000004167eca8       0x28 arch/arm/cpu/armv7/start.o
 .rel.u_boot_list_2_uclass_2_rtc
                0x000000004167ecd0        0x8 arch/arm/cpu/armv7/start.o
 .rel.u_boot_list_2_driver_2_rtc_molchip
                0x000000004167ecd8       0x28 arch/arm/cpu/armv7/start.o
 .rel.u_boot_list_2_uclass_2_pwm
                0x000000004167ed00        0x8 arch/arm/cpu/armv7/start.o
 .rel.u_boot_list_2_cmd_2_test_pwm
                0x000000004167ed08       0x20 arch/arm/cpu/armv7/start.o
 .rel.u_boot_list_2_driver_2_molchip_pwm
                0x000000004167ed28       0x20 arch/arm/cpu/armv7/start.o
 .rel.text.gpio_set_mask.isra.0
                0x000000004167ed48        0x8 arch/arm/cpu/armv7/start.o
 .rel.text.gpio_set_value
                0x000000004167ed50        0x8 arch/arm/cpu/armv7/start.o
 .rel.text.gpio_direction_output
                0x000000004167ed58        0x8 arch/arm/cpu/armv7/start.o
 .rel.text.gpio_direction_input
                0x000000004167ed60        0x8 arch/arm/cpu/armv7/start.o
 .rel.text.gpio_get_value
                0x000000004167ed68        0x8 arch/arm/cpu/armv7/start.o
 .rel.text.gpio_request
                0x000000004167ed70        0x8 arch/arm/cpu/armv7/start.o
 .rel.text.mtd_arg_off
                0x000000004167ed78       0x10 arch/arm/cpu/armv7/start.o
 .rel.text.mtd_arg_off_size
                0x000000004167ed88       0x18 arch/arm/cpu/armv7/start.o
 .rel.u_boot_list_2_uclass_2_mtd
                0x000000004167eda0        0x8 arch/arm/cpu/armv7/start.o
 .rel.text.spi_nor_read_mode
                0x000000004167eda8       0x18 arch/arm/cpu/armv7/start.o
 .rel.text.spi_quad_enable
                0x000000004167edc0       0x18 arch/arm/cpu/armv7/start.o
 .rel.text.spi_mx_quad_enable
                0x000000004167edd8       0x18 arch/arm/cpu/armv7/start.o
 .rel.text.spi_giga_quad_enable
                0x000000004167edf0       0x18 arch/arm/cpu/armv7/start.o
 .rel.text.spi_spansion_quad_enable
                0x000000004167ee08       0x18 arch/arm/cpu/armv7/start.o
 .rel.text.spi_nor_program
                0x000000004167ee20       0x18 arch/arm/cpu/armv7/start.o
 .rel.text.spi_dma_linklist_read_start
                0x000000004167ee38        0x8 arch/arm/cpu/armv7/start.o
 .rel.text.spi_dma_linklist_read_stop
                0x000000004167ee40        0x8 arch/arm/cpu/armv7/start.o
 .rel.text.spi_nor_read
                0x000000004167ee48       0x10 arch/arm/cpu/armv7/start.o
 .rel.text.spi_nor_cont_read_done
                0x000000004167ee58       0x10 arch/arm/cpu/armv7/start.o
 .rel.text.spi_nor_erase
                0x000000004167ee68        0x8 arch/arm/cpu/armv7/start.o
 .rel.text.spi_nor_read_id
                0x000000004167ee70       0x18 arch/arm/cpu/armv7/start.o
 .rel.text.spi_nor_init_params
                0x000000004167ee88       0x20 arch/arm/cpu/armv7/start.o
 .rel.text.spi_nor_hwcaps_read2cmd
                0x000000004167eea8        0x8 arch/arm/cpu/armv7/start.o
 .rel.text.spi_nor_hwcaps_pp2cmd
                0x000000004167eeb0        0x8 arch/arm/cpu/armv7/start.o
 .rel.text.spi_nor_init
                0x000000004167eeb8        0x8 arch/arm/cpu/armv7/start.o
 .rel.text.spi_nor_setup
                0x000000004167eec0       0x20 arch/arm/cpu/armv7/start.o
 .rel.text.spi_nor_scan
                0x000000004167eee0       0x20 arch/arm/cpu/armv7/start.o
 .rel.text.spi_nor_flash
                0x000000004167ef00       0x18 arch/arm/cpu/armv7/start.o
 .rel.text.spi_nand_flash
                0x000000004167ef18       0x20 arch/arm/cpu/armv7/start.o
 .rel.data.spi_nor_ids
                0x000000004167ef38      0x110 arch/arm/cpu/armv7/start.o
 .rel.u_boot_list_2_cmd_2_sfrd
                0x000000004167f048       0x20 arch/arm/cpu/armv7/start.o
 .rel.u_boot_list_2_cmd_2_sfrm
                0x000000004167f068       0x20 arch/arm/cpu/armv7/start.o
 .rel.text.designware_eth_send
                0x000000004167f088        0x8 arch/arm/cpu/armv7/start.o
 .rel.text.designware_eth_ofdata_to_platdata
                0x000000004167f090       0x10 arch/arm/cpu/armv7/start.o
 .rel.text.designware_eth_probe
                0x000000004167f0a0       0x20 arch/arm/cpu/armv7/start.o
 .rel.text.designware_eth_init
                0x000000004167f0c0       0x40 arch/arm/cpu/armv7/start.o
 .rel.text.nc_wait_arp_handler
                0x000000004167f100        0x8 arch/arm/cpu/armv7/start.o
 .rel.text.nc_handler
                0x000000004167f108       0x10 arch/arm/cpu/armv7/start.o
 .rel.text.nc_timeout_handler
                0x000000004167f118        0x8 arch/arm/cpu/armv7/start.o
 .rel.text.is_broadcast
                0x000000004167f120       0x28 arch/arm/cpu/armv7/start.o
 .rel.text.nc_stdio_getc
                0x000000004167f148       0x28 arch/arm/cpu/armv7/start.o
 .rel.text.nc_send_packet
                0x000000004167f170       0x50 arch/arm/cpu/armv7/start.o
 .rel.text.nc_stdio_putc
                0x000000004167f1c0        0x8 arch/arm/cpu/armv7/start.o
 .rel.text.refresh_settings_from_env
                0x000000004167f1c8       0x38 arch/arm/cpu/armv7/start.o
 .rel.text.nc_stdio_start
                0x000000004167f200       0x10 arch/arm/cpu/armv7/start.o
 .rel.text.nc_stdio_tstc
                0x000000004167f210       0x18 arch/arm/cpu/armv7/start.o
 .rel.text.nc_stdio_puts
                0x000000004167f228        0x8 arch/arm/cpu/armv7/start.o
 .rel.text.nc_start
                0x000000004167f230       0x60 arch/arm/cpu/armv7/start.o
 .rel.text.nc_input_packet
                0x000000004167f290       0x28 arch/arm/cpu/armv7/start.o
 .rel.text.drv_nc_init
                0x000000004167f2b8       0x30 arch/arm/cpu/armv7/start.o
 .rel.text.qos_probe_resources_core
                0x000000004167f2e8       0x10 arch/arm/cpu/armv7/start.o
 .rel.text.qos_mdio_wait_idle.isra.0
                0x000000004167f2f8        0x8 arch/arm/cpu/armv7/start.o
 .rel.text.qos_mdio_read
                0x000000004167f300       0x20 arch/arm/cpu/armv7/start.o
 .rel.text.qos_mdio_write
                0x000000004167f320       0x20 arch/arm/cpu/armv7/start.o
 .rel.text.bit_modify_rdata.isra.0
                0x000000004167f340        0x8 arch/arm/cpu/armv7/start.o
 .rel.text.qos_probe
                0x000000004167f348      0x118 arch/arm/cpu/armv7/start.o
 .rel.text.qos_start
                0x000000004167f460       0x70 arch/arm/cpu/armv7/start.o
 .rel.text.change_loopback
                0x000000004167f4d0       0x40 arch/arm/cpu/armv7/start.o
 .rel.text.init_gmac
                0x000000004167f510       0x38 arch/arm/cpu/armv7/start.o
 .rel.text.scan_function.isra.0
                0x000000004167f548      0x180 arch/arm/cpu/armv7/start.o
 .rel.text.do_dpll_scan
                0x000000004167f6c8       0x98 arch/arm/cpu/armv7/start.o
 .rel.text.gmac_loopback_autoscan
                0x000000004167f760       0xd0 arch/arm/cpu/armv7/start.o
 .rel.rodata.designware_eth_ids
                0x000000004167f830       0x28 arch/arm/cpu/armv7/start.o
 .rel.rodata.designware_eth_ops
                0x000000004167f858       0x30 arch/arm/cpu/armv7/start.o
 .rel.rodata.qos_ids
                0x000000004167f888        0x8 arch/arm/cpu/armv7/start.o
 .rel.rodata.qos_ops
                0x000000004167f890       0x30 arch/arm/cpu/armv7/start.o
 .rel.u_boot_list_2_driver_2_eth_designware
                0x000000004167f8c0       0x38 arch/arm/cpu/armv7/start.o
 .rel.u_boot_list_2_pci_driver_entry_2_eth_designware
                0x000000004167f8f8       0x10 arch/arm/cpu/armv7/start.o
 .rel.u_boot_list_2_driver_2_eth_molchip_eqos
                0x000000004167f908       0x28 arch/arm/cpu/armv7/start.o
 .rel.u_boot_list_2_cmd_2_gmac_dpll_scan
                0x000000004167f930       0x20 arch/arm/cpu/armv7/start.o
 .rel.text.genphy_update_link
                0x000000004167f950       0x28 arch/arm/cpu/armv7/start.o
 .rel.text.phy_register
                0x000000004167f978        0x8 arch/arm/cpu/armv7/start.o
 .rel.text.get_phy_device_by_mask
                0x000000004167f980       0x18 arch/arm/cpu/armv7/start.o
 .rel.text.phy_reset
                0x000000004167f998        0x8 arch/arm/cpu/armv7/start.o
 .rel.text.phy_connect_dev
                0x000000004167f9a0        0x8 arch/arm/cpu/armv7/start.o
 .rel.text.phy_connect
                0x000000004167f9a8        0x8 arch/arm/cpu/armv7/start.o
 .rel.text.phy_get_interface_by_name
                0x000000004167f9b0        0x8 arch/arm/cpu/armv7/start.o
 .rel.text.rtl8211x_startup
                0x000000004167f9b8       0x18 arch/arm/cpu/armv7/start.o
 .rel.text.rtl8211f_startup
                0x000000004167f9d0        0x8 arch/arm/cpu/armv7/start.o
 .rel.text.phy_realtek_init
                0x000000004167f9d8       0x28 arch/arm/cpu/armv7/start.o
 .rel.text.mochip7c01_config
                0x000000004167fa00        0x8 arch/arm/cpu/armv7/start.o
 .rel.text.auto_find_phy
                0x000000004167fa08       0x10 arch/arm/cpu/armv7/start.o
 .rel.text.phy_molchip_init
                0x000000004167fa18        0x8 arch/arm/cpu/armv7/start.o
 .rel.rodata.phy_interface_strings
                0x000000004167fa20       0x88 arch/arm/cpu/armv7/start.o
 .rel.data.genphy_driver
                0x000000004167faa8       0x20 arch/arm/cpu/armv7/start.o
 .rel.data.phy_drivers
                0x000000004167fac8       0x10 arch/arm/cpu/armv7/start.o
 .rel.data.RTL8201F_driver
                0x000000004167fad8       0x20 arch/arm/cpu/armv7/start.o
 .rel.data.RTL8211B_driver
                0x000000004167faf8       0x28 arch/arm/cpu/armv7/start.o
 .rel.data.RTL8211DN_driver
                0x000000004167fb20       0x20 arch/arm/cpu/armv7/start.o
 .rel.data.RTL8211E_driver
                0x000000004167fb40       0x20 arch/arm/cpu/armv7/start.o
 .rel.data.RTL8211F_driver
                0x000000004167fb60       0x20 arch/arm/cpu/armv7/start.o
 .rel.data.MOL7c01_driver
                0x000000004167fb80       0x28 arch/arm/cpu/armv7/start.o
 .rel.text.serial_post_probe
                0x000000004167fba8       0x20 arch/arm/cpu/armv7/start.o
 .rel.text.serial_init
                0x000000004167fbc8       0x18 arch/arm/cpu/armv7/start.o
 .rel.text.on_baudrate
                0x000000004167fbe0       0x18 arch/arm/cpu/armv7/start.o
 .rel.text.ts01_serial_ofdata_to_platdata
                0x000000004167fbf8        0x8 arch/arm/cpu/armv7/start.o
 .rel.rodata.ts01_serial_ids
                0x000000004167fc00        0x8 arch/arm/cpu/armv7/start.o
 .rel.u_boot_list_2_env_clbk_2_baudrate
                0x000000004167fc08       0x10 arch/arm/cpu/armv7/start.o
 .rel.u_boot_list_2_uclass_2_serial
                0x000000004167fc18       0x18 arch/arm/cpu/armv7/start.o
 .rel.data.ts01_serial_ops
                0x000000004167fc30       0x20 arch/arm/cpu/armv7/start.o
 .rel.u_boot_list_2_driver_2_serial_ts01
                0x000000004167fc50       0x28 arch/arm/cpu/armv7/start.o
 .rel.text.nfc_cmd_set_reg_set
                0x000000004167fc78        0x8 arch/arm/cpu/armv7/start.o
 .rel.text.usb_get_dr_mode
                0x000000004167fc80       0x28 arch/arm/cpu/armv7/start.o
 .rel.rodata.usb_dr_modes
                0x000000004167fca8       0x20 arch/arm/cpu/armv7/start.o
 .rel.text.usb_ether_receive
                0x000000004167fcc8        0x8 arch/arm/cpu/armv7/start.o
 .rel.text.asix_eth_start
                0x000000004167fcd0       0x18 arch/arm/cpu/armv7/start.o
 .rel.rodata.asix_eth_ops
                0x000000004167fce8       0x30 arch/arm/cpu/armv7/start.o
 .rel.u_boot_list_2_driver_2_asix_eth
                0x000000004167fd18       0x18 arch/arm/cpu/armv7/start.o
 .rel.u_boot_list_2_usb_driver_entry_2_asix_eth
                0x000000004167fd30       0x10 arch/arm/cpu/armv7/start.o
 .rel.text.usb_child_post_bind
                0x000000004167fd40       0x10 arch/arm/cpu/armv7/start.o
 .rel.text.usb_disable_asynch
                0x000000004167fd50        0x8 arch/arm/cpu/armv7/start.o
 .rel.text.usb_stop
                0x000000004167fd58        0x8 arch/arm/cpu/armv7/start.o
 .rel.text.usb_scan_device
                0x000000004167fd60       0x20 arch/arm/cpu/armv7/start.o
 .rel.text.usb_scan_bus.constprop.0
                0x000000004167fd80       0x20 arch/arm/cpu/armv7/start.o
 .rel.text.usb_init
                0x000000004167fda0       0x38 arch/arm/cpu/armv7/start.o
 .rel.text.xhci_reset
                0x000000004167fdd8        0x8 arch/arm/cpu/armv7/start.o
 .rel.text.xhci_submit_bulk_msg
                0x000000004167fde0        0x8 arch/arm/cpu/armv7/start.o
 .rel.text.xhci_configure_endpoints
                0x000000004167fde8       0x38 arch/arm/cpu/armv7/start.o
 .rel.text.xhci_update_hub_device
                0x000000004167fe20       0x20 arch/arm/cpu/armv7/start.o
 .rel.text.xhci_alloc_device
                0x000000004167fe40       0x28 arch/arm/cpu/armv7/start.o
 .rel.text.xhci_submit_control_msg
                0x000000004167fe68       0xa8 arch/arm/cpu/armv7/start.o
 .rel.text.xhci_register
                0x000000004167ff10       0x20 arch/arm/cpu/armv7/start.o
 .rel.text.xhci_ring_free
                0x000000004167ff30       0x20 arch/arm/cpu/armv7/start.o
 .rel.text.xhci_flush_cache
                0x000000004167ff50       0x20 arch/arm/cpu/armv7/start.o
 .rel.text.xhci_malloc
                0x000000004167ff70       0x20 arch/arm/cpu/armv7/start.o
 .rel.text.xhci_segment_alloc
                0x000000004167ff90       0x20 arch/arm/cpu/armv7/start.o
 .rel.text.xhci_alloc_container_ctx
                0x000000004167ffb0       0x20 arch/arm/cpu/armv7/start.o
 .rel.text.xhci_inval_cache
                0x000000004167ffd0       0x20 arch/arm/cpu/armv7/start.o
 .rel.text.xhci_ring_alloc
                0x000000004167fff0       0x20 arch/arm/cpu/armv7/start.o
 .rel.text.xhci_alloc_virt_device
                0x0000000041680010       0x20 arch/arm/cpu/armv7/start.o
 .rel.text.xhci_mem_init
                0x0000000041680030       0x28 arch/arm/cpu/armv7/start.o
 .rel.text.xhci_get_input_control_ctx
                0x0000000041680058       0x20 arch/arm/cpu/armv7/start.o
 .rel.text.xhci_setup_addressable_virt_dev
                0x0000000041680078       0x48 arch/arm/cpu/armv7/start.o
 .rel.text.record_transfer_result
                0x00000000416800c0       0x88 arch/arm/cpu/armv7/start.o
 .rel.text.prepare_ring
                0x0000000041680148       0x48 arch/arm/cpu/armv7/start.o
 .rel.text.xhci_queue_command
                0x0000000041680190       0x20 arch/arm/cpu/armv7/start.o
 .rel.text.xhci_wait_for_event
                0x00000000416801b0       0x30 arch/arm/cpu/armv7/start.o
 .rel.text.abort_td
                0x00000000416801e0       0x20 arch/arm/cpu/armv7/start.o
 .rel.text.xhci_bulk_tx
                0x0000000041680200       0x20 arch/arm/cpu/armv7/start.o
 .rel.text.xhci_ctrl_tx
                0x0000000041680220       0x20 arch/arm/cpu/armv7/start.o
 .rel.text.dwc3_core_init
                0x0000000041680240        0x8 arch/arm/cpu/armv7/start.o
 .rel.rodata.CSWTCH.43
                0x0000000041680248       0x18 arch/arm/cpu/armv7/start.o
 .rel.rodata.xhci_dwc3_ids
                0x0000000041680260        0x8 arch/arm/cpu/armv7/start.o
 .rel.u_boot_list_2_driver_2_usb_dev_generic_drv
                0x0000000041680268        0x8 arch/arm/cpu/armv7/start.o
 .rel.u_boot_list_2_uclass_2_usb
                0x0000000041680270       0x20 arch/arm/cpu/armv7/start.o
 .rel.u_boot_list_2_uclass_2_usb_dev_generic
                0x0000000041680290        0x8 arch/arm/cpu/armv7/start.o
 .rel.data.xhci_usb_ops
                0x0000000041680298       0x28 arch/arm/cpu/armv7/start.o
 .rel.u_boot_list_2_driver_2_xhci_dwc3
                0x00000000416802c0       0x28 arch/arm/cpu/armv7/start.o
 .rel.text.molchip_usb3_enable_phy
                0x00000000416802e8        0x8 arch/arm/cpu/armv7/start.o
 .rel.text.set_default_env
                0x00000000416802f0       0x30 arch/arm/cpu/armv7/start.o
 .rel.text.set_default_vars
                0x0000000041680320       0x10 arch/arm/cpu/armv7/start.o
 .rel.text.env_import
                0x0000000041680330       0x38 arch/arm/cpu/armv7/start.o
 .rel.text.env_export
                0x0000000041680368       0x28 arch/arm/cpu/armv7/start.o
 .rel.text.env_relocate
                0x0000000041680390        0x8 arch/arm/cpu/armv7/start.o
 .rel.text.env_complete
                0x0000000041680398       0x18 arch/arm/cpu/armv7/start.o
 .rel.text.env_driver_lookup_default
                0x00000000416803b0       0x10 arch/arm/cpu/armv7/start.o
 .rel.text.env_get_char
                0x00000000416803c0        0x8 arch/arm/cpu/armv7/start.o
 .rel.text.env_init
                0x00000000416803c8        0x8 arch/arm/cpu/armv7/start.o
 .rel.text.env_attr_lookup
                0x00000000416803d0        0x8 arch/arm/cpu/armv7/start.o
 .rel.text.find_env_callback
                0x00000000416803d8       0x10 arch/arm/cpu/armv7/start.o
 .rel.text.on_callbacks
                0x00000000416803e8       0x20 arch/arm/cpu/armv7/start.o
 .rel.text.set_callback
                0x0000000041680408        0x8 arch/arm/cpu/armv7/start.o
 .rel.text.env_callback_init
                0x0000000041680410       0x20 arch/arm/cpu/armv7/start.o
 .rel.text.skip_num
                0x0000000041680430        0x8 arch/arm/cpu/armv7/start.o
 .rel.text.on_flags
                0x0000000041680438       0x20 arch/arm/cpu/armv7/start.o
 .rel.text.env_flags_parse_vartype
                0x0000000041680458       0x10 arch/arm/cpu/armv7/start.o
 .rel.text.env_flags_parse_varaccess
                0x0000000041680468       0x10 arch/arm/cpu/armv7/start.o
 .rel.text.env_parse_flags_to_bin
                0x0000000041680478        0x8 arch/arm/cpu/armv7/start.o
 .rel.text.set_flags
                0x0000000041680480        0x8 arch/arm/cpu/armv7/start.o
 .rel.text.env_flags_init
                0x0000000041680488       0x28 arch/arm/cpu/armv7/start.o
 .rel.text.env_flags_validate
                0x00000000416804b0       0x68 arch/arm/cpu/armv7/start.o
 .rel.text.setup_flash_device.part.0
                0x0000000041680518       0x10 arch/arm/cpu/armv7/start.o
 .rel.text.env_sf_load
                0x0000000041680528       0x18 arch/arm/cpu/armv7/start.o
 .rel.text.env_sf_save.part.0
                0x0000000041680540       0x20 arch/arm/cpu/armv7/start.o
 .rel.text.env_sf_save
                0x0000000041680560        0x8 arch/arm/cpu/armv7/start.o
 .rel.data.env_htab
                0x0000000041680568        0x8 arch/arm/cpu/armv7/start.o
 .rel.u_boot_list_2_env_clbk_2_callbacks
                0x0000000041680570       0x10 arch/arm/cpu/armv7/start.o
 .rel.u_boot_list_2_env_clbk_2_flags
                0x0000000041680580       0x10 arch/arm/cpu/armv7/start.o
 .rel.u_boot_list_2_env_driver_2_sf
                0x0000000041680590       0x18 arch/arm/cpu/armv7/start.o
 .rel.text.fs_probe_unsupported
                0x00000000416805a8        0x8 arch/arm/cpu/armv7/start.o
 .rel.text.fs_get_info
                0x00000000416805b0        0x8 arch/arm/cpu/armv7/start.o
 .rel.text.fs_close
                0x00000000416805b8        0x8 arch/arm/cpu/armv7/start.o
 .rel.text.fs_set_blk_dev
                0x00000000416805c0       0x20 arch/arm/cpu/armv7/start.o
 .rel.text.fs_ls
                0x00000000416805e0        0x8 arch/arm/cpu/armv7/start.o
 .rel.text.fs_size
                0x00000000416805e8        0x8 arch/arm/cpu/armv7/start.o
 .rel.text.fs_read
                0x00000000416805f0       0x10 arch/arm/cpu/armv7/start.o
 .rel.text.do_size
                0x0000000041680600        0x8 arch/arm/cpu/armv7/start.o
 .rel.text.do_load
                0x0000000041680608       0x50 arch/arm/cpu/armv7/start.o
 .rel.text.do_ls
                0x0000000041680658        0x8 arch/arm/cpu/armv7/start.o
 .rel.text.downcase
                0x0000000041680660        0x8 arch/arm/cpu/armv7/start.o
 .rel.text.disk_read
                0x0000000041680668       0x10 arch/arm/cpu/armv7/start.o
 .rel.text.get_cluster
                0x0000000041680678        0x8 arch/arm/cpu/armv7/start.o
 .rel.text.read_bootsectandvi
                0x0000000041680680       0x20 arch/arm/cpu/armv7/start.o
 .rel.text.disk_write
                0x00000000416806a0       0x20 arch/arm/cpu/armv7/start.o
 .rel.text.flush_dirty_fat_buffer
                0x00000000416806c0        0x8 arch/arm/cpu/armv7/start.o
 .rel.text.get_fatent
                0x00000000416806c8        0x8 arch/arm/cpu/armv7/start.o
 .rel.text.set_cluster
                0x00000000416806d0        0x8 arch/arm/cpu/armv7/start.o
 .rel.text.set_name
                0x00000000416806d8        0x8 arch/arm/cpu/armv7/start.o
 .rel.text.check_overflow
                0x00000000416806e0        0x8 arch/arm/cpu/armv7/start.o
 .rel.text.get_vfatname.constprop.0.isra.0
                0x00000000416806e8       0x10 arch/arm/cpu/armv7/start.o
 .rel.text.flush_dir_table.constprop.0
                0x00000000416806f8       0x20 arch/arm/cpu/armv7/start.o
 .rel.text.do_fat_write
                0x0000000041680718       0x80 arch/arm/cpu/armv7/start.o
 .rel.text.fat_set_blk_dev
                0x0000000041680798       0x28 arch/arm/cpu/armv7/start.o
 .rel.text.do_fat_read_at
                0x00000000416807c0       0x60 arch/arm/cpu/armv7/start.o
 .rel.text.file_fat_detectfs
                0x0000000041680820       0xb0 arch/arm/cpu/armv7/start.o
 .rel.text.file_fat_read_at
                0x00000000416808d0        0x8 arch/arm/cpu/armv7/start.o
 .rel.text.fat_read_file
                0x00000000416808d8        0x8 arch/arm/cpu/armv7/start.o
 .rel.text.file_fat_write
                0x00000000416808e0       0x10 arch/arm/cpu/armv7/start.o
 .rel.data.fstypes
                0x00000000416808f0       0x90 arch/arm/cpu/armv7/start.o
 .rel.text.inflate_fast
                0x0000000041680980       0x18 arch/arm/cpu/armv7/start.o
 .rel.text.inflate_table
                0x0000000041680998       0x20 arch/arm/cpu/armv7/start.o
 .rel.text.inflateInit2_
                0x00000000416809b8       0x10 arch/arm/cpu/armv7/start.o
 .rel.text.inflate
                0x00000000416809c8      0x188 arch/arm/cpu/armv7/start.o
 .rel.text.zunzip
                0x0000000041680b50       0x28 arch/arm/cpu/armv7/start.o
 .rel.text.gunzip
                0x0000000041680b78       0x10 arch/arm/cpu/armv7/start.o
 .rel.text.initcall_run_list
                0x0000000041680b88        0x8 arch/arm/cpu/armv7/start.o
 .rel.text.lmb_alloc_base
                0x0000000041680b90        0x8 arch/arm/cpu/armv7/start.o
 .rel.text.fdt_next_tag
                0x0000000041680b98       0x48 arch/arm/cpu/armv7/start.o
 .rel.text.fdt_get_alias_namelen
                0x0000000041680be0        0x8 arch/arm/cpu/armv7/start.o
 .rel.text.fdt_strerror
                0x0000000041680be8       0x20 arch/arm/cpu/armv7/start.o
 .rel.text.fdt_address_cells
                0x0000000041680c08        0x8 arch/arm/cpu/armv7/start.o
 .rel.text.fdt_size_cells
                0x0000000041680c10        0x8 arch/arm/cpu/armv7/start.o
 .rel.text.fdtdec_get_is_enabled
                0x0000000041680c18       0x10 arch/arm/cpu/armv7/start.o
 .rel.text.fdtdec_get_alias_seq
                0x0000000041680c28        0x8 arch/arm/cpu/armv7/start.o
 .rel.text.fdtdec_get_chosen_prop
                0x0000000041680c30        0x8 arch/arm/cpu/armv7/start.o
 .rel.text.fdtdec_prepare_fdt
                0x0000000041680c38        0x8 arch/arm/cpu/armv7/start.o
 .rel.text.fdtdec_get_config_int
                0x0000000041680c40        0x8 arch/arm/cpu/armv7/start.o
 .rel.text.fdtdec_get_config_string
                0x0000000041680c48        0x8 arch/arm/cpu/armv7/start.o
 .rel.text.fdtdec_setup
                0x0000000041680c50       0x10 arch/arm/cpu/armv7/start.o
 .rel.text.match_string.constprop.0
                0x0000000041680c60        0x8 arch/arm/cpu/armv7/start.o
 .rel.text.hcreate_r
                0x0000000041680c68        0x8 arch/arm/cpu/armv7/start.o
 .rel.text.hdestroy_r
                0x0000000041680c70        0x8 arch/arm/cpu/armv7/start.o
 .rel.text.hmatch_r
                0x0000000041680c78        0x8 arch/arm/cpu/armv7/start.o
 .rel.text.hsearch_r
                0x0000000041680c80        0x8 arch/arm/cpu/armv7/start.o
 .rel.text.hdelete_r
                0x0000000041680c88        0x8 arch/arm/cpu/armv7/start.o
 .rel.text.hexport_r
                0x0000000041680c90       0x18 arch/arm/cpu/armv7/start.o
 .rel.text.himport_r
                0x0000000041680ca8       0x20 arch/arm/cpu/armv7/start.o
 .rel.text.display_options_get_banner_priv
                0x0000000041680cc8       0x28 arch/arm/cpu/armv7/start.o
 .rel.text.display_options_get_banner
                0x0000000041680cf0        0x8 arch/arm/cpu/armv7/start.o
 .rel.text.display_options
                0x0000000041680cf8        0x8 arch/arm/cpu/armv7/start.o
 .rel.text.print_size
                0x0000000041680d00       0x28 arch/arm/cpu/armv7/start.o
 .rel.text.print_buffer
                0x0000000041680d28       0x28 arch/arm/cpu/armv7/start.o
 .rel.text.crc32_no_comp
                0x0000000041680d50        0x8 arch/arm/cpu/armv7/start.o
 .rel.text.hang
                0x0000000041680d58        0x8 arch/arm/cpu/armv7/start.o
 .rel.text.skip_spaces
                0x0000000041680d60        0x8 arch/arm/cpu/armv7/start.o
 .rel.text.strim
                0x0000000041680d68        0x8 arch/arm/cpu/armv7/start.o
 .rel.text.udelay
                0x0000000041680d70        0x8 arch/arm/cpu/armv7/start.o
 .rel.text.uuid_str_valid
                0x0000000041680d78        0x8 arch/arm/cpu/armv7/start.o
 .rel.text.number
                0x0000000041680d80        0x8 arch/arm/cpu/armv7/start.o
 .rel.text.string
                0x0000000041680d88        0x8 arch/arm/cpu/armv7/start.o
 .rel.text.vsnprintf_internal
                0x0000000041680d90       0xc0 arch/arm/cpu/armv7/start.o
 .rel.text.simple_itoa
                0x0000000041680e50        0x8 arch/arm/cpu/armv7/start.o
 .rel.text.simple_strtoul
                0x0000000041680e58        0x8 arch/arm/cpu/armv7/start.o
 .rel.text.simple_strtoull
                0x0000000041680e60        0x8 arch/arm/cpu/armv7/start.o
 .rel.text.trailing_strtoln
                0x0000000041680e68        0x8 arch/arm/cpu/armv7/start.o
 .rel.rodata.fdt_errtable
                0x0000000041680e70       0x88 arch/arm/cpu/armv7/start.o
 .rel.text.arp_init
                0x0000000041680ef8       0x30 arch/arm/cpu/armv7/start.o
 .rel.text.arp_raw_request
                0x0000000041680f28       0x18 arch/arm/cpu/armv7/start.o
 .rel.text.arp_request
                0x0000000041680f40       0x38 arch/arm/cpu/armv7/start.o
 .rel.text.arp_timeout_check
                0x0000000041680f78       0x28 arch/arm/cpu/armv7/start.o
 .rel.text.arp_receive
                0x0000000041680fa0       0x48 arch/arm/cpu/armv7/start.o
 .rel.text.dhcp_extended
                0x0000000041680fe8       0x28 arch/arm/cpu/armv7/start.o
 .rel.text.dhcp_process_options
                0x0000000041681010      0x180 arch/arm/cpu/armv7/start.o
 .rel.text.dhcp_packet_process_options
                0x0000000041681190        0x8 arch/arm/cpu/armv7/start.o
 .rel.text.dhcp_handler
                0x0000000041681198       0x90 arch/arm/cpu/armv7/start.o
 .rel.text.bootp_reset
                0x0000000041681228       0x20 arch/arm/cpu/armv7/start.o
 .rel.text.bootp_request
                0x0000000041681248       0x78 arch/arm/cpu/armv7/start.o
 .rel.text.bootp_timeout_handler
                0x00000000416812c0       0x28 arch/arm/cpu/armv7/start.o
 .rel.text.cdp_send_trigger.isra.0
                0x00000000416812e8       0x20 arch/arm/cpu/armv7/start.o
 .rel.text.cdp_timeout_handler
                0x0000000041681308       0x20 arch/arm/cpu/armv7/start.o
 .rel.text.cdp_receive
                0x0000000041681328       0x30 arch/arm/cpu/armv7/start.o
 .rel.text.cdp_start
                0x0000000041681358       0x30 arch/arm/cpu/armv7/start.o
 .rel.text.dns_timeout_handler
                0x0000000041681388       0x10 arch/arm/cpu/armv7/start.o
 .rel.text.dns_handler
                0x0000000041681398       0x38 arch/arm/cpu/armv7/start.o
 .rel.text.dns_start
                0x00000000416813d0       0x38 arch/arm/cpu/armv7/start.o
 .rel.text.eth_post_probe
                0x0000000041681408       0x28 arch/arm/cpu/armv7/start.o
 .rel.text.eth_post_bind
                0x0000000041681430        0x8 arch/arm/cpu/armv7/start.o
 .rel.text.eth_write_hwaddr.isra.0
                0x0000000041681438       0x10 arch/arm/cpu/armv7/start.o
 .rel.text.eth_get_dev
                0x0000000041681448        0x8 arch/arm/cpu/armv7/start.o
 .rel.text.eth_set_dev
                0x0000000041681450        0x8 arch/arm/cpu/armv7/start.o
 .rel.text.eth_get_dev_by_name
                0x0000000041681458        0x8 arch/arm/cpu/armv7/start.o
 .rel.text.eth_init
                0x0000000041681460       0x28 arch/arm/cpu/armv7/start.o
 .rel.text.eth_initialize
                0x0000000041681488       0x20 arch/arm/cpu/armv7/start.o
 .rel.text.eth_env_set_enetaddr
                0x00000000416814a8        0x8 arch/arm/cpu/armv7/start.o
 .rel.text.eth_env_get_enetaddr_by_index
                0x00000000416814b0       0x10 arch/arm/cpu/armv7/start.o
 .rel.text.eth_env_set_enetaddr_by_index
                0x00000000416814c0       0x10 arch/arm/cpu/armv7/start.o
 .rel.text.eth_mac_skip
                0x00000000416814d0       0x10 arch/arm/cpu/armv7/start.o
 .rel.text.eth_get_name
                0x00000000416814e0        0x8 arch/arm/cpu/armv7/start.o
 .rel.text.eth_current_changed
                0x00000000416814e8       0x18 arch/arm/cpu/armv7/start.o
 .rel.text.eth_try_another
                0x0000000041681500       0x20 arch/arm/cpu/armv7/start.o
 .rel.text.eth_set_current
                0x0000000041681520       0x20 arch/arm/cpu/armv7/start.o
 .rel.text.pick
                0x0000000041681540        0x8 arch/arm/cpu/armv7/start.o
 .rel.text.configure_wait
                0x0000000041681548       0x20 arch/arm/cpu/armv7/start.o
 .rel.text.link_local_timeout
                0x0000000041681568       0x88 arch/arm/cpu/armv7/start.o
 .rel.text.link_local_start
                0x00000000416815f0       0x58 arch/arm/cpu/armv7/start.o
 .rel.text.net_clear_handlers
                0x0000000041681648       0x20 arch/arm/cpu/armv7/start.o
 .rel.text.start_again_timeout_handler
                0x0000000041681668        0x8 arch/arm/cpu/armv7/start.o
 .rel.text.on_ipaddr
                0x0000000041681670        0x8 arch/arm/cpu/armv7/start.o
 .rel.text.on_gatewayip
                0x0000000041681678        0x8 arch/arm/cpu/armv7/start.o
 .rel.text.on_netmask
                0x0000000041681680        0x8 arch/arm/cpu/armv7/start.o
 .rel.text.on_serverip
                0x0000000041681688        0x8 arch/arm/cpu/armv7/start.o
 .rel.text.on_dnsip
                0x0000000041681690        0x8 arch/arm/cpu/armv7/start.o
 .rel.text.net_init_loop
                0x0000000041681698        0x8 arch/arm/cpu/armv7/start.o
 .rel.text.net_auto_load
                0x00000000416816a0       0x18 arch/arm/cpu/armv7/start.o
 .rel.text.net_init
                0x00000000416816b8       0x20 arch/arm/cpu/armv7/start.o
 .rel.text.net_start_again
                0x00000000416816d8       0x78 arch/arm/cpu/armv7/start.o
 .rel.text.net_loop
                0x0000000041681750      0x1f8 arch/arm/cpu/armv7/start.o
 .rel.text.net_set_udp_handler
                0x0000000041681948       0x10 arch/arm/cpu/armv7/start.o
 .rel.text.net_get_arp_handler
                0x0000000041681958        0x8 arch/arm/cpu/armv7/start.o
 .rel.text.net_set_arp_handler
                0x0000000041681960       0x10 arch/arm/cpu/armv7/start.o
 .rel.text.net_set_icmp_handler
                0x0000000041681970        0x8 arch/arm/cpu/armv7/start.o
 .rel.text.net_set_timeout_handler
                0x0000000041681978       0x18 arch/arm/cpu/armv7/start.o
 .rel.text.net_process_received_packet
                0x0000000041681990       0x48 arch/arm/cpu/armv7/start.o
 .rel.text.net_eth_hdr_size
                0x00000000416819d8        0x8 arch/arm/cpu/armv7/start.o
 .rel.text.net_set_ether
                0x00000000416819e0       0x10 arch/arm/cpu/armv7/start.o
 .rel.text.net_update_ether
                0x00000000416819f0        0x8 arch/arm/cpu/armv7/start.o
 .rel.text.net_set_ip_header
                0x00000000416819f8        0x8 arch/arm/cpu/armv7/start.o
 .rel.text.net_set_udp_header
                0x0000000041681a00        0x8 arch/arm/cpu/armv7/start.o
 .rel.text.net_send_udp_packet
                0x0000000041681a08       0x40 arch/arm/cpu/armv7/start.o
 .rel.text.on_bootfile
                0x0000000041681a48        0x8 arch/arm/cpu/armv7/start.o
 .rel.text.ip_to_string
                0x0000000041681a50        0x8 arch/arm/cpu/armv7/start.o
 .rel.text.vlan_to_string
                0x0000000041681a58       0x10 arch/arm/cpu/armv7/start.o
 .rel.text.on_nvlan
                0x0000000041681a68        0x8 arch/arm/cpu/armv7/start.o
 .rel.text.on_vlan
                0x0000000041681a70        0x8 arch/arm/cpu/armv7/start.o
 .rel.text.rpc_lookup_reply
                0x0000000041681a78       0x18 arch/arm/cpu/armv7/start.o
 .rel.text.nfs_mount_reply
                0x0000000041681a90       0x18 arch/arm/cpu/armv7/start.o
 .rel.text.nfs_umountall_reply
                0x0000000041681aa8       0x18 arch/arm/cpu/armv7/start.o
 .rel.text.nfs_lookup_reply
                0x0000000041681ac0       0x30 arch/arm/cpu/armv7/start.o
 .rel.text.nfs_readlink_reply
                0x0000000041681af0       0x20 arch/arm/cpu/armv7/start.o
 .rel.text.rpc_req
                0x0000000041681b10       0x40 arch/arm/cpu/armv7/start.o
 .rel.text.nfs_read_reply.constprop.0
                0x0000000041681b50       0x30 arch/arm/cpu/armv7/start.o
 .rel.text.nfs_readlink_req
                0x0000000041681b80       0x18 arch/arm/cpu/armv7/start.o
 .rel.text.nfs_read_req
                0x0000000041681b98       0x18 arch/arm/cpu/armv7/start.o
 .rel.text.nfs_lookup_req
                0x0000000041681bb0       0x10 arch/arm/cpu/armv7/start.o
 .rel.text.nfs_umountall_req
                0x0000000041681bc0       0x10 arch/arm/cpu/armv7/start.o
 .rel.text.nfs_send
                0x0000000041681bd0       0x68 arch/arm/cpu/armv7/start.o
 .rel.text.nfs_handler
                0x0000000041681c38       0xa8 arch/arm/cpu/armv7/start.o
 .rel.text.nfs_timeout_handler
                0x0000000041681ce0       0x20 arch/arm/cpu/armv7/start.o
 .rel.text.nfs_start
                0x0000000041681d00       0x88 arch/arm/cpu/armv7/start.o
 .rel.text.ping_timeout_handler
                0x0000000041681d88        0x8 arch/arm/cpu/armv7/start.o
 .rel.text.ping_start
                0x0000000041681d90       0x58 arch/arm/cpu/armv7/start.o
 .rel.text.ping_receive
                0x0000000041681de8       0x18 arch/arm/cpu/armv7/start.o
 .rel.text.rarp_receive
                0x0000000041681e00       0x28 arch/arm/cpu/armv7/start.o
 .rel.text.rarp_request
                0x0000000041681e28       0x38 arch/arm/cpu/armv7/start.o
 .rel.text.rarp_timeout_handler
                0x0000000041681e60       0x18 arch/arm/cpu/armv7/start.o
 .rel.text.sntp_handler
                0x0000000041681e78       0x10 arch/arm/cpu/armv7/start.o
 .rel.text.sntp_timeout_handler
                0x0000000041681e88       0x10 arch/arm/cpu/armv7/start.o
 .rel.text.sntp_start
                0x0000000041681e98       0x30 arch/arm/cpu/armv7/start.o
 .rel.text.new_transfer
                0x0000000041681ec8       0x20 arch/arm/cpu/armv7/start.o
 .rel.text.tftp_complete
                0x0000000041681ee8       0x30 arch/arm/cpu/armv7/start.o
 .rel.text.icmp_handler
                0x0000000041681f18       0x10 arch/arm/cpu/armv7/start.o
 .rel.text.tftp_send
                0x0000000041681f28       0xe8 arch/arm/cpu/armv7/start.o
 .rel.text.update_block_number
                0x0000000041682010       0x38 arch/arm/cpu/armv7/start.o
 .rel.text.tftp_handler
                0x0000000041682048       0xe0 arch/arm/cpu/armv7/start.o
 .rel.text.tftp_timeout_handler
                0x0000000041682128       0x40 arch/arm/cpu/armv7/start.o
 .rel.text.tftp_start
                0x0000000041682168      0x188 arch/arm/cpu/armv7/start.o
 .rel.text.tftp_start_server
                0x00000000416822f0       0x90 arch/arm/cpu/armv7/start.o
 .rel.u_boot_list_2_env_clbk_2_ethaddr
                0x0000000041682380       0x10 arch/arm/cpu/armv7/start.o
 .rel.u_boot_list_2_uclass_2_eth
                0x0000000041682390       0x28 arch/arm/cpu/armv7/start.o
 .rel.u_boot_list_2_env_clbk_2_bootfile
                0x00000000416823b8       0x10 arch/arm/cpu/armv7/start.o
 .rel.u_boot_list_2_env_clbk_2_dnsip
                0x00000000416823c8       0x10 arch/arm/cpu/armv7/start.o
 .rel.u_boot_list_2_env_clbk_2_gatewayip
                0x00000000416823d8       0x10 arch/arm/cpu/armv7/start.o
 .rel.u_boot_list_2_env_clbk_2_ipaddr
                0x00000000416823e8       0x10 arch/arm/cpu/armv7/start.o
 .rel.u_boot_list_2_env_clbk_2_netmask
                0x00000000416823f8       0x10 arch/arm/cpu/armv7/start.o
 .rel.u_boot_list_2_env_clbk_2_nvlan
                0x0000000041682408       0x10 arch/arm/cpu/armv7/start.o
 .rel.u_boot_list_2_env_clbk_2_serverip
                0x0000000041682418       0x10 arch/arm/cpu/armv7/start.o
 .rel.u_boot_list_2_env_clbk_2_vlan
                0x0000000041682428       0x10 arch/arm/cpu/armv7/start.o
 .rel.text.do_dm
                0x0000000041682438        0x8 arch/arm/cpu/armv7/start.o
 .rel.data.test_commands
                0x0000000041682440       0x60 arch/arm/cpu/armv7/start.o
 .rel.u_boot_list_2_cmd_2_dm
                0x00000000416824a0       0x20 arch/arm/cpu/armv7/start.o

.rel_dyn_end    0x00000000416824c0        0x0
 *(.__rel_dyn_end)
 .__rel_dyn_end
                0x00000000416824c0        0x0 arch/arm/lib/built-in.o

.end            0x00000000416824c0        0x0
 *(.__end)
 .__end         0x00000000416824c0        0x0 arch/arm/lib/built-in.o
                0x00000000416824c0                _image_binary_end = .
                0x0000000041683000                . = ALIGN (0x1000)

.mmutable
 *(.mmutable)

.bss_start      0x0000000041677288        0x0
 *(.__bss_start)
 .__bss_start   0x0000000041677288        0x0 arch/arm/lib/built-in.o
                0x0000000041677288                __bss_start
                0x0000000041677288                __bss_base = .

.bss            0x0000000041677288    0x77014
 *(.bss*)
 .bss.noncached_end
                0x0000000041677288        0x4 arch/arm/lib/built-in.o
 .bss.noncached_next
                0x000000004167728c        0x4 arch/arm/lib/built-in.o
 .bss.chip      0x0000000041677290        0x4 board/molchip/built-in.o
                0x0000000041677290                chip
 .bss.nand_chip
                0x0000000041677294       0x24 board/molchip/built-in.o
                0x0000000041677294                nand_chip
 .bss.page_buf  0x00000000416772b8     0x1100 board/molchip/built-in.o
                0x00000000416772b8                page_buf
 .bss.argv2.0   0x00000000416783b8       0x20 cmd/built-in.o
 .bss.nargv.1   0x00000000416783d8        0xc cmd/built-in.o
 .bss.data.2    0x00000000416783e4      0x400 cmd/built-in.o
 .bss.working_fdt
                0x00000000416787e4        0x4 cmd/built-in.o
                0x00000000416787e4                working_fdt
 .bss.base_address
                0x00000000416787e8        0x4 cmd/built-in.o
 .bss.dp_last_addr
                0x00000000416787ec        0x4 cmd/built-in.o
 .bss.dp_last_size
                0x00000000416787f0        0x4 cmd/built-in.o
 .bss.mm_last_addr
                0x00000000416787f4        0x4 cmd/built-in.o
 .bss.mm_last_size
                0x00000000416787f8        0x4 cmd/built-in.o
 .bss.last_addr_hi
                0x00000000416787fc        0x8 cmd/built-in.o
 .bss.last_addr_lo
                0x0000000041678804        0x8 cmd/built-in.o
 .bss.last_data
                0x000000004167880c        0x8 cmd/built-in.o
 .bss.last_mask
                0x0000000041678814        0x4 cmd/built-in.o
 .bss.last_op   0x0000000041678818        0x4 cmd/built-in.o
 .bss.last_reg_hi
                0x000000004167881c        0x8 cmd/built-in.o
 .bss.last_reg_lo
                0x0000000041678824        0x8 cmd/built-in.o
 .bss.last_devad_hi
                0x000000004167882c        0x4 cmd/built-in.o
 .bss.last_devad_lo
                0x0000000041678830        0x4 cmd/built-in.o
 .bss.do_getfile
                0x0000000041678834        0x4 cmd/built-in.o
 .bss.fs_argv   0x0000000041678838       0x14 cmd/built-in.o
 .bss.is_pxe    0x000000004167884c        0x1 cmd/built-in.o
 *fill*         0x000000004167884d        0x3 
 .bss.flash     0x0000000041678850        0x4 cmd/built-in.o
 .bss.ethsw_name
                0x0000000041678854        0x4 cmd/built-in.o
 .bss.stored_bootdelay
                0x0000000041678858        0x4 common/built-in.o
 .bss.monitor_flash_len
                0x000000004167885c        0x4 common/built-in.o
                0x000000004167885c                monitor_flash_len
 .bss.images    0x0000000041678860      0x130 common/built-in.o
                0x0000000041678860                images
 .bss.current_mii
                0x0000000041678990        0x4 common/built-in.o
 .bss.mii_devs  0x0000000041678994        0x8 common/built-in.o
 .bss.usb_started
                0x000000004167899c        0x1 common/built-in.o
                0x000000004167899c                usb_started
 *fill*         0x000000004167899d        0x3 
 .bss.running.0
                0x00000000416789a0        0x4 common/built-in.o
 .bss.CBWTag    0x00000000416789a4        0x4 common/built-in.o
 *fill*         0x00000000416789a8       0x18 
 .bss.usb_ccb   0x00000000416789c0       0xc0 common/built-in.o
 .bss.usb_max_devs
                0x0000000041678a80        0x4 common/built-in.o
 .bss.console_buffer
                0x0000000041678a84      0x101 common/built-in.o
                0x0000000041678a84                console_buffer
 .bss.lastcommand.0
                0x0000000041678b85      0x101 common/built-in.o
 *fill*         0x0000000041678c86        0x2 
 .bss.ctrlc_disabled
                0x0000000041678c88        0x4 common/built-in.o
 .bss.ctrlc_was_pressed
                0x0000000041678c8c        0x4 common/built-in.o
 .bss.current_mallinfo
                0x0000000041678c90       0x28 common/built-in.o
 .bss.max_sbrked_mem
                0x0000000041678cb8        0x4 common/built-in.o
 .bss.max_total_mem
                0x0000000041678cbc        0x4 common/built-in.o
 .bss.mem_malloc_brk
                0x0000000041678cc0        0x4 common/built-in.o
                0x0000000041678cc0                mem_malloc_brk
 .bss.mem_malloc_end
                0x0000000041678cc4        0x4 common/built-in.o
                0x0000000041678cc4                mem_malloc_end
 .bss.mem_malloc_start
                0x0000000041678cc8        0x4 common/built-in.o
                0x0000000041678cc8                mem_malloc_start
 .bss.top_pad   0x0000000041678ccc        0x4 common/built-in.o
 .bss.save_addr
                0x0000000041678cd0        0x4 common/built-in.o
                0x0000000041678cd0                save_addr
 .bss.save_size
                0x0000000041678cd4        0x4 common/built-in.o
                0x0000000041678cd4                save_size
 .bss.devs      0x0000000041678cd8       0x4c common/built-in.o
 .bss.stdio_devices
                0x0000000041678d24        0xc common/built-in.o
                0x0000000041678d24                stdio_devices
 .bss.tmp_buf   0x0000000041678d30      0x100 common/built-in.o
 .bss.tmp_buf.0
                0x0000000041678e30      0x200 common/built-in.o
 .bss.context   0x0000000041679030      0x210 common/built-in.o
                0x0000000041679030                context
 .bss.s_reg_log
                0x0000000041679240        0x4 common/built-in.o
                0x0000000041679240                s_reg_log
 .bss.s_lcm_clk_context
                0x0000000041679244       0x10 common/built-in.o
                0x0000000041679244                s_lcm_clk_context
 .bss.s_lcm_mcu_api_context
                0x0000000041679254      0x408 common/built-in.o
                0x0000000041679254                s_lcm_mcu_api_context
 .bss.s_lcm_mcu_reg_list
                0x000000004167965c       0x14 common/built-in.o
                0x000000004167965c                s_lcm_mcu_reg_list
 .bss.s_rgb_mpi_context
                0x0000000041679670      0x174 common/built-in.o
                0x0000000041679670                s_rgb_mpi_context
 .bss.s_dsi_mpi_context
                0x00000000416797e4      0x470 common/built-in.o
                0x00000000416797e4                s_dsi_mpi_context
 .bss.s_dsi_host_mpi_context
                0x0000000041679c54      0x614 common/built-in.o
                0x0000000041679c54                s_dsi_host_mpi_context
 .bss.s_dsi_phy_mpi_context
                0x000000004167a268      0x688 common/built-in.o
                0x000000004167a268                s_dsi_phy_mpi_context
 .bss.s_dsi_pll_context
                0x000000004167a8f0       0x98 common/built-in.o
                0x000000004167a8f0                s_dsi_pll_context
 .bss.s_lcm_register_id
                0x000000004167a988        0x8 common/built-in.o
                0x000000004167a988                s_lcm_register_id
 .bss.s_lcm_work_mode
                0x000000004167a990        0x8 common/built-in.o
                0x000000004167a990                s_lcm_work_mode
 .bss.gHandle   0x000000004167a998        0x8 common/built-in.o
                0x000000004167a998                gHandle
 .bss.mc_efuse_dev
                0x000000004167a9a0       0x10 drivers/built-in.o
                0x000000004167a9a0                mc_efuse_dev
 .bss.dst1_text
                0x000000004167a9b0       0xc0 drivers/built-in.o
                0x000000004167a9b0                dst1_text
 .bss.dst_text  0x000000004167aa70       0xc0 drivers/built-in.o
                0x000000004167aa70                dst_text
 .bss.mc_aes_dev
                0x000000004167ab30        0x4 drivers/built-in.o
                0x000000004167ab30                mc_aes_dev
 .bss.initialized.0
                0x000000004167ab34        0x4 drivers/built-in.o
 .bss.node_sfc_out
                0x000000004167ab38        0x4 drivers/mtd/spi/built-in.o
                0x000000004167ab38                node_sfc_out
 .bss.env_changed_id.2
                0x000000004167ab3c        0x4 drivers/net/built-in.o
 .bss.input_buffer
                0x000000004167ab40      0x200 drivers/net/built-in.o
 .bss.input_offset
                0x000000004167ad40        0x4 drivers/net/built-in.o
 .bss.input_recursion
                0x000000004167ad44        0x4 drivers/net/built-in.o
 .bss.input_size
                0x000000004167ad48        0x4 drivers/net/built-in.o
 .bss.nc_ether  0x000000004167ad4c        0x6 drivers/net/built-in.o
 .bss.nc_in_port
                0x000000004167ad52        0x2 drivers/net/built-in.o
 .bss.nc_ip     0x000000004167ad54        0x4 drivers/net/built-in.o
 .bss.nc_out_port
                0x000000004167ad58        0x2 drivers/net/built-in.o
 *fill*         0x000000004167ad5a        0x2 
 .bss.net_loop_last_protocol
                0x000000004167ad5c        0x4 drivers/net/built-in.o
                0x000000004167ad5c                net_loop_last_protocol
 .bss.net_timeout
                0x000000004167ad60        0x4 drivers/net/built-in.o
 .bss.netmask.1
                0x000000004167ad64        0x4 drivers/net/built-in.o
 .bss.our_ip.0  0x000000004167ad68        0x4 drivers/net/built-in.o
 .bss.output_packet
                0x000000004167ad6c        0x4 drivers/net/built-in.o
 .bss.output_packet_len
                0x000000004167ad70        0x4 drivers/net/built-in.o
 .bss.output_recursion
                0x000000004167ad74        0x4 drivers/net/built-in.o
 .bss.record_eths
                0x000000004167ad78       0x20 drivers/net/built-in.o
                0x000000004167ad78                record_eths
 .bss.current_eth
                0x000000004167ad98        0x4 drivers/net/built-in.o
 .bss.ipaddr    0x000000004167ad9c       0x10 drivers/net/built-in.o
 .bss.log_level
                0x000000004167adac        0x4 drivers/net/built-in.o
 .bss.loop_scan
                0x000000004167adb0        0x4 drivers/net/built-in.o
 .bss.loopback_auto_scan
                0x000000004167adb4        0x4 drivers/net/built-in.o
 .bss.scan_result
                0x000000004167adb8    0x40000 drivers/net/built-in.o
 .bss.scan_rx_buf
                0x00000000416badb8        0x4 drivers/net/built-in.o
 .bss.scan_tx_buf
                0x00000000416badbc        0x4 drivers/net/built-in.o
 .bss.scanrx_base_val
                0x00000000416badc0        0x4 drivers/net/built-in.o
 .bss.scantx_base_val
                0x00000000416badc4        0x4 drivers/net/built-in.o
 .bss.tx_replace2rxneg
                0x00000000416badc8        0x4 drivers/net/built-in.o
 .bss.used_rxdelay
                0x00000000416badcc        0x4 drivers/net/built-in.o
 .bss.used_txdelay
                0x00000000416badd0        0x4 drivers/net/built-in.o
 .bss.train_data
                0x00000000416badd4        0x2 drivers/net/phy/built-in.o
                0x00000000416badd4                train_data
 *fill*         0x00000000416badd6        0x2 
 .bss.flash_size
                0x00000000416badd8        0x4 drivers/spi/built-in.o
                0x00000000416badd8                flash_size
 .bss.asynch_allowed
                0x00000000416baddc        0x1 drivers/usb/host/built-in.o
 *fill*         0x00000000416baddd        0x3 
 .bss.callback_list
                0x00000000416bade0        0x4 env/built-in.o
 .bss.flags_list
                0x00000000416bade4        0x4 env/built-in.o
 .bss.env_flash
                0x00000000416bade8        0x4 env/built-in.o
 .bss.fs_dev_desc
                0x00000000416badec        0x4 fs/built-in.o
 .bss.fs_partition
                0x00000000416badf0       0x54 fs/built-in.o
 .bss.fs_type   0x00000000416bae44        0x4 fs/built-in.o
 .bss.cur_dev   0x00000000416bae48        0x4 fs/built-in.o
 .bss.cur_part_info
                0x00000000416bae4c       0x54 fs/built-in.o
 .bss.dir_curclust
                0x00000000416baea0        0x4 fs/built-in.o
 *fill*         0x00000000416baea4       0x1c 
 .bss.do_fat_read_at_block
                0x00000000416baec0    0x10000 fs/built-in.o
                0x00000000416baec0                do_fat_read_at_block
 .bss.empty_dentptr
                0x00000000416caec0        0x4 fs/built-in.o
 *fill*         0x00000000416caec4       0x3c 
 .bss.get_contents_vfatname_block
                0x00000000416caf00    0x10000 fs/built-in.o
                0x00000000416caf00                get_contents_vfatname_block
 .bss.get_dentfromdir_block
                0x00000000416daf00    0x10000 fs/built-in.o
                0x00000000416daf00                get_dentfromdir_block
 .bss.num_of_fats
                0x00000000416eaf00        0x1 fs/built-in.o
 *fill*         0x00000000416eaf01        0x3 
 .bss.total_sector
                0x00000000416eaf04        0x4 fs/built-in.o
 .bss.errno     0x00000000416eaf08        0x4 lib/built-in.o
                0x00000000416eaf08                errno
 .bss.local.0   0x00000000416eaf0c       0x16 lib/built-in.o
 *fill*         0x00000000416eaf22        0x2 
 .bss.arp_tx_packet
                0x00000000416eaf24        0x4 net/built-in.o
 .bss.arp_tx_packet_buf
                0x00000000416eaf28      0x640 net/built-in.o
 .bss.arp_wait_packet_ethaddr
                0x00000000416eb568        0x4 net/built-in.o
                0x00000000416eb568                arp_wait_packet_ethaddr
 .bss.arp_wait_timer_start
                0x00000000416eb56c        0x4 net/built-in.o
                0x00000000416eb56c                arp_wait_timer_start
 .bss.arp_wait_try
                0x00000000416eb570        0x4 net/built-in.o
                0x00000000416eb570                arp_wait_try
 .bss.arp_wait_tx_packet_size
                0x00000000416eb574        0x4 net/built-in.o
                0x00000000416eb574                arp_wait_tx_packet_size
 .bss.net_arp_wait_packet_ip
                0x00000000416eb578        0x4 net/built-in.o
                0x00000000416eb578                net_arp_wait_packet_ip
 .bss.net_arp_wait_reply_ip
                0x00000000416eb57c        0x4 net/built-in.o
 .bss.bootp_ids
                0x00000000416eb580       0x10 net/built-in.o
                0x00000000416eb580                bootp_ids
 .bss.bootp_num_ids
                0x00000000416eb590        0x4 net/built-in.o
                0x00000000416eb590                bootp_num_ids
 .bss.bootp_start
                0x00000000416eb594        0x4 net/built-in.o
                0x00000000416eb594                bootp_start
 .bss.bootp_timeout
                0x00000000416eb598        0x4 net/built-in.o
                0x00000000416eb598                bootp_timeout
 .bss.bootp_try
                0x00000000416eb59c        0x4 net/built-in.o
                0x00000000416eb59c                bootp_try
 .bss.dhcp_leasetime
                0x00000000416eb5a0        0x4 net/built-in.o
 .bss.dhcp_option_overload
                0x00000000416eb5a4        0x1 net/built-in.o
 *fill*         0x00000000416eb5a5        0x3 
 .bss.dhcp_server_ip
                0x00000000416eb5a8        0x4 net/built-in.o
 .bss.dhcp_state
                0x00000000416eb5ac        0x4 net/built-in.o
 .bss.net_hostname
                0x00000000416eb5b0       0x20 net/built-in.o
                0x00000000416eb5b0                net_hostname
 .bss.net_nis_domain
                0x00000000416eb5d0       0x20 net/built-in.o
                0x00000000416eb5d0                net_nis_domain
 .bss.net_root_path
                0x00000000416eb5f0       0x40 net/built-in.o
                0x00000000416eb5f0                net_root_path
 .bss.time_taken_max
                0x00000000416eb630        0x4 net/built-in.o
 .bss.cdp_appliance_vlan
                0x00000000416eb634        0x2 net/built-in.o
                0x00000000416eb634                cdp_appliance_vlan
 .bss.cdp_native_vlan
                0x00000000416eb636        0x2 net/built-in.o
                0x00000000416eb636                cdp_native_vlan
 .bss.cdp_ok    0x00000000416eb638        0x4 net/built-in.o
 .bss.cdp_seq   0x00000000416eb63c        0x4 net/built-in.o
 .bss.dns_our_port
                0x00000000416eb640        0x4 net/built-in.o
 .bss.net_dns_env_var
                0x00000000416eb644        0x4 net/built-in.o
                0x00000000416eb644                net_dns_env_var
 .bss.net_dns_resolve
                0x00000000416eb648        0x4 net/built-in.o
                0x00000000416eb648                net_dns_resolve
 .bss.eth_errno
                0x00000000416eb64c        0x4 net/built-in.o
 .bss.act.1     0x00000000416eb650        0x4 net/built-in.o
 .bss.env_changed_id.0
                0x00000000416eb654        0x4 net/built-in.o
 .bss.first_failed.2
                0x00000000416eb658        0x4 net/built-in.o
 .bss.conflicts
                0x00000000416eb65c        0x4 net/built-in.o
 .bss.deadline_ms
                0x00000000416eb660        0x4 net/built-in.o
 .bss.ip        0x00000000416eb664        0x4 net/built-in.o
 .bss.nclaims   0x00000000416eb668        0x4 net/built-in.o
 .bss.nprobes   0x00000000416eb66c        0x4 net/built-in.o
 .bss.seed      0x00000000416eb670        0x4 net/built-in.o
 .bss.arp_packet_handler
                0x00000000416eb674        0x4 net/built-in.o
 .bss.net_boot_file_expected_size_in_blocks
                0x00000000416eb678        0x4 net/built-in.o
                0x00000000416eb678                net_boot_file_expected_size_in_blocks
 .bss.net_boot_file_name
                0x00000000416eb67c      0x400 net/built-in.o
                0x00000000416eb67c                net_boot_file_name
 .bss.net_boot_file_size
                0x00000000416eba7c        0x4 net/built-in.o
                0x00000000416eba7c                net_boot_file_size
 .bss.net_dev_exists
                0x00000000416eba80        0x4 net/built-in.o
 .bss.net_dns_server
                0x00000000416eba84        0x4 net/built-in.o
                0x00000000416eba84                net_dns_server
 .bss.net_ethaddr
                0x00000000416eba88        0x6 net/built-in.o
                0x00000000416eba88                net_ethaddr
 *fill*         0x00000000416eba8e        0x2 
 .bss.net_gateway
                0x00000000416eba90        0x4 net/built-in.o
                0x00000000416eba90                net_gateway
 .bss.net_init_flag
                0x00000000416eba94        0x4 net/built-in.o
                0x00000000416eba94                net_init_flag
 .bss.net_ip    0x00000000416eba98        0x4 net/built-in.o
                0x00000000416eba98                net_ip
 .bss.net_ip_id
                0x00000000416eba9c        0x4 net/built-in.o
 .bss.net_netmask
                0x00000000416ebaa0        0x4 net/built-in.o
                0x00000000416ebaa0                net_netmask
 .bss.net_ntp_server
                0x00000000416ebaa4        0x4 net/built-in.o
                0x00000000416ebaa4                net_ntp_server
 .bss.net_ntp_time_offset
                0x00000000416ebaa8        0x4 net/built-in.o
                0x00000000416ebaa8                net_ntp_time_offset
 .bss.net_pkt_buf
                0x00000000416ebaac     0x1e40 net/built-in.o
 .bss.net_restart_wrap
                0x00000000416ed8ec        0x4 net/built-in.o
                0x00000000416ed8ec                net_restart_wrap
 .bss.net_restarted
                0x00000000416ed8f0        0x4 net/built-in.o
 .bss.net_rx_packet
                0x00000000416ed8f4        0x4 net/built-in.o
                0x00000000416ed8f4                net_rx_packet
 .bss.net_rx_packet_len
                0x00000000416ed8f8        0x4 net/built-in.o
                0x00000000416ed8f8                net_rx_packet_len
 .bss.net_rx_packets
                0x00000000416ed8fc       0x10 net/built-in.o
                0x00000000416ed8fc                net_rx_packets
 .bss.net_server_ethaddr
                0x00000000416ed90c        0x6 net/built-in.o
                0x00000000416ed90c                net_server_ethaddr
 *fill*         0x00000000416ed912        0x2 
 .bss.net_server_ip
                0x00000000416ed914        0x4 net/built-in.o
                0x00000000416ed914                net_server_ip
 .bss.net_state
                0x00000000416ed918        0x4 net/built-in.o
                0x00000000416ed918                net_state
 .bss.net_try_count
                0x00000000416ed91c        0x4 net/built-in.o
 .bss.net_tx_packet
                0x00000000416ed920        0x4 net/built-in.o
                0x00000000416ed920                net_tx_packet
 .bss.packet_icmp_handler
                0x00000000416ed924        0x4 net/built-in.o
 .bss.time_delta
                0x00000000416ed928        0x4 net/built-in.o
 .bss.time_handler
                0x00000000416ed92c        0x4 net/built-in.o
 .bss.time_start
                0x00000000416ed930        0x8 net/built-in.o
 .bss.udp_packet_handler
                0x00000000416ed938        0x4 net/built-in.o
 .bss.dirfh     0x00000000416ed93c       0x20 net/built-in.o
 .bss.filefh    0x00000000416ed95c       0x40 net/built-in.o
 .bss.filefh3_length
                0x00000000416ed99c        0x4 net/built-in.o
 .bss.fs_mounted
                0x00000000416ed9a0        0x4 net/built-in.o
 .bss.nfs_download_state
                0x00000000416ed9a4        0x4 net/built-in.o
 .bss.nfs_filename
                0x00000000416ed9a8        0x4 net/built-in.o
 .bss.nfs_len   0x00000000416ed9ac        0x4 net/built-in.o
 .bss.nfs_our_port
                0x00000000416ed9b0        0x4 net/built-in.o
 .bss.nfs_path  0x00000000416ed9b4        0x4 net/built-in.o
 .bss.nfs_path_buff
                0x00000000416ed9b8      0x800 net/built-in.o
 .bss.nfs_server_ip
                0x00000000416ee1b8        0x4 net/built-in.o
 .bss.nfs_server_mount_port
                0x00000000416ee1bc        0x4 net/built-in.o
 .bss.nfs_server_port
                0x00000000416ee1c0        0x4 net/built-in.o
 .bss.nfs_state
                0x00000000416ee1c4        0x4 net/built-in.o
 .bss.nfs_timeout_count
                0x00000000416ee1c8        0x4 net/built-in.o
 .bss.rpc_id    0x00000000416ee1cc        0x4 net/built-in.o
 .bss.net_ping_ip
                0x00000000416ee1d0        0x4 net/built-in.o
                0x00000000416ee1d0                net_ping_ip
 .bss.ping_seq_number
                0x00000000416ee1d4        0x2 net/built-in.o
 *fill*         0x00000000416ee1d6        0x2 
 .bss.rarp_try  0x00000000416ee1d8        0x4 net/built-in.o
                0x00000000416ee1d8                rarp_try
 .bss.sntp_our_port
                0x00000000416ee1dc        0x4 net/built-in.o
 .bss.default_filename
                0x00000000416ee1e0        0xd net/built-in.o
 *fill*         0x00000000416ee1ed        0x3 
 .bss.tftp_block_wrap
                0x00000000416ee1f0        0x4 net/built-in.o
 .bss.tftp_block_wrap_offset
                0x00000000416ee1f4        0x4 net/built-in.o
 .bss.tftp_cur_block
                0x00000000416ee1f8        0x4 net/built-in.o
 .bss.tftp_filename
                0x00000000416ee1fc       0x80 net/built-in.o
 .bss.tftp_our_port
                0x00000000416ee27c        0x4 net/built-in.o
 .bss.tftp_prev_block
                0x00000000416ee280        0x4 net/built-in.o
 .bss.tftp_put_active
                0x00000000416ee284        0x4 net/built-in.o
 .bss.tftp_put_final_block_sent
                0x00000000416ee288        0x4 net/built-in.o
 .bss.tftp_remote_ip
                0x00000000416ee28c        0x4 net/built-in.o
 .bss.tftp_remote_port
                0x00000000416ee290        0x4 net/built-in.o
 .bss.tftp_state
                0x00000000416ee294        0x4 net/built-in.o
 .bss.timeout_count
                0x00000000416ee298        0x4 net/built-in.o
                0x00000000416ee29c                . = ALIGN (0x4)
                0x00000000416ee29c                __bss_limit = .

.bss_end        0x00000000416ee29c        0x0
 *(.__bss_end)
 .__bss_end     0x00000000416ee29c        0x0 arch/arm/lib/built-in.o
                0x00000000416ee29c                __bss_end

.dynsym         0x00000000416824c0       0x30
 *(.dynsym)
 .dynsym        0x00000000416824c0       0x30 arch/arm/cpu/armv7/start.o

.dynbss         0x00000000416824f0        0x0
 *(.dynbss)
 .dynbss        0x00000000416824f0        0x0 arch/arm/cpu/armv7/start.o

.dynstr         0x00000000416824f0        0x1
 *(.dynstr*)
 .dynstr        0x00000000416824f0        0x1 arch/arm/cpu/armv7/start.o

.dynamic        0x00000000416824f4       0x90
 *(.dynamic*)
 .dynamic       0x00000000416824f4       0x90 arch/arm/cpu/armv7/start.o
                0x00000000416824f4                _DYNAMIC

.plt            0x0000000041682584        0x0
 *(.plt*)
 .plt           0x0000000041682584        0x0 arch/arm/cpu/armv7/start.o

.interp
 *(.interp*)

.gnu.hash       0x0000000041682584       0x18
 *(.gnu.hash)
 .gnu.hash      0x0000000041682584       0x18 arch/arm/cpu/armv7/start.o

.gnu            0x000000004168259c        0x0
 *(.gnu*)
 .gnu.version_d
                0x000000004168259c        0x0 arch/arm/cpu/armv7/start.o
 .gnu.version   0x000000004168259c        0x0 arch/arm/cpu/armv7/start.o
 .gnu.version_r
                0x000000004168259c        0x0 arch/arm/cpu/armv7/start.o

.ARM.exidx
 *(.ARM.exidx*)

.gnu.linkonce.armexidx
 *(.gnu.linkonce.armexidx.*)
LOAD arch/arm/cpu/armv7/start.o
START GROUP
LOAD arch/arm/cpu/built-in.o
LOAD arch/arm/cpu/armv7/built-in.o
LOAD arch/arm/lib/built-in.o
LOAD arch/arm/mach-molchip/built-in.o
LOAD board/molchip/built-in.o
LOAD cmd/built-in.o
LOAD common/built-in.o
LOAD disk/built-in.o
LOAD drivers/built-in.o
LOAD drivers/dma/built-in.o
LOAD drivers/gpio/built-in.o
LOAD drivers/i2c/built-in.o
LOAD drivers/mtd/built-in.o
LOAD drivers/mtd/onenand/built-in.o
LOAD drivers/mtd/spi/built-in.o
LOAD drivers/net/built-in.o
LOAD drivers/net/phy/built-in.o
LOAD drivers/pci/built-in.o
LOAD drivers/power/built-in.o
LOAD drivers/power/battery/built-in.o
LOAD drivers/power/domain/built-in.o
LOAD drivers/power/fuel_gauge/built-in.o
LOAD drivers/power/mfd/built-in.o
LOAD drivers/power/pmic/built-in.o
LOAD drivers/power/regulator/built-in.o
LOAD drivers/serial/built-in.o
LOAD drivers/spi/built-in.o
LOAD drivers/usb/common/built-in.o
LOAD drivers/usb/dwc3/built-in.o
LOAD drivers/usb/emul/built-in.o
LOAD drivers/usb/eth/built-in.o
LOAD drivers/usb/gadget/built-in.o
LOAD drivers/usb/gadget/udc/built-in.o
LOAD drivers/usb/host/built-in.o
LOAD drivers/usb/musb-new/built-in.o
LOAD drivers/usb/musb/built-in.o
LOAD drivers/usb/phy/built-in.o
LOAD drivers/usb/ulpi/built-in.o
LOAD env/built-in.o
LOAD fs/built-in.o
LOAD lib/built-in.o
LOAD net/built-in.o
LOAD test/built-in.o
LOAD test/dm/built-in.o
END GROUP
LOAD arch/arm/lib/eabi_compat.o
LOAD arch/arm/lib/lib.a
OUTPUT(u-boot elf32-littlearm)
LOAD linker stubs

.ARM.attributes
                0x0000000000000000       0x29
 .ARM.attributes
                0x0000000000000000       0x1d arch/arm/cpu/armv7/start.o
 .ARM.attributes
                0x000000000000001d       0x2b arch/arm/cpu/armv7/built-in.o
 .ARM.attributes
                0x0000000000000048       0x29 arch/arm/lib/built-in.o
 .ARM.attributes
                0x0000000000000071       0x2d arch/arm/mach-molchip/built-in.o
 .ARM.attributes
                0x000000000000009e       0x2d board/molchip/built-in.o
 .ARM.attributes
                0x00000000000000cb       0x2d cmd/built-in.o
 .ARM.attributes
                0x00000000000000f8       0x2d common/built-in.o
 .ARM.attributes
                0x0000000000000125       0x2d disk/built-in.o
 .ARM.attributes
                0x0000000000000152       0x2d drivers/built-in.o
 .ARM.attributes
                0x000000000000017f       0x2d drivers/dma/built-in.o
 .ARM.attributes
                0x00000000000001ac       0x2d drivers/gpio/built-in.o
 .ARM.attributes
                0x00000000000001d9       0x2d drivers/mtd/built-in.o
 .ARM.attributes
                0x0000000000000206       0x2d drivers/mtd/spi/built-in.o
 .ARM.attributes
                0x0000000000000233       0x2d drivers/net/built-in.o
 .ARM.attributes
                0x0000000000000260       0x2d drivers/net/phy/built-in.o
 .ARM.attributes
                0x000000000000028d       0x2d drivers/serial/built-in.o
 .ARM.attributes
                0x00000000000002ba       0x2d drivers/spi/built-in.o
 .ARM.attributes
                0x00000000000002e7       0x2d drivers/usb/common/built-in.o
 .ARM.attributes
                0x0000000000000314       0x2d drivers/usb/eth/built-in.o
 .ARM.attributes
                0x0000000000000341       0x2d drivers/usb/host/built-in.o
 .ARM.attributes
                0x000000000000036e       0x2d drivers/usb/phy/built-in.o
 .ARM.attributes
                0x000000000000039b       0x2d env/built-in.o
 .ARM.attributes
                0x00000000000003c8       0x2d fs/built-in.o
 .ARM.attributes
                0x00000000000003f5       0x2d lib/built-in.o
 .ARM.attributes
                0x0000000000000422       0x2d net/built-in.o
 .ARM.attributes
                0x000000000000044f       0x2d test/dm/built-in.o
 .ARM.attributes
                0x000000000000047c       0x1d arch/arm/lib/lib.a(lib1funcs.o)
 .ARM.attributes
                0x0000000000000499       0x1d arch/arm/lib/lib.a(uldivmod.o)
 .ARM.attributes
                0x00000000000004b6       0x2d arch/arm/lib/lib.a(div0.o)

.comment        0x0000000000000000       0x22
 .comment       0x0000000000000000       0x22 arch/arm/cpu/armv7/built-in.o
                                         0x8c (size before relaxing)
 .comment       0x0000000000000022      0x15e arch/arm/lib/built-in.o
 .comment       0x0000000000000022       0x23 arch/arm/mach-molchip/built-in.o
 .comment       0x0000000000000022      0x1a4 board/molchip/built-in.o
 .comment       0x0000000000000022      0x41a cmd/built-in.o
 .comment       0x0000000000000022      0x94c common/built-in.o
 .comment       0x0000000000000022       0x46 disk/built-in.o
 .comment       0x0000000000000022      0x41a drivers/built-in.o
 .comment       0x0000000000000022       0x23 drivers/dma/built-in.o
 .comment       0x0000000000000022       0x23 drivers/gpio/built-in.o
 .comment       0x0000000000000022       0x69 drivers/mtd/built-in.o
 .comment       0x0000000000000022       0x23 drivers/mtd/spi/built-in.o
 .comment       0x0000000000000022       0x8c drivers/net/built-in.o
 .comment       0x0000000000000022       0x69 drivers/net/phy/built-in.o
 .comment       0x0000000000000022       0x46 drivers/serial/built-in.o
 .comment       0x0000000000000022       0x8c drivers/spi/built-in.o
 .comment       0x0000000000000022       0x23 drivers/usb/common/built-in.o
 .comment       0x0000000000000022       0x46 drivers/usb/eth/built-in.o
 .comment       0x0000000000000022       0xaf drivers/usb/host/built-in.o
 .comment       0x0000000000000022       0x23 drivers/usb/phy/built-in.o
 .comment       0x0000000000000022       0xd2 env/built-in.o
 .comment       0x0000000000000022       0x69 fs/built-in.o
 .comment       0x0000000000000022      0x5be lib/built-in.o
 .comment       0x0000000000000022      0x1ea net/built-in.o
 .comment       0x0000000000000022       0x23 test/dm/built-in.o
 .comment       0x0000000000000022       0x23 arch/arm/lib/lib.a(div0.o)

.note.GNU-stack
                0x0000000000000000        0x0
 .note.GNU-stack
                0x0000000000000000        0x0 arch/arm/cpu/armv7/built-in.o
 .note.GNU-stack
                0x0000000000000000        0x0 arch/arm/lib/built-in.o
 .note.GNU-stack
                0x0000000000000000        0x0 arch/arm/mach-molchip/built-in.o
 .note.GNU-stack
                0x0000000000000000        0x0 board/molchip/built-in.o
 .note.GNU-stack
                0x0000000000000000        0x0 cmd/built-in.o
 .note.GNU-stack
                0x0000000000000000        0x0 common/built-in.o
 .note.GNU-stack
                0x0000000000000000        0x0 disk/built-in.o
 .note.GNU-stack
                0x0000000000000000        0x0 drivers/built-in.o
 .note.GNU-stack
                0x0000000000000000        0x0 drivers/dma/built-in.o
 .note.GNU-stack
                0x0000000000000000        0x0 drivers/gpio/built-in.o
 .note.GNU-stack
                0x0000000000000000        0x0 drivers/mtd/built-in.o
 .note.GNU-stack
                0x0000000000000000        0x0 drivers/mtd/spi/built-in.o
 .note.GNU-stack
                0x0000000000000000        0x0 drivers/net/built-in.o
 .note.GNU-stack
                0x0000000000000000        0x0 drivers/net/phy/built-in.o
 .note.GNU-stack
                0x0000000000000000        0x0 drivers/serial/built-in.o
 .note.GNU-stack
                0x0000000000000000        0x0 drivers/spi/built-in.o
 .note.GNU-stack
                0x0000000000000000        0x0 drivers/usb/common/built-in.o
 .note.GNU-stack
                0x0000000000000000        0x0 drivers/usb/eth/built-in.o
 .note.GNU-stack
                0x0000000000000000        0x0 drivers/usb/host/built-in.o
 .note.GNU-stack
                0x0000000000000000        0x0 drivers/usb/phy/built-in.o
 .note.GNU-stack
                0x0000000000000000        0x0 env/built-in.o
 .note.GNU-stack
                0x0000000000000000        0x0 fs/built-in.o
 .note.GNU-stack
                0x0000000000000000        0x0 lib/built-in.o
 .note.GNU-stack
                0x0000000000000000        0x0 net/built-in.o
 .note.GNU-stack
                0x0000000000000000        0x0 test/dm/built-in.o
 .note.GNU-stack
                0x0000000000000000        0x0 arch/arm/lib/lib.a(div0.o)

.debug_line     0x0000000000000000    0x7529a
 .debug_line    0x0000000000000000       0x89 arch/arm/cpu/armv7/start.o
 .debug_line    0x0000000000000089      0x638 arch/arm/cpu/armv7/built-in.o
 .debug_line    0x00000000000006c1     0x1a2e arch/arm/lib/built-in.o
 .debug_line    0x00000000000020ef       0x8d arch/arm/mach-molchip/built-in.o
 .debug_line    0x000000000000217c     0x3fa1 board/molchip/built-in.o
 .debug_line    0x000000000000611d     0xa03c cmd/built-in.o
 .debug_line    0x0000000000010159    0x2890e common/built-in.o
 .debug_line    0x0000000000038a67     0x1097 disk/built-in.o
 .debug_line    0x0000000000039afe     0xdc02 drivers/built-in.o
 .debug_line    0x0000000000047700      0xa27 drivers/dma/built-in.o
 .debug_line    0x0000000000048127      0x2dc drivers/gpio/built-in.o
 .debug_line    0x0000000000048403     0x1157 drivers/mtd/built-in.o
 .debug_line    0x000000000004955a     0x18c9 drivers/mtd/spi/built-in.o
 .debug_line    0x000000000004ae23     0x3c34 drivers/net/built-in.o
 .debug_line    0x000000000004ea57     0x1c04 drivers/net/phy/built-in.o
 .debug_line    0x000000000005065b      0xbaa drivers/serial/built-in.o
 .debug_line    0x0000000000051205     0x2bf8 drivers/spi/built-in.o
 .debug_line    0x0000000000053dfd      0x19b drivers/usb/common/built-in.o
 .debug_line    0x0000000000053f98      0xcf8 drivers/usb/eth/built-in.o
 .debug_line    0x0000000000054c90     0x4ad0 drivers/usb/host/built-in.o
 .debug_line    0x0000000000059760      0x183 drivers/usb/phy/built-in.o
 .debug_line    0x00000000000598e3     0x1745 env/built-in.o
 .debug_line    0x000000000005b028     0x3b3a fs/built-in.o
 .debug_line    0x000000000005eb62     0xf0cd lib/built-in.o
 .debug_line    0x000000000006dc2f     0x7295 net/built-in.o
 .debug_line    0x0000000000074ec4      0x1f1 test/dm/built-in.o
 .debug_line    0x00000000000750b5       0xf1 arch/arm/lib/lib.a(lib1funcs.o)
 .debug_line    0x00000000000751a6       0xab arch/arm/lib/lib.a(uldivmod.o)
 .debug_line    0x0000000000075251       0x49 arch/arm/lib/lib.a(div0.o)

.debug_info     0x0000000000000000   0x13aeb1
 .debug_info    0x0000000000000000       0x26 arch/arm/cpu/armv7/start.o
 .debug_info    0x0000000000000026      0xadb arch/arm/cpu/armv7/built-in.o
 .debug_info    0x0000000000000b01     0x4aea arch/arm/lib/built-in.o
 .debug_info    0x00000000000055eb       0xd3 arch/arm/mach-molchip/built-in.o
 .debug_info    0x00000000000056be     0x7d96 board/molchip/built-in.o
 .debug_info    0x000000000000d454    0x1eb2c cmd/built-in.o
 .debug_info    0x000000000002bf80    0x72968 common/built-in.o
 .debug_info    0x000000000009e8e8     0x27f9 disk/built-in.o
 .debug_info    0x00000000000a10e1    0x2e526 drivers/built-in.o
 .debug_info    0x00000000000cf607     0x1130 drivers/dma/built-in.o
 .debug_info    0x00000000000d0737      0x5b0 drivers/gpio/built-in.o
 .debug_info    0x00000000000d0ce7     0x2803 drivers/mtd/built-in.o
 .debug_info    0x00000000000d34ea     0x43f3 drivers/mtd/spi/built-in.o
 .debug_info    0x00000000000d78dd     0xd8df drivers/net/built-in.o
 .debug_info    0x00000000000e51bc     0x5427 drivers/net/phy/built-in.o
 .debug_info    0x00000000000ea5e3     0x2f97 drivers/serial/built-in.o
 .debug_info    0x00000000000ed57a     0x5354 drivers/spi/built-in.o
 .debug_info    0x00000000000f28ce      0x616 drivers/usb/common/built-in.o
 .debug_info    0x00000000000f2ee4     0x408f drivers/usb/eth/built-in.o
 .debug_info    0x00000000000f6f73     0xfb44 drivers/usb/host/built-in.o
 .debug_info    0x0000000000106ab7      0x39d drivers/usb/phy/built-in.o
 .debug_info    0x0000000000106e54     0x4990 env/built-in.o
 .debug_info    0x000000000010b7e4     0x686b fs/built-in.o
 .debug_info    0x000000000011204f    0x18195 lib/built-in.o
 .debug_info    0x000000000012a1e4     0xfd48 net/built-in.o
 .debug_info    0x0000000000139f2c      0xee3 test/dm/built-in.o
 .debug_info    0x000000000013ae0f       0x22 arch/arm/lib/lib.a(lib1funcs.o)
 .debug_info    0x000000000013ae31       0x26 arch/arm/lib/lib.a(uldivmod.o)
 .debug_info    0x000000000013ae57       0x5a arch/arm/lib/lib.a(div0.o)

.debug_abbrev   0x0000000000000000    0x2d03d
 .debug_abbrev  0x0000000000000000       0x14 arch/arm/cpu/armv7/start.o
 .debug_abbrev  0x0000000000000014      0x4e5 arch/arm/cpu/armv7/built-in.o
 .debug_abbrev  0x00000000000004f9     0x11b7 arch/arm/lib/built-in.o
 .debug_abbrev  0x00000000000016b0       0x8e arch/arm/mach-molchip/built-in.o
 .debug_abbrev  0x000000000000173e     0x1948 board/molchip/built-in.o
 .debug_abbrev  0x0000000000003086     0x5492 cmd/built-in.o
 .debug_abbrev  0x0000000000008518     0xc626 common/built-in.o
 .debug_abbrev  0x0000000000014b3e      0x84a disk/built-in.o
 .debug_abbrev  0x0000000000015388     0x66a3 drivers/built-in.o
 .debug_abbrev  0x000000000001ba2b      0x358 drivers/dma/built-in.o
 .debug_abbrev  0x000000000001bd83      0x205 drivers/gpio/built-in.o
 .debug_abbrev  0x000000000001bf88      0x6b2 drivers/mtd/built-in.o
 .debug_abbrev  0x000000000001c63a      0x56a drivers/mtd/spi/built-in.o
 .debug_abbrev  0x000000000001cba4     0x158f drivers/net/built-in.o
 .debug_abbrev  0x000000000001e133      0xb97 drivers/net/phy/built-in.o
 .debug_abbrev  0x000000000001ecca      0x855 drivers/serial/built-in.o
 .debug_abbrev  0x000000000001f51f      0xd14 drivers/spi/built-in.o
 .debug_abbrev  0x0000000000020233      0x1aa drivers/usb/common/built-in.o
 .debug_abbrev  0x00000000000203dd      0x831 drivers/usb/eth/built-in.o
 .debug_abbrev  0x0000000000020c0e     0x1d15 drivers/usb/host/built-in.o
 .debug_abbrev  0x0000000000022923      0x14c drivers/usb/phy/built-in.o
 .debug_abbrev  0x0000000000022a6f     0x1247 env/built-in.o
 .debug_abbrev  0x0000000000023cb6      0xc41 fs/built-in.o
 .debug_abbrev  0x00000000000248f7     0x52cc lib/built-in.o
 .debug_abbrev  0x0000000000029bc3     0x31bb net/built-in.o
 .debug_abbrev  0x000000000002cd7e      0x235 test/dm/built-in.o
 .debug_abbrev  0x000000000002cfb3       0x12 arch/arm/lib/lib.a(lib1funcs.o)
 .debug_abbrev  0x000000000002cfc5       0x14 arch/arm/lib/lib.a(uldivmod.o)
 .debug_abbrev  0x000000000002cfd9       0x64 arch/arm/lib/lib.a(div0.o)

.debug_aranges  0x0000000000000000     0x6d28
 .debug_aranges
                0x0000000000000000       0x20 arch/arm/cpu/armv7/start.o
 .debug_aranges
                0x0000000000000020      0x128 arch/arm/cpu/armv7/built-in.o
 .debug_aranges
                0x0000000000000148      0x300 arch/arm/lib/built-in.o
 .debug_aranges
                0x0000000000000448       0x28 arch/arm/mach-molchip/built-in.o
 .debug_aranges
                0x0000000000000470      0x530 board/molchip/built-in.o
 .debug_aranges
                0x00000000000009a0      0x7f0 cmd/built-in.o
 .debug_aranges
                0x0000000000001190     0x2630 common/built-in.o
 .debug_aranges
                0x00000000000037c0       0xb8 disk/built-in.o
 .debug_aranges
                0x0000000000003878      0xbd0 drivers/built-in.o
 .debug_aranges
                0x0000000000004448       0xf8 drivers/dma/built-in.o
 .debug_aranges
                0x0000000000004540       0x48 drivers/gpio/built-in.o
 .debug_aranges
                0x0000000000004588      0x148 drivers/mtd/built-in.o
 .debug_aranges
                0x00000000000046d0      0x188 drivers/mtd/spi/built-in.o
 .debug_aranges
                0x0000000000004858      0x1f0 drivers/net/built-in.o
 .debug_aranges
                0x0000000000004a48      0x168 drivers/net/phy/built-in.o
 .debug_aranges
                0x0000000000004bb0       0xf0 drivers/serial/built-in.o
 .debug_aranges
                0x0000000000004ca0      0x5b0 drivers/spi/built-in.o
 .debug_aranges
                0x0000000000005250       0x20 drivers/usb/common/built-in.o
 .debug_aranges
                0x0000000000005270       0xd0 drivers/usb/eth/built-in.o
 .debug_aranges
                0x0000000000005340      0x298 drivers/usb/host/built-in.o
 .debug_aranges
                0x00000000000055d8       0x20 drivers/usb/phy/built-in.o
 .debug_aranges
                0x00000000000055f8      0x1a8 env/built-in.o
 .debug_aranges
                0x00000000000057a0      0x220 fs/built-in.o
 .debug_aranges
                0x00000000000059c0      0xd38 lib/built-in.o
 .debug_aranges
                0x00000000000066f8      0x570 net/built-in.o
 .debug_aranges
                0x0000000000006c68       0x38 test/dm/built-in.o
 .debug_aranges
                0x0000000000006ca0       0x48 arch/arm/lib/lib.a(lib1funcs.o)
 .debug_aranges
                0x0000000000006ce8       0x20 arch/arm/lib/lib.a(uldivmod.o)
 .debug_aranges
                0x0000000000006d08       0x20 arch/arm/lib/lib.a(div0.o)

.debug_str      0x0000000000000000    0x22fda
 .debug_str     0x0000000000000000       0x71 arch/arm/cpu/armv7/start.o
 .debug_str     0x0000000000000071      0x565 arch/arm/cpu/armv7/built-in.o
                                        0xda4 (size before relaxing)
 .debug_str     0x00000000000005d6     0x1cb8 arch/arm/lib/built-in.o
                                       0x441c (size before relaxing)
 .debug_str     0x000000000000228e       0x2b arch/arm/mach-molchip/built-in.o
                                        0x275 (size before relaxing)
 .debug_str     0x00000000000022b9     0x16e7 board/molchip/built-in.o
                                       0x4657 (size before relaxing)
 .debug_str     0x00000000000039a0     0x3e11 cmd/built-in.o
                                      0x10395 (size before relaxing)
 .debug_str     0x00000000000077b1     0xe911 common/built-in.o
                                      0x3b2e8 (size before relaxing)
 .debug_str     0x00000000000160c2      0x36e disk/built-in.o
                                        0xf2a (size before relaxing)
 .debug_str     0x0000000000016430     0x33f5 drivers/built-in.o
                                      0x19e28 (size before relaxing)
 .debug_str     0x0000000000019825      0x2bf drivers/dma/built-in.o
                                        0x66a (size before relaxing)
 .debug_str     0x0000000000019ae4       0xcd drivers/gpio/built-in.o
                                        0x36b (size before relaxing)
 .debug_str     0x0000000000019bb1      0x480 drivers/mtd/built-in.o
                                       0x1798 (size before relaxing)
 .debug_str     0x000000000001a031      0xafb drivers/mtd/spi/built-in.o
                                       0x1ca4 (size before relaxing)
 .debug_str     0x000000000001ab2c     0x13f1 drivers/net/built-in.o
                                       0x54be (size before relaxing)
 .debug_str     0x000000000001bf1d      0x3bf drivers/net/phy/built-in.o
                                       0x2955 (size before relaxing)
 .debug_str     0x000000000001c2dc      0x31d drivers/serial/built-in.o
                                       0x1ddb (size before relaxing)
 .debug_str     0x000000000001c5f9      0x8dd drivers/spi/built-in.o
                                       0x226e (size before relaxing)
 .debug_str     0x000000000001ced6       0x91 drivers/usb/common/built-in.o
                                        0x5a8 (size before relaxing)
 .debug_str     0x000000000001cf67      0x34d drivers/usb/eth/built-in.o
                                       0x25d9 (size before relaxing)
 .debug_str     0x000000000001d2b4     0x15b7 drivers/usb/host/built-in.o
                                       0x7d2f (size before relaxing)
 .debug_str     0x000000000001e86b       0x7c drivers/usb/phy/built-in.o
                                        0x2d2 (size before relaxing)
 .debug_str     0x000000000001e8e7      0x5fe env/built-in.o
                                       0x35dc (size before relaxing)
 .debug_str     0x000000000001eee5      0x905 fs/built-in.o
                                       0x1bef (size before relaxing)
 .debug_str     0x000000000001f7ea     0x1f1b lib/built-in.o
                                       0xc122 (size before relaxing)
 .debug_str     0x0000000000021705     0x1810 net/built-in.o
                                       0xa2f7 (size before relaxing)
 .debug_str     0x0000000000022f15       0x79 test/dm/built-in.o
                                        0xd2a (size before relaxing)
 .debug_str     0x0000000000022f8e       0x19 arch/arm/lib/lib.a(lib1funcs.o)
                                         0x6f (size before relaxing)
 .debug_str     0x0000000000022fa7       0x18 arch/arm/lib/lib.a(uldivmod.o)
                                         0x6e (size before relaxing)
 .debug_str     0x0000000000022fbf       0x1b arch/arm/lib/lib.a(div0.o)
                                        0x1ab (size before relaxing)

.debug_frame    0x0000000000000000    0x13768
 .debug_frame   0x0000000000000000      0x1e8 arch/arm/cpu/armv7/built-in.o
 .debug_frame   0x00000000000001e8      0x47c arch/arm/lib/built-in.o
 .debug_frame   0x0000000000000664       0x3c arch/arm/mach-molchip/built-in.o
 .debug_frame   0x00000000000006a0      0xd4c board/molchip/built-in.o
 .debug_frame   0x00000000000013ec     0x16a0 cmd/built-in.o
 .debug_frame   0x0000000000002a8c     0x7564 common/built-in.o
 .debug_frame   0x0000000000009ff0      0x298 disk/built-in.o
 .debug_frame   0x000000000000a288     0x206c drivers/built-in.o
 .debug_frame   0x000000000000c2f4      0x284 drivers/dma/built-in.o
 .debug_frame   0x000000000000c578       0x94 drivers/gpio/built-in.o
 .debug_frame   0x000000000000c60c      0x434 drivers/mtd/built-in.o
 .debug_frame   0x000000000000ca40      0x514 drivers/mtd/spi/built-in.o
 .debug_frame   0x000000000000cf54      0x608 drivers/net/built-in.o
 .debug_frame   0x000000000000d55c      0x424 drivers/net/phy/built-in.o
 .debug_frame   0x000000000000d980      0x218 drivers/serial/built-in.o
 .debug_frame   0x000000000000db98      0xce0 drivers/spi/built-in.o
 .debug_frame   0x000000000000e878       0x2c drivers/usb/common/built-in.o
 .debug_frame   0x000000000000e8a4      0x2a0 drivers/usb/eth/built-in.o
 .debug_frame   0x000000000000eb44      0x894 drivers/usb/host/built-in.o
 .debug_frame   0x000000000000f3d8       0x2c drivers/usb/phy/built-in.o
 .debug_frame   0x000000000000f404      0x484 env/built-in.o
 .debug_frame   0x000000000000f888      0x7a4 fs/built-in.o
 .debug_frame   0x000000000001002c     0x24dc lib/built-in.o
 .debug_frame   0x0000000000012508     0x11c4 net/built-in.o
 .debug_frame   0x00000000000136cc       0x7c test/dm/built-in.o
 .debug_frame   0x0000000000013748       0x20 arch/arm/lib/lib.a(div0.o)

.debug_loc      0x0000000000000000    0xa0b95
 .debug_loc     0x0000000000000000      0x5b7 arch/arm/cpu/armv7/built-in.o
 .debug_loc     0x00000000000005b7     0x12b1 arch/arm/lib/built-in.o
 .debug_loc     0x0000000000001868     0x4426 board/molchip/built-in.o
 .debug_loc     0x0000000000005c8e     0xf868 cmd/built-in.o
 .debug_loc     0x00000000000154f6    0x34ac9 common/built-in.o
 .debug_loc     0x0000000000049fbf     0x16c8 disk/built-in.o
 .debug_loc     0x000000000004b687    0x1417e drivers/built-in.o
 .debug_loc     0x000000000005f805      0xbb2 drivers/dma/built-in.o
 .debug_loc     0x00000000000603b7      0x518 drivers/gpio/built-in.o
 .debug_loc     0x00000000000608cf     0x193b drivers/mtd/built-in.o
 .debug_loc     0x000000000006220a     0x233c drivers/mtd/spi/built-in.o
 .debug_loc     0x0000000000064546     0x5dbc drivers/net/built-in.o
 .debug_loc     0x000000000006a302     0x2f38 drivers/net/phy/built-in.o
 .debug_loc     0x000000000006d23a      0xe50 drivers/serial/built-in.o
 .debug_loc     0x000000000006e08a     0x3dc4 drivers/spi/built-in.o
 .debug_loc     0x0000000000071e4e       0x8c drivers/usb/common/built-in.o
 .debug_loc     0x0000000000071eda     0x10fa drivers/usb/eth/built-in.o
 .debug_loc     0x0000000000072fd4     0x6da0 drivers/usb/host/built-in.o
 .debug_loc     0x0000000000079d74      0x47e drivers/usb/phy/built-in.o
 .debug_loc     0x000000000007a1f2     0x1a5c env/built-in.o
 .debug_loc     0x000000000007bc4e     0x60af fs/built-in.o
 .debug_loc     0x0000000000081cfd    0x173eb lib/built-in.o
 .debug_loc     0x00000000000990e8     0x77cb net/built-in.o
 .debug_loc     0x00000000000a08b3      0x2e2 test/dm/built-in.o

.debug_ranges   0x0000000000000000    0x10448
 .debug_ranges  0x0000000000000000      0x140 arch/arm/cpu/armv7/built-in.o
 .debug_ranges  0x0000000000000140      0x5c8 arch/arm/lib/built-in.o
 .debug_ranges  0x0000000000000708       0x18 arch/arm/mach-molchip/built-in.o
 .debug_ranges  0x0000000000000720      0x708 board/molchip/built-in.o
 .debug_ranges  0x0000000000000e28     0x1678 cmd/built-in.o
 .debug_ranges  0x00000000000024a0     0x4648 common/built-in.o
 .debug_ranges  0x0000000000006ae8      0x2f0 disk/built-in.o
 .debug_ranges  0x0000000000006dd8     0x2aa0 drivers/built-in.o
 .debug_ranges  0x0000000000009878      0x138 drivers/dma/built-in.o
 .debug_ranges  0x00000000000099b0       0x90 drivers/gpio/built-in.o
 .debug_ranges  0x0000000000009a40      0x110 drivers/mtd/built-in.o
 .debug_ranges  0x0000000000009b50      0x2b8 drivers/mtd/spi/built-in.o
 .debug_ranges  0x0000000000009e08      0xb88 drivers/net/built-in.o
 .debug_ranges  0x000000000000a990      0x588 drivers/net/phy/built-in.o
 .debug_ranges  0x000000000000af18      0x1f8 drivers/serial/built-in.o
 .debug_ranges  0x000000000000b110      0x8d8 drivers/spi/built-in.o
 .debug_ranges  0x000000000000b9e8       0x10 drivers/usb/common/built-in.o
 .debug_ranges  0x000000000000b9f8      0x188 drivers/usb/eth/built-in.o
 .debug_ranges  0x000000000000bb80      0xf50 drivers/usb/host/built-in.o
 .debug_ranges  0x000000000000cad0       0x60 drivers/usb/phy/built-in.o
 .debug_ranges  0x000000000000cb30      0x2f0 env/built-in.o
 .debug_ranges  0x000000000000ce20      0x710 fs/built-in.o
 .debug_ranges  0x000000000000d530     0x1f78 lib/built-in.o
 .debug_ranges  0x000000000000f4a8      0xf28 net/built-in.o
 .debug_ranges  0x00000000000103d0       0x28 test/dm/built-in.o
 .debug_ranges  0x00000000000103f8       0x40 arch/arm/lib/lib.a(lib1funcs.o)
 .debug_ranges  0x0000000000010438       0x10 arch/arm/lib/lib.a(div0.o)
